SF:/Users/VD/Vootaa_Projects/vootaa-labs@github/nexus-node/crates/nexus-config/src/consensus.rs
FN:77,_RNvMs_NtCs88GkVJRILsZ_12nexus_config9consensusNtB4_15ConsensusConfig11for_testing
FN:57,_RNvXNtCs88GkVJRILsZ_12nexus_config9consensusNtB2_15ConsensusConfigNtNtCslNfmTnNkGed_4core7default7Default7default
FN:100,_RNvNtNtCsgtRcUsPENq0_12nexus_config9consensus5testss_14default_values
FN:126,_RNvNtNtCsgtRcUsPENq0_12nexus_config9consensus5testss_23serialization_roundtrip
FN:111,_RNvNtNtCsgtRcUsPENq0_12nexus_config9consensus5testss_23testing_config_is_small
FN:119,_RNvNtNtCsgtRcUsPENq0_12nexus_config9consensus5testss_26slashing_percentages_valid
FN:77,_RNvMs_NtCsgtRcUsPENq0_12nexus_config9consensusNtB4_15ConsensusConfig11for_testing
FN:57,_RNvXNtCsgtRcUsPENq0_12nexus_config9consensusNtB2_15ConsensusConfigNtNtCslNfmTnNkGed_4core7default7Default7default
FNDA:14,_RNvMs_NtCs88GkVJRILsZ_12nexus_config9consensusNtB4_15ConsensusConfig11for_testing
FNDA:994,_RNvXNtCs88GkVJRILsZ_12nexus_config9consensusNtB2_15ConsensusConfigNtNtCslNfmTnNkGed_4core7default7Default7default
FNDA:17,_RNvNtNtCsgtRcUsPENq0_12nexus_config9consensus5testss_14default_values
FNDA:17,_RNvNtNtCsgtRcUsPENq0_12nexus_config9consensus5testss_23serialization_roundtrip
FNDA:17,_RNvNtNtCsgtRcUsPENq0_12nexus_config9consensus5testss_23testing_config_is_small
FNDA:17,_RNvNtNtCsgtRcUsPENq0_12nexus_config9consensus5testss_26slashing_percentages_valid
FNDA:34,_RNvMs_NtCsgtRcUsPENq0_12nexus_config9consensusNtB4_15ConsensusConfig11for_testing
FNDA:450,_RNvXNtCsgtRcUsPENq0_12nexus_config9consensusNtB2_15ConsensusConfigNtNtCslNfmTnNkGed_4core7default7Default7default
FNF:6
FNH:6
DA:57,1444
DA:58,1444
DA:59,1444
DA:60,1444
DA:61,1444
DA:62,1444
DA:63,1444
DA:64,1444
DA:65,1444
DA:66,1444
DA:67,1444
DA:68,1444
DA:69,1444
DA:70,1444
DA:71,1444
DA:72,1444
DA:77,48
DA:78,48
DA:79,48
DA:80,48
DA:81,48
DA:82,48
DA:83,48
DA:84,48
DA:85,48
DA:86,48
DA:87,48
DA:88,48
DA:89,48
DA:90,48
DA:91,48
DA:92,48
DA:100,17
DA:101,17
DA:102,17
DA:103,17
DA:104,17
DA:105,17
DA:106,17
DA:107,17
DA:108,17
DA:111,17
DA:112,17
DA:113,17
DA:114,17
DA:115,17
DA:116,17
DA:119,17
DA:120,17
DA:121,17
DA:122,17
DA:123,17
DA:126,17
DA:127,17
DA:128,17
DA:129,17
DA:130,17
DA:131,17
DA:132,17
BRF:0
BRH:0
LF:59
LH:59
end_of_record
SF:/Users/VD/Vootaa_Projects/vootaa-labs@github/nexus-node/crates/nexus-config/src/dirs.rs
FN:49,_RINvMNtCs88GkVJRILsZ_12nexus_config4dirsNtB3_8NodeDirs9from_baseReEB5_
FN:82,_RNCNvMNtCs88GkVJRILsZ_12nexus_config4dirsNtB4_8NodeDirs15ensure_data_dir0B6_
FN:111,_RNCNvMNtCs88GkVJRILsZ_12nexus_config4dirsNtB4_8NodeDirs18check_dir_writable0B6_
FN:80,_RNvMNtCsgtRcUsPENq0_12nexus_config4dirsNtB2_8NodeDirs15ensure_data_dir
FN:60,_RNvMNtCsgtRcUsPENq0_12nexus_config4dirsNtB2_8NodeDirs17container_default
FN:91,_RNvMNtCsgtRcUsPENq0_12nexus_config4dirsNtB2_8NodeDirs18check_dir_readable
FN:107,_RNvMNtCsgtRcUsPENq0_12nexus_config4dirsNtB2_8NodeDirs18check_dir_writable
FN:71,_RNvMNtCsgtRcUsPENq0_12nexus_config4dirsNtB2_8NodeDirs8validate
FN:214,_RNvNtNtCsgtRcUsPENq0_12nexus_config4dirs5testss_23validate_all_present_ok
FN:234,_RNvNtNtCsgtRcUsPENq0_12nexus_config4dirs5testss_24not_a_directory_detected
FN:203,_RNvNtNtCsgtRcUsPENq0_12nexus_config4dirs5testss_25validate_missing_data_dir
FN:193,_RNvNtNtCsgtRcUsPENq0_12nexus_config4dirs5testss_25validate_missing_keys_dir
FN:185,_RNvNtNtCsgtRcUsPENq0_12nexus_config4dirs5testss_27validate_missing_config_dir
FN:170,_RNvNtNtCsgtRcUsPENq0_12nexus_config4dirs5testss_30from_base_builds_correct_paths
FN:225,_RNvNtNtCsgtRcUsPENq0_12nexus_config4dirs5testss_31ensure_data_dir_creates_missing
FN:179,_RNvNtNtCsgtRcUsPENq0_12nexus_config4dirs5testss_34container_default_uses_slash_nexus
FN:49,_RINvMNtCsgtRcUsPENq0_12nexus_config4dirsNtB3_8NodeDirs9from_baseNtNtCseBpLqYIfw0F_3std4path7PathBufEB5_
FN:49,_RINvMNtCsgtRcUsPENq0_12nexus_config4dirsNtB3_8NodeDirs9from_baseRNtNtCseBpLqYIfw0F_3std4path7PathBufEB5_
FN:49,_RINvMNtCsgtRcUsPENq0_12nexus_config4dirsNtB3_8NodeDirs9from_baseReEB5_
FN:82,_RNCNvMNtCsgtRcUsPENq0_12nexus_config4dirsNtB4_8NodeDirs15ensure_data_dir0B6_
FN:111,_RNCNvMNtCsgtRcUsPENq0_12nexus_config4dirsNtB4_8NodeDirs18check_dir_writable0B6_
FNDA:0,_RINvMNtCs88GkVJRILsZ_12nexus_config4dirsNtB3_8NodeDirs9from_baseReEB5_
FNDA:0,_RNCNvMNtCs88GkVJRILsZ_12nexus_config4dirsNtB4_8NodeDirs15ensure_data_dir0B6_
FNDA:0,_RNCNvMNtCs88GkVJRILsZ_12nexus_config4dirsNtB4_8NodeDirs18check_dir_writable0B6_
FNDA:17,_RNvMNtCsgtRcUsPENq0_12nexus_config4dirsNtB2_8NodeDirs15ensure_data_dir
FNDA:17,_RNvMNtCsgtRcUsPENq0_12nexus_config4dirsNtB2_8NodeDirs17container_default
FNDA:170,_RNvMNtCsgtRcUsPENq0_12nexus_config4dirsNtB2_8NodeDirs18check_dir_readable
FNDA:34,_RNvMNtCsgtRcUsPENq0_12nexus_config4dirsNtB2_8NodeDirs18check_dir_writable
FNDA:85,_RNvMNtCsgtRcUsPENq0_12nexus_config4dirsNtB2_8NodeDirs8validate
FNDA:17,_RNvNtNtCsgtRcUsPENq0_12nexus_config4dirs5testss_23validate_all_present_ok
FNDA:17,_RNvNtNtCsgtRcUsPENq0_12nexus_config4dirs5testss_24not_a_directory_detected
FNDA:17,_RNvNtNtCsgtRcUsPENq0_12nexus_config4dirs5testss_25validate_missing_data_dir
FNDA:17,_RNvNtNtCsgtRcUsPENq0_12nexus_config4dirs5testss_25validate_missing_keys_dir
FNDA:17,_RNvNtNtCsgtRcUsPENq0_12nexus_config4dirs5testss_27validate_missing_config_dir
FNDA:17,_RNvNtNtCsgtRcUsPENq0_12nexus_config4dirs5testss_30from_base_builds_correct_paths
FNDA:17,_RNvNtNtCsgtRcUsPENq0_12nexus_config4dirs5testss_31ensure_data_dir_creates_missing
FNDA:17,_RNvNtNtCsgtRcUsPENq0_12nexus_config4dirs5testss_34container_default_uses_slash_nexus
FNDA:34,_RINvMNtCsgtRcUsPENq0_12nexus_config4dirsNtB3_8NodeDirs9from_baseNtNtCseBpLqYIfw0F_3std4path7PathBufEB5_
FNDA:68,_RINvMNtCsgtRcUsPENq0_12nexus_config4dirsNtB3_8NodeDirs9from_baseRNtNtCseBpLqYIfw0F_3std4path7PathBufEB5_
FNDA:34,_RINvMNtCsgtRcUsPENq0_12nexus_config4dirsNtB3_8NodeDirs9from_baseReEB5_
FNDA:0,_RNCNvMNtCsgtRcUsPENq0_12nexus_config4dirsNtB4_8NodeDirs15ensure_data_dir0B6_
FNDA:0,_RNCNvMNtCsgtRcUsPENq0_12nexus_config4dirsNtB4_8NodeDirs18check_dir_writable0B6_
FNF:16
FNH:14
DA:49,136
DA:50,136
DA:51,136
DA:52,136
DA:53,136
DA:54,136
DA:55,136
DA:56,136
DA:57,136
DA:60,17
DA:61,17
DA:62,17
DA:71,85
DA:72,85
DA:73,51
DA:74,34
DA:75,17
DA:76,85
DA:80,17
DA:81,17
DA:82,17
DA:83,0
DA:84,0
DA:85,0
DA:86,17
DA:87,0
DA:88,17
DA:89,17
DA:91,170
DA:92,170
DA:93,51
DA:94,51
DA:95,51
DA:96,51
DA:97,119
DA:98,119
DA:99,17
DA:100,17
DA:101,17
DA:102,17
DA:103,102
DA:104,102
DA:105,170
DA:107,34
DA:108,34
DA:110,17
DA:111,17
DA:112,0
DA:113,0
DA:114,0
DA:115,17
DA:116,17
DA:117,17
DA:118,34
DA:170,17
DA:171,17
DA:172,17
DA:173,17
DA:174,17
DA:175,17
DA:176,17
DA:179,17
DA:180,17
DA:181,17
DA:182,17
DA:185,17
DA:186,17
DA:187,17
DA:188,17
DA:189,17
DA:190,17
DA:193,17
DA:194,17
DA:195,17
DA:196,17
DA:197,17
DA:198,17
DA:199,17
DA:200,17
DA:203,17
DA:204,17
DA:205,17
DA:206,17
DA:207,17
DA:208,17
DA:209,17
DA:210,17
DA:211,17
DA:214,17
DA:215,17
DA:216,17
DA:217,17
DA:218,17
DA:219,17
DA:220,17
DA:221,17
DA:222,17
DA:225,17
DA:226,17
DA:227,17
DA:228,17
DA:229,17
DA:230,17
DA:231,17
DA:234,17
DA:235,17
DA:236,17
DA:237,17
DA:238,17
DA:239,17
DA:240,17
DA:241,17
DA:242,17
DA:243,17
BRF:0
BRH:0
LF:118
LH:107
end_of_record
SF:/Users/VD/Vootaa_Projects/vootaa-labs@github/nexus-node/crates/nexus-config/src/execution.rs
FN:80,_RNCNvNtCs88GkVJRILsZ_12nexus_config9execution8num_cpus0B5_
FN:62,_RNvMs_NtCs88GkVJRILsZ_12nexus_config9executionNtB4_15ExecutionConfig11for_testing
FN:78,_RNvNtCs88GkVJRILsZ_12nexus_config9execution8num_cpus
FN:45,_RNvXNtCs88GkVJRILsZ_12nexus_config9executionNtB2_15ExecutionConfigNtNtCslNfmTnNkGed_4core7default7Default7default
FN:89,_RNvNtNtCsgtRcUsPENq0_12nexus_config9execution5testss_14default_values
FN:100,_RNvNtNtCsgtRcUsPENq0_12nexus_config9execution5testss_15shard_invariant
FN:114,_RNvNtNtCsgtRcUsPENq0_12nexus_config9execution5testss_23serialization_roundtrip
FN:106,_RNvNtNtCsgtRcUsPENq0_12nexus_config9execution5testss_23testing_config_is_small
FN:80,_RNCNvNtCsgtRcUsPENq0_12nexus_config9execution8num_cpus0B5_
FN:62,_RNvMs_NtCsgtRcUsPENq0_12nexus_config9executionNtB4_15ExecutionConfig11for_testing
FN:78,_RNvNtCsgtRcUsPENq0_12nexus_config9execution8num_cpus
FN:45,_RNvXNtCsgtRcUsPENq0_12nexus_config9executionNtB2_15ExecutionConfigNtNtCslNfmTnNkGed_4core7default7Default7default
FNDA:14,_RNCNvNtCs88GkVJRILsZ_12nexus_config9execution8num_cpus0B5_
FNDA:392,_RNvMs_NtCs88GkVJRILsZ_12nexus_config9executionNtB4_15ExecutionConfig11for_testing
FNDA:14,_RNvNtCs88GkVJRILsZ_12nexus_config9execution8num_cpus
FNDA:14,_RNvXNtCs88GkVJRILsZ_12nexus_config9executionNtB2_15ExecutionConfigNtNtCslNfmTnNkGed_4core7default7Default7default
FNDA:17,_RNvNtNtCsgtRcUsPENq0_12nexus_config9execution5testss_14default_values
FNDA:17,_RNvNtNtCsgtRcUsPENq0_12nexus_config9execution5testss_15shard_invariant
FNDA:17,_RNvNtNtCsgtRcUsPENq0_12nexus_config9execution5testss_23serialization_roundtrip
FNDA:17,_RNvNtNtCsgtRcUsPENq0_12nexus_config9execution5testss_23testing_config_is_small
FNDA:185,_RNCNvNtCsgtRcUsPENq0_12nexus_config9execution8num_cpus0B5_
FNDA:34,_RNvMs_NtCsgtRcUsPENq0_12nexus_config9executionNtB4_15ExecutionConfig11for_testing
FNDA:185,_RNvNtCsgtRcUsPENq0_12nexus_config9execution8num_cpus
FNDA:185,_RNvXNtCsgtRcUsPENq0_12nexus_config9executionNtB2_15ExecutionConfigNtNtCslNfmTnNkGed_4core7default7Default7default
FNF:8
FNH:8
DA:45,199
DA:46,199
DA:47,199
DA:48,199
DA:49,199
DA:50,199
DA:51,199
DA:52,199
DA:53,199
DA:54,199
DA:55,199
DA:56,199
DA:57,199
DA:62,426
DA:63,426
DA:64,426
DA:65,426
DA:66,426
DA:67,426
DA:68,426
DA:69,426
DA:70,426
DA:71,426
DA:72,426
DA:73,426
DA:74,426
DA:78,199
DA:79,199
DA:80,199
DA:81,199
DA:82,199
DA:89,17
DA:90,17
DA:91,17
DA:92,17
DA:93,17
DA:94,17
DA:95,17
DA:96,17
DA:97,17
DA:100,17
DA:101,17
DA:102,17
DA:103,17
DA:106,17
DA:107,17
DA:108,17
DA:109,17
DA:110,17
DA:111,17
DA:114,17
DA:115,17
DA:116,17
DA:117,17
DA:118,17
DA:119,17
DA:120,17
BRF:0
BRH:0
LF:58
LH:58
end_of_record
SF:/Users/VD/Vootaa_Projects/vootaa-labs@github/nexus-node/crates/nexus-config/src/genesis.rs
FN:196,_RNCNvMNtCs88GkVJRILsZ_12nexus_config7genesisNtB4_13GenesisConfig11for_testing0B6_
FN:172,_RNCNvMNtCs88GkVJRILsZ_12nexus_config7genesisNtB4_13GenesisConfig12total_supply0B6_
FN:174,_RNCNvMNtCs88GkVJRILsZ_12nexus_config7genesisNtB4_13GenesisConfig12total_supplys_0B6_
FN:135,_RNCNvMNtCs88GkVJRILsZ_12nexus_config7genesisNtB4_13GenesisConfig8validate0B6_
FN:147,_RNCNvMNtCs88GkVJRILsZ_12nexus_config7genesisNtB4_13GenesisConfig8validates0_0B6_
FN:158,_RNCNvMNtCs88GkVJRILsZ_12nexus_config7genesisNtB4_13GenesisConfig8validates1_0B6_
FN:141,_RNCNvMNtCs88GkVJRILsZ_12nexus_config7genesisNtB4_13GenesisConfig8validates_0B6_
FN:320,_RNvNtNtCsgtRcUsPENq0_12nexus_config7genesis5testss_16test_zero_shards
FN:381,_RNvNtNtCsgtRcUsPENq0_12nexus_config7genesis5testss_17test_total_supply
FN:301,_RNvNtNtCsgtRcUsPENq0_12nexus_config7genesis5testss_18test_no_validators
FN:293,_RNvNtNtCsgtRcUsPENq0_12nexus_config7genesis5testss_19test_empty_chain_id
FN:390,_RNvNtNtCsgtRcUsPENq0_12nexus_config7genesis5testss_20test_json_round_trip
FN:328,_RNvNtNtCsgtRcUsPENq0_12nexus_config7genesis5testss_23test_empty_key_rejected
FN:342,_RNvNtNtCsgtRcUsPENq0_12nexus_config7genesis5testss_24test_zero_stake_rejected
FN:353,_RNvNtNtCsgtRcUsPENq0_12nexus_config7genesis5testss_25test_invalid_hex_rejected
FN:448,_RNvNtNtCsgtRcUsPENq0_12nexus_config7genesis5testss_27test_empty_peer_id_rejected
FN:309,_RNvNtNtCsgtRcUsPENq0_12nexus_config7genesis5testss_28test_insufficient_validators
FN:434,_RNvNtNtCsgtRcUsPENq0_12nexus_config7genesis5testss_29test_empty_kyber_key_rejected
FN:284,_RNvNtNtCsgtRcUsPENq0_12nexus_config7genesis5testss_30test_valid_genesis_for_testing
FN:490,_RNvNtNtCsgtRcUsPENq0_12nexus_config7genesis5testss_31test_all_error_display_variants
FN:400,_RNvNtNtCsgtRcUsPENq0_12nexus_config7genesis5testss_31test_genesis_hash_deterministic
FN:367,_RNvNtNtCsgtRcUsPENq0_12nexus_config7genesis5testss_31test_invalid_allocation_address
FN:476,_RNvNtNtCsgtRcUsPENq0_12nexus_config7genesis5testss_31test_invalid_kyber_hex_rejected
FN:420,_RNvNtNtCsgtRcUsPENq0_12nexus_config7genesis5testss_33test_empty_dilithium_key_rejected
FN:462,_RNvNtNtCsgtRcUsPENq0_12nexus_config7genesis5testss_35test_invalid_dilithium_hex_rejected
FN:408,_RNvNtNtCsgtRcUsPENq0_12nexus_config7genesis5testss_39test_genesis_hash_changes_with_chain_id
FN:196,_RNCNvMNtCsgtRcUsPENq0_12nexus_config7genesisNtB4_13GenesisConfig11for_testing0B6_
FN:172,_RNCNvMNtCsgtRcUsPENq0_12nexus_config7genesisNtB4_13GenesisConfig12total_supply0B6_
FN:174,_RNCNvMNtCsgtRcUsPENq0_12nexus_config7genesisNtB4_13GenesisConfig12total_supplys_0B6_
FN:135,_RNCNvMNtCsgtRcUsPENq0_12nexus_config7genesisNtB4_13GenesisConfig8validate0B6_
FN:147,_RNCNvMNtCsgtRcUsPENq0_12nexus_config7genesisNtB4_13GenesisConfig8validates0_0B6_
FN:158,_RNCNvMNtCsgtRcUsPENq0_12nexus_config7genesisNtB4_13GenesisConfig8validates1_0B6_
FN:141,_RNCNvMNtCsgtRcUsPENq0_12nexus_config7genesisNtB4_13GenesisConfig8validates_0B6_
FN:190,_RNvMNtCsgtRcUsPENq0_12nexus_config7genesisNtB2_13GenesisConfig11for_testing
FN:182,_RNvMNtCsgtRcUsPENq0_12nexus_config7genesisNtB2_13GenesisConfig12genesis_hash
FN:168,_RNvMNtCsgtRcUsPENq0_12nexus_config7genesisNtB2_13GenesisConfig12total_supply
FN:84,_RNvMNtCsgtRcUsPENq0_12nexus_config7genesisNtB2_13GenesisConfig8validate
FN:190,_RNvMNtCs88GkVJRILsZ_12nexus_config7genesisNtB2_13GenesisConfig11for_testing
FN:182,_RNvMNtCs88GkVJRILsZ_12nexus_config7genesisNtB2_13GenesisConfig12genesis_hash
FN:168,_RNvMNtCs88GkVJRILsZ_12nexus_config7genesisNtB2_13GenesisConfig12total_supply
FN:84,_RNvMNtCs88GkVJRILsZ_12nexus_config7genesisNtB2_13GenesisConfig8validate
FNDA:1976,_RNCNvMNtCs88GkVJRILsZ_12nexus_config7genesisNtB4_13GenesisConfig11for_testing0B6_
FNDA:42,_RNCNvMNtCs88GkVJRILsZ_12nexus_config7genesisNtB4_13GenesisConfig12total_supply0B6_
FNDA:168,_RNCNvMNtCs88GkVJRILsZ_12nexus_config7genesisNtB4_13GenesisConfig12total_supplys_0B6_
FNDA:0,_RNCNvMNtCs88GkVJRILsZ_12nexus_config7genesisNtB4_13GenesisConfig8validate0B6_
FNDA:0,_RNCNvMNtCs88GkVJRILsZ_12nexus_config7genesisNtB4_13GenesisConfig8validates0_0B6_
FNDA:0,_RNCNvMNtCs88GkVJRILsZ_12nexus_config7genesisNtB4_13GenesisConfig8validates1_0B6_
FNDA:0,_RNCNvMNtCs88GkVJRILsZ_12nexus_config7genesisNtB4_13GenesisConfig8validates_0B6_
FNDA:17,_RNvNtNtCsgtRcUsPENq0_12nexus_config7genesis5testss_16test_zero_shards
FNDA:17,_RNvNtNtCsgtRcUsPENq0_12nexus_config7genesis5testss_17test_total_supply
FNDA:17,_RNvNtNtCsgtRcUsPENq0_12nexus_config7genesis5testss_18test_no_validators
FNDA:17,_RNvNtNtCsgtRcUsPENq0_12nexus_config7genesis5testss_19test_empty_chain_id
FNDA:17,_RNvNtNtCsgtRcUsPENq0_12nexus_config7genesis5testss_20test_json_round_trip
FNDA:17,_RNvNtNtCsgtRcUsPENq0_12nexus_config7genesis5testss_23test_empty_key_rejected
FNDA:17,_RNvNtNtCsgtRcUsPENq0_12nexus_config7genesis5testss_24test_zero_stake_rejected
FNDA:17,_RNvNtNtCsgtRcUsPENq0_12nexus_config7genesis5testss_25test_invalid_hex_rejected
FNDA:2,_RNvNtNtCsgtRcUsPENq0_12nexus_config7genesis5testss_27test_empty_peer_id_rejected
FNDA:17,_RNvNtNtCsgtRcUsPENq0_12nexus_config7genesis5testss_28test_insufficient_validators
FNDA:2,_RNvNtNtCsgtRcUsPENq0_12nexus_config7genesis5testss_29test_empty_kyber_key_rejected
FNDA:17,_RNvNtNtCsgtRcUsPENq0_12nexus_config7genesis5testss_30test_valid_genesis_for_testing
FNDA:2,_RNvNtNtCsgtRcUsPENq0_12nexus_config7genesis5testss_31test_all_error_display_variants
FNDA:17,_RNvNtNtCsgtRcUsPENq0_12nexus_config7genesis5testss_31test_genesis_hash_deterministic
FNDA:17,_RNvNtNtCsgtRcUsPENq0_12nexus_config7genesis5testss_31test_invalid_allocation_address
FNDA:2,_RNvNtNtCsgtRcUsPENq0_12nexus_config7genesis5testss_31test_invalid_kyber_hex_rejected
FNDA:2,_RNvNtNtCsgtRcUsPENq0_12nexus_config7genesis5testss_33test_empty_dilithium_key_rejected
FNDA:2,_RNvNtNtCsgtRcUsPENq0_12nexus_config7genesis5testss_35test_invalid_dilithium_hex_rejected
FNDA:17,_RNvNtNtCsgtRcUsPENq0_12nexus_config7genesis5testss_39test_genesis_hash_changes_with_chain_id
FNDA:992,_RNCNvMNtCsgtRcUsPENq0_12nexus_config7genesisNtB4_13GenesisConfig11for_testing0B6_
FNDA:17,_RNCNvMNtCsgtRcUsPENq0_12nexus_config7genesisNtB4_13GenesisConfig12total_supply0B6_
FNDA:68,_RNCNvMNtCsgtRcUsPENq0_12nexus_config7genesisNtB4_13GenesisConfig12total_supplys_0B6_
FNDA:17,_RNCNvMNtCsgtRcUsPENq0_12nexus_config7genesisNtB4_13GenesisConfig8validate0B6_
FNDA:2,_RNCNvMNtCsgtRcUsPENq0_12nexus_config7genesisNtB4_13GenesisConfig8validates0_0B6_
FNDA:0,_RNCNvMNtCsgtRcUsPENq0_12nexus_config7genesisNtB4_13GenesisConfig8validates1_0B6_
FNDA:2,_RNCNvMNtCsgtRcUsPENq0_12nexus_config7genesisNtB4_13GenesisConfig8validates_0B6_
FNDA:248,_RNvMNtCsgtRcUsPENq0_12nexus_config7genesisNtB2_13GenesisConfig11for_testing
FNDA:68,_RNvMNtCsgtRcUsPENq0_12nexus_config7genesisNtB2_13GenesisConfig12genesis_hash
FNDA:17,_RNvMNtCsgtRcUsPENq0_12nexus_config7genesisNtB2_13GenesisConfig12total_supply
FNDA:163,_RNvMNtCsgtRcUsPENq0_12nexus_config7genesisNtB2_13GenesisConfig8validate
FNDA:494,_RNvMNtCs88GkVJRILsZ_12nexus_config7genesisNtB2_13GenesisConfig11for_testing
FNDA:154,_RNvMNtCs88GkVJRILsZ_12nexus_config7genesisNtB2_13GenesisConfig12genesis_hash
FNDA:42,_RNvMNtCs88GkVJRILsZ_12nexus_config7genesisNtB2_13GenesisConfig12total_supply
FNDA:525,_RNvMNtCs88GkVJRILsZ_12nexus_config7genesisNtB2_13GenesisConfig8validate
FNF:30
FNH:29
DA:84,688
DA:85,688
DA:86,17
DA:87,671
DA:88,671
DA:89,20
DA:90,651
DA:91,651
DA:92,17
DA:93,634
DA:94,634
DA:95,634
DA:96,634
DA:97,634
DA:98,634
DA:99,31
DA:100,31
DA:101,31
DA:102,31
DA:103,603
DA:106,2274
DA:107,2274
DA:108,17
DA:109,17
DA:110,17
DA:111,17
DA:112,2257
DA:113,2257
DA:114,2
DA:115,2
DA:116,2
DA:117,2
DA:118,2255
DA:119,2255
DA:120,2
DA:121,2
DA:122,2
DA:123,2
DA:124,2253
DA:125,2253
DA:126,2
DA:127,2
DA:128,2
DA:129,2
DA:130,2251
DA:131,2251
DA:132,17
DA:133,2234
DA:134,2234
DA:135,2234
DA:136,17
DA:137,17
DA:138,17
DA:139,17
DA:140,2234
DA:141,2217
DA:142,2
DA:143,2
DA:144,2
DA:145,2
DA:146,2217
DA:147,2215
DA:148,2
DA:149,2
DA:150,2
DA:151,2
DA:152,2215
DA:156,542
DA:157,486
DA:158,486
DA:159,486
DA:160,17
DA:161,469
DA:164,525
DA:165,688
DA:168,59
DA:169,59
DA:170,59
DA:171,59
DA:172,59
DA:173,59
DA:174,236
DA:175,59
DA:176,59
DA:182,222
DA:184,222
DA:185,222
DA:186,222
DA:187,222
DA:190,742
DA:195,742
DA:196,2968
DA:197,2968
DA:198,2968
DA:199,2968
DA:200,2968
DA:201,2968
DA:202,2968
DA:203,2968
DA:204,2968
DA:205,2968
DA:206,2968
DA:207,2968
DA:208,2968
DA:209,2968
DA:210,2968
DA:211,2968
DA:212,2968
DA:213,742
DA:214,742
DA:215,742
DA:216,742
DA:217,742
DA:218,742
DA:219,742
DA:220,742
DA:221,742
DA:222,742
DA:223,742
DA:224,742
DA:225,742
DA:226,742
DA:284,17
DA:285,17
DA:286,17
DA:287,17
DA:288,17
DA:289,17
DA:290,17
DA:293,17
DA:294,17
DA:295,17
DA:296,17
DA:297,17
DA:298,17
DA:301,17
DA:302,17
DA:303,17
DA:304,17
DA:305,17
DA:306,17
DA:309,17
DA:310,17
DA:311,17
DA:312,17
DA:313,17
DA:314,17
DA:317,17
DA:320,17
DA:321,17
DA:322,17
DA:323,17
DA:324,17
DA:325,17
DA:328,17
DA:329,17
DA:330,17
DA:331,17
DA:332,17
DA:333,17
DA:336,17
DA:339,17
DA:342,17
DA:343,17
DA:344,17
DA:345,17
DA:346,17
DA:347,17
DA:350,17
DA:353,17
DA:354,17
DA:355,17
DA:356,17
DA:357,17
DA:358,17
DA:361,17
DA:364,17
DA:367,17
DA:368,17
DA:369,17
DA:370,17
DA:371,17
DA:372,17
DA:373,17
DA:374,17
DA:375,17
DA:378,17
DA:381,17
DA:382,17
DA:383,17
DA:384,17
DA:385,17
DA:386,17
DA:387,17
DA:390,17
DA:391,17
DA:392,17
DA:393,17
DA:394,17
DA:395,17
DA:396,17
DA:397,17
DA:400,17
DA:401,17
DA:402,17
DA:403,17
DA:404,17
DA:405,17
DA:408,17
DA:409,17
DA:410,17
DA:411,17
DA:412,17
DA:413,17
DA:414,17
DA:415,17
DA:420,2
DA:421,2
DA:422,2
DA:423,2
DA:424,2
DA:425,2
DA:428,2
DA:431,2
DA:434,2
DA:435,2
DA:436,2
DA:437,2
DA:438,2
DA:439,2
DA:442,2
DA:445,2
DA:448,2
DA:449,2
DA:450,2
DA:451,2
DA:452,2
DA:453,2
DA:456,2
DA:459,2
DA:462,2
DA:463,2
DA:464,2
DA:465,2
DA:466,2
DA:467,2
DA:470,2
DA:473,2
DA:476,2
DA:477,2
DA:478,2
DA:479,2
DA:480,2
DA:481,2
DA:484,2
DA:487,2
DA:490,2
DA:491,2
DA:492,2
DA:493,2
DA:494,2
DA:495,2
DA:496,2
DA:497,2
DA:498,2
DA:499,2
DA:500,2
DA:501,18
DA:502,16
DA:503,16
DA:505,2
BRF:0
BRH:0
LF:282
LH:281
end_of_record
SF:/Users/VD/Vootaa_Projects/vootaa-labs@github/nexus-node/crates/nexus-config/src/intent.rs
FN:58,_RNvMs_NtCs88GkVJRILsZ_12nexus_config6intentNtB4_12IntentConfig11for_testing
FN:42,_RNvXNtCs88GkVJRILsZ_12nexus_config6intentNtB2_12IntentConfigNtNtCslNfmTnNkGed_4core7default7Default7default
FN:58,_RNvMs_NtCsgtRcUsPENq0_12nexus_config6intentNtB4_12IntentConfig11for_testing
FN:42,_RNvXNtCsgtRcUsPENq0_12nexus_config6intentNtB2_12IntentConfigNtNtCslNfmTnNkGed_4core7default7Default7default
FN:77,_RNvNtNtCsgtRcUsPENq0_12nexus_config6intent5testss_14default_values
FN:96,_RNvNtNtCsgtRcUsPENq0_12nexus_config6intent5testss_23serialization_roundtrip
FN:88,_RNvNtNtCsgtRcUsPENq0_12nexus_config6intent5testss_23testing_config_is_small
FNDA:14,_RNvMs_NtCs88GkVJRILsZ_12nexus_config6intentNtB4_12IntentConfig11for_testing
FNDA:0,_RNvXNtCs88GkVJRILsZ_12nexus_config6intentNtB2_12IntentConfigNtNtCslNfmTnNkGed_4core7default7Default7default
FNDA:34,_RNvMs_NtCsgtRcUsPENq0_12nexus_config6intentNtB4_12IntentConfig11for_testing
FNDA:168,_RNvXNtCsgtRcUsPENq0_12nexus_config6intentNtB2_12IntentConfigNtNtCslNfmTnNkGed_4core7default7Default7default
FNDA:17,_RNvNtNtCsgtRcUsPENq0_12nexus_config6intent5testss_14default_values
FNDA:17,_RNvNtNtCsgtRcUsPENq0_12nexus_config6intent5testss_23serialization_roundtrip
FNDA:17,_RNvNtNtCsgtRcUsPENq0_12nexus_config6intent5testss_23testing_config_is_small
FNF:5
FNH:5
DA:42,168
DA:43,168
DA:44,168
DA:45,168
DA:46,168
DA:47,168
DA:48,168
DA:49,168
DA:50,168
DA:51,168
DA:52,168
DA:53,168
DA:58,48
DA:59,48
DA:60,48
DA:61,48
DA:62,48
DA:63,48
DA:64,48
DA:65,48
DA:66,48
DA:67,48
DA:68,48
DA:69,48
DA:77,17
DA:78,17
DA:79,17
DA:80,17
DA:81,17
DA:82,17
DA:83,17
DA:84,17
DA:85,17
DA:88,17
DA:89,17
DA:90,17
DA:91,17
DA:92,17
DA:93,17
DA:96,17
DA:97,17
DA:98,17
DA:99,17
DA:100,17
DA:101,17
DA:102,17
DA:103,17
DA:104,17
DA:105,17
BRF:0
BRH:0
LF:49
LH:49
end_of_record
SF:/Users/VD/Vootaa_Projects/vootaa-labs@github/nexus-node/crates/nexus-config/src/node.rs
FN:88,_RNvMNtCs88GkVJRILsZ_12nexus_config4nodeNtB2_10NodeConfig11for_testing
FN:129,_RNvMNtCs88GkVJRILsZ_12nexus_config4nodeNtB2_10NodeConfig19apply_env_overrides
FN:119,_RNvMNtCs88GkVJRILsZ_12nexus_config4nodeNtB2_10NodeConfig4load
FN:106,_RNvMNtCs88GkVJRILsZ_12nexus_config4nodeNtB2_10NodeConfig9from_file
FN:134,_RNCNvMNtCs88GkVJRILsZ_12nexus_config4nodeNtB4_10NodeConfig19apply_env_overrides0B6_
FN:151,_RNCNvMNtCs88GkVJRILsZ_12nexus_config4nodeNtB4_10NodeConfig19apply_env_overridess0_0B6_
FN:144,_RNCNvMNtCs88GkVJRILsZ_12nexus_config4nodeNtB4_10NodeConfig19apply_env_overridess_0B6_
FN:107,_RNCNvMNtCs88GkVJRILsZ_12nexus_config4nodeNtB4_10NodeConfig9from_file0B6_
FN:266,_RNvNtNtCsgtRcUsPENq0_12nexus_config4node5testss_14load_with_file
FN:176,_RNvNtNtCsgtRcUsPENq0_12nexus_config4node5testss_19default_node_config
FN:228,_RNvNtNtCsgtRcUsPENq0_12nexus_config4node5testss_19from_file_not_found
FN:185,_RNvNtNtCsgtRcUsPENq0_12nexus_config4node5testss_19testing_node_config
FN:332,_RNvNtNtCsgtRcUsPENq0_12nexus_config4node5testss_22env_override_grpc_port
FN:282,_RNvNtNtCsgtRcUsPENq0_12nexus_config4node5testss_22env_override_log_level
FN:341,_RNvNtNtCsgtRcUsPENq0_12nexus_config4node5testss_22env_override_rest_port
FN:236,_RNvNtNtCsgtRcUsPENq0_12nexus_config4node5testss_23serialization_roundtrip
FN:350,_RNvNtNtCsgtRcUsPENq0_12nexus_config4node5testss_25env_override_network_port
FN:291,_RNvNtNtCsgtRcUsPENq0_12nexus_config4node5testss_25env_override_storage_path
FN:204,_RNvNtNtCsgtRcUsPENq0_12nexus_config4node5testss_27from_file_partial_overrides
FN:312,_RNvNtNtCsgtRcUsPENq0_12nexus_config4node5testss_30env_override_dev_mode_variants
FN:300,_RNvNtNtCsgtRcUsPENq0_12nexus_config4node5testss_33env_override_genesis_and_key_path
FN:251,_RNvNtNtCsgtRcUsPENq0_12nexus_config4node5testss_33load_without_file_returns_default
FN:194,_RNvNtNtCsgtRcUsPENq0_12nexus_config4node5testss_34from_file_empty_toml_uses_defaults
FN:323,_RNvNtNtCsgtRcUsPENq0_12nexus_config4node5testss_39env_override_invalid_port_returns_error
FN:359,_RNvNtNtCsgtRcUsPENq0_12nexus_config4node5testss_44env_override_invalid_grpc_port_returns_error
FN:368,_RNvNtNtCsgtRcUsPENq0_12nexus_config4node5testss_44env_override_invalid_rest_port_returns_error
FN:134,_RNCNvMNtCsgtRcUsPENq0_12nexus_config4nodeNtB4_10NodeConfig19apply_env_overrides0B6_
FN:151,_RNCNvMNtCsgtRcUsPENq0_12nexus_config4nodeNtB4_10NodeConfig19apply_env_overridess0_0B6_
FN:144,_RNCNvMNtCsgtRcUsPENq0_12nexus_config4nodeNtB4_10NodeConfig19apply_env_overridess_0B6_
FN:107,_RNCNvMNtCsgtRcUsPENq0_12nexus_config4nodeNtB4_10NodeConfig9from_file0B6_
FN:88,_RNvMNtCsgtRcUsPENq0_12nexus_config4nodeNtB2_10NodeConfig11for_testing
FN:129,_RNvMNtCsgtRcUsPENq0_12nexus_config4nodeNtB2_10NodeConfig19apply_env_overrides
FN:119,_RNvMNtCsgtRcUsPENq0_12nexus_config4nodeNtB2_10NodeConfig4load
FN:106,_RNvMNtCsgtRcUsPENq0_12nexus_config4nodeNtB2_10NodeConfig9from_file
FNDA:14,_RNvMNtCs88GkVJRILsZ_12nexus_config4nodeNtB2_10NodeConfig11for_testing
FNDA:0,_RNvMNtCs88GkVJRILsZ_12nexus_config4nodeNtB2_10NodeConfig19apply_env_overrides
FNDA:0,_RNvMNtCs88GkVJRILsZ_12nexus_config4nodeNtB2_10NodeConfig4load
FNDA:0,_RNvMNtCs88GkVJRILsZ_12nexus_config4nodeNtB2_10NodeConfig9from_file
FNDA:0,_RNCNvMNtCs88GkVJRILsZ_12nexus_config4nodeNtB4_10NodeConfig19apply_env_overrides0B6_
FNDA:0,_RNCNvMNtCs88GkVJRILsZ_12nexus_config4nodeNtB4_10NodeConfig19apply_env_overridess0_0B6_
FNDA:0,_RNCNvMNtCs88GkVJRILsZ_12nexus_config4nodeNtB4_10NodeConfig19apply_env_overridess_0B6_
FNDA:0,_RNCNvMNtCs88GkVJRILsZ_12nexus_config4nodeNtB4_10NodeConfig9from_file0B6_
FNDA:2,_RNvNtNtCsgtRcUsPENq0_12nexus_config4node5testss_14load_with_file
FNDA:17,_RNvNtNtCsgtRcUsPENq0_12nexus_config4node5testss_19default_node_config
FNDA:17,_RNvNtNtCsgtRcUsPENq0_12nexus_config4node5testss_19from_file_not_found
FNDA:17,_RNvNtNtCsgtRcUsPENq0_12nexus_config4node5testss_19testing_node_config
FNDA:2,_RNvNtNtCsgtRcUsPENq0_12nexus_config4node5testss_22env_override_grpc_port
FNDA:2,_RNvNtNtCsgtRcUsPENq0_12nexus_config4node5testss_22env_override_log_level
FNDA:2,_RNvNtNtCsgtRcUsPENq0_12nexus_config4node5testss_22env_override_rest_port
FNDA:17,_RNvNtNtCsgtRcUsPENq0_12nexus_config4node5testss_23serialization_roundtrip
FNDA:2,_RNvNtNtCsgtRcUsPENq0_12nexus_config4node5testss_25env_override_network_port
FNDA:2,_RNvNtNtCsgtRcUsPENq0_12nexus_config4node5testss_25env_override_storage_path
FNDA:17,_RNvNtNtCsgtRcUsPENq0_12nexus_config4node5testss_27from_file_partial_overrides
FNDA:2,_RNvNtNtCsgtRcUsPENq0_12nexus_config4node5testss_30env_override_dev_mode_variants
FNDA:2,_RNvNtNtCsgtRcUsPENq0_12nexus_config4node5testss_33env_override_genesis_and_key_path
FNDA:2,_RNvNtNtCsgtRcUsPENq0_12nexus_config4node5testss_33load_without_file_returns_default
FNDA:17,_RNvNtNtCsgtRcUsPENq0_12nexus_config4node5testss_34from_file_empty_toml_uses_defaults
FNDA:2,_RNvNtNtCsgtRcUsPENq0_12nexus_config4node5testss_39env_override_invalid_port_returns_error
FNDA:2,_RNvNtNtCsgtRcUsPENq0_12nexus_config4node5testss_44env_override_invalid_grpc_port_returns_error
FNDA:2,_RNvNtNtCsgtRcUsPENq0_12nexus_config4node5testss_44env_override_invalid_rest_port_returns_error
FNDA:2,_RNCNvMNtCsgtRcUsPENq0_12nexus_config4nodeNtB4_10NodeConfig19apply_env_overrides0B6_
FNDA:2,_RNCNvMNtCsgtRcUsPENq0_12nexus_config4nodeNtB4_10NodeConfig19apply_env_overridess0_0B6_
FNDA:2,_RNCNvMNtCsgtRcUsPENq0_12nexus_config4nodeNtB4_10NodeConfig19apply_env_overridess_0B6_
FNDA:17,_RNCNvMNtCsgtRcUsPENq0_12nexus_config4nodeNtB4_10NodeConfig9from_file0B6_
FNDA:17,_RNvMNtCsgtRcUsPENq0_12nexus_config4nodeNtB2_10NodeConfig11for_testing
FNDA:32,_RNvMNtCsgtRcUsPENq0_12nexus_config4nodeNtB2_10NodeConfig19apply_env_overrides
FNDA:4,_RNvMNtCsgtRcUsPENq0_12nexus_config4nodeNtB2_10NodeConfig4load
FNDA:53,_RNvMNtCsgtRcUsPENq0_12nexus_config4nodeNtB2_10NodeConfig9from_file
FNF:26
FNH:26
DA:88,31
DA:89,31
DA:90,31
DA:91,31
DA:92,31
DA:93,31
DA:94,31
DA:95,31
DA:96,31
DA:97,31
DA:98,31
DA:99,31
DA:100,31
DA:101,31
DA:106,53
DA:107,53
DA:108,17
DA:109,17
DA:110,53
DA:111,36
DA:112,36
DA:113,53
DA:119,4
DA:120,4
DA:121,2
DA:122,2
DA:124,4
DA:125,4
DA:126,4
DA:129,32
DA:130,32
DA:131,2
DA:132,30
DA:133,32
DA:134,4
DA:135,2
DA:136,2
DA:137,4
DA:138,2
DA:139,28
DA:140,30
DA:141,2
DA:142,28
DA:143,30
DA:144,4
DA:145,2
DA:146,2
DA:147,4
DA:148,2
DA:149,26
DA:150,28
DA:151,4
DA:152,2
DA:153,2
DA:154,4
DA:155,2
DA:156,24
DA:157,26
DA:158,2
DA:159,24
DA:160,26
DA:161,2
DA:162,24
DA:163,26
DA:164,10
DA:165,16
DA:166,26
DA:167,32
DA:176,17
DA:177,17
DA:178,17
DA:179,17
DA:180,17
DA:181,17
DA:182,17
DA:185,17
DA:186,17
DA:187,17
DA:188,17
DA:189,17
DA:190,17
DA:191,17
DA:194,17
DA:195,17
DA:196,17
DA:197,17
DA:198,17
DA:199,17
DA:200,17
DA:201,17
DA:204,17
DA:205,17
DA:206,17
DA:207,17
DA:208,17
DA:209,17
DA:210,17
DA:211,17
DA:212,17
DA:213,17
DA:214,17
DA:215,17
DA:216,17
DA:217,17
DA:218,17
DA:219,17
DA:220,17
DA:221,17
DA:222,17
DA:224,17
DA:225,17
DA:228,17
DA:229,17
DA:230,17
DA:231,17
DA:232,17
DA:233,17
DA:236,17
DA:237,17
DA:238,17
DA:239,17
DA:240,17
DA:241,17
DA:242,17
DA:243,17
DA:244,17
DA:245,17
DA:246,17
DA:251,2
DA:253,16
DA:254,2
DA:255,2
DA:256,2
DA:257,16
DA:258,16
DA:259,16
DA:260,2
DA:261,2
DA:262,2
DA:263,2
DA:266,2
DA:267,2
DA:268,2
DA:269,2
DA:270,16
DA:271,2
DA:272,2
DA:273,2
DA:274,16
DA:275,16
DA:276,16
DA:277,2
DA:278,2
DA:279,2
DA:282,2
DA:283,2
DA:284,2
DA:285,2
DA:286,2
DA:287,2
DA:288,2
DA:291,2
DA:292,2
DA:293,2
DA:294,2
DA:295,2
DA:296,2
DA:297,2
DA:300,2
DA:301,2
DA:302,2
DA:303,2
DA:304,2
DA:305,2
DA:306,2
DA:307,2
DA:308,2
DA:309,2
DA:312,2
DA:313,10
DA:314,10
DA:315,10
DA:316,10
DA:317,10
DA:319,2
DA:320,2
DA:323,2
DA:324,2
DA:325,2
DA:326,2
DA:327,2
DA:328,2
DA:329,2
DA:332,2
DA:333,2
DA:334,2
DA:335,2
DA:336,2
DA:337,2
DA:338,2
DA:341,2
DA:342,2
DA:343,2
DA:344,2
DA:345,2
DA:346,2
DA:347,2
DA:350,2
DA:351,2
DA:352,2
DA:353,2
DA:354,2
DA:355,2
DA:356,2
DA:359,2
DA:360,2
DA:361,2
DA:362,2
DA:363,2
DA:364,2
DA:365,2
DA:368,2
DA:369,2
DA:370,2
DA:371,2
DA:372,2
DA:373,2
DA:374,2
BRF:0
BRH:0
LF:236
LH:236
end_of_record
SF:/Users/VD/Vootaa_Projects/vootaa-labs@github/nexus-node/crates/nexus-config/src/rpc.rs
FN:272,_RNvMs_NtCs88GkVJRILsZ_12nexus_config3rpcNtB4_9RpcConfig11for_testing
FN:182,_RNvMs_NtCs88GkVJRILsZ_12nexus_config3rpcNtB4_9RpcConfig8validate
FN:141,_RNvXNtCs88GkVJRILsZ_12nexus_config3rpcNtB2_9RpcConfigNtNtCslNfmTnNkGed_4core7default7Default7default
FN:231,_RNCNvMs_NtCs88GkVJRILsZ_12nexus_config3rpcNtB6_9RpcConfig8validate0B8_
FN:314,_RNvNtNtCsgtRcUsPENq0_12nexus_config3rpc5testss_14default_values
FN:333,_RNvNtNtCsgtRcUsPENq0_12nexus_config3rpc5testss_23serialization_roundtrip
FN:368,_RNvNtNtCsgtRcUsPENq0_12nexus_config3rpc5testss_23validate_for_testing_ok
FN:391,_RNvNtNtCsgtRcUsPENq0_12nexus_config3rpc5testss_25validate_rejects_half_tls
FN:325,_RNvNtNtCsgtRcUsPENq0_12nexus_config3rpc5testss_29testing_config_uses_localhost
FN:382,_RNvNtNtCsgtRcUsPENq0_12nexus_config3rpc5testss_30validate_rejects_short_api_key
FN:373,_RNvNtNtCsgtRcUsPENq0_12nexus_config3rpc5testss_32validate_rejects_zero_rate_limit
FN:409,_RNvNtNtCsgtRcUsPENq0_12nexus_config3rpc5testss_34validate_accepts_api_keys_with_tls
FN:400,_RNvNtNtCsgtRcUsPENq0_12nexus_config3rpc5testss_37validate_rejects_api_keys_without_tls
FN:358,_RNvNtNtCsgtRcUsPENq0_12nexus_config3rpc5testss_40validate_non_loopback_with_native_tls_ok
FN:420,_RNvNtNtCsgtRcUsPENq0_12nexus_config3rpc5testss_40validate_rejects_excessive_faucet_amount
FN:349,_RNvNtNtCsgtRcUsPENq0_12nexus_config3rpc5testss_43validate_non_loopback_with_reverse_proxy_ok
FN:342,_RNvNtNtCsgtRcUsPENq0_12nexus_config3rpc5testss_49validate_default_rejects_non_loopback_without_tls
FN:231,_RNCNvMs_NtCsgtRcUsPENq0_12nexus_config3rpcNtB6_9RpcConfig8validate0B8_
FN:272,_RNvMs_NtCsgtRcUsPENq0_12nexus_config3rpcNtB4_9RpcConfig11for_testing
FN:182,_RNvMs_NtCsgtRcUsPENq0_12nexus_config3rpcNtB4_9RpcConfig8validate
FN:141,_RNvXNtCsgtRcUsPENq0_12nexus_config3rpcNtB2_9RpcConfigNtNtCslNfmTnNkGed_4core7default7Default7default
FNDA:28,_RNvMs_NtCs88GkVJRILsZ_12nexus_config3rpcNtB4_9RpcConfig11for_testing
FNDA:42,_RNvMs_NtCs88GkVJRILsZ_12nexus_config3rpcNtB4_9RpcConfig8validate
FNDA:56,_RNvXNtCs88GkVJRILsZ_12nexus_config3rpcNtB2_9RpcConfigNtNtCslNfmTnNkGed_4core7default7Default7default
FNDA:210,_RNCNvMs_NtCs88GkVJRILsZ_12nexus_config3rpcNtB6_9RpcConfig8validate0B8_
FNDA:17,_RNvNtNtCsgtRcUsPENq0_12nexus_config3rpc5testss_14default_values
FNDA:17,_RNvNtNtCsgtRcUsPENq0_12nexus_config3rpc5testss_23serialization_roundtrip
FNDA:17,_RNvNtNtCsgtRcUsPENq0_12nexus_config3rpc5testss_23validate_for_testing_ok
FNDA:17,_RNvNtNtCsgtRcUsPENq0_12nexus_config3rpc5testss_25validate_rejects_half_tls
FNDA:17,_RNvNtNtCsgtRcUsPENq0_12nexus_config3rpc5testss_29testing_config_uses_localhost
FNDA:17,_RNvNtNtCsgtRcUsPENq0_12nexus_config3rpc5testss_30validate_rejects_short_api_key
FNDA:17,_RNvNtNtCsgtRcUsPENq0_12nexus_config3rpc5testss_32validate_rejects_zero_rate_limit
FNDA:17,_RNvNtNtCsgtRcUsPENq0_12nexus_config3rpc5testss_34validate_accepts_api_keys_with_tls
FNDA:17,_RNvNtNtCsgtRcUsPENq0_12nexus_config3rpc5testss_37validate_rejects_api_keys_without_tls
FNDA:17,_RNvNtNtCsgtRcUsPENq0_12nexus_config3rpc5testss_40validate_non_loopback_with_native_tls_ok
FNDA:17,_RNvNtNtCsgtRcUsPENq0_12nexus_config3rpc5testss_40validate_rejects_excessive_faucet_amount
FNDA:17,_RNvNtNtCsgtRcUsPENq0_12nexus_config3rpc5testss_43validate_non_loopback_with_reverse_proxy_ok
FNDA:17,_RNvNtNtCsgtRcUsPENq0_12nexus_config3rpc5testss_49validate_default_rejects_non_loopback_without_tls
FNDA:238,_RNCNvMs_NtCsgtRcUsPENq0_12nexus_config3rpcNtB6_9RpcConfig8validate0B8_
FNDA:68,_RNvMs_NtCsgtRcUsPENq0_12nexus_config3rpcNtB4_9RpcConfig11for_testing
FNDA:170,_RNvMs_NtCsgtRcUsPENq0_12nexus_config3rpcNtB4_9RpcConfig8validate
FNDA:304,_RNvXNtCsgtRcUsPENq0_12nexus_config3rpcNtB2_9RpcConfigNtNtCslNfmTnNkGed_4core7default7Default7default
FNF:17
FNH:17
DA:141,360
DA:142,360
DA:143,360
DA:144,360
DA:145,360
DA:146,360
DA:147,360
DA:148,360
DA:149,360
DA:150,360
DA:151,360
DA:152,360
DA:153,360
DA:154,360
DA:155,360
DA:156,360
DA:157,360
DA:158,360
DA:159,360
DA:160,360
DA:161,360
DA:162,360
DA:163,360
DA:164,360
DA:165,360
DA:166,360
DA:167,360
DA:168,360
DA:169,360
DA:170,360
DA:171,360
DA:172,360
DA:173,360
DA:174,360
DA:175,360
DA:182,212
DA:183,212
DA:184,17
DA:185,195
DA:186,195
DA:187,0
DA:188,195
DA:189,195
DA:190,0
DA:191,195
DA:192,195
DA:193,0
DA:194,195
DA:195,195
DA:196,0
DA:197,195
DA:199,195
DA:200,51
DA:201,0
DA:202,51
DA:203,51
DA:204,17
DA:205,17
DA:206,17
DA:207,17
DA:208,34
DA:211,178
DA:213,17
DA:215,161
DA:216,161
DA:217,161
DA:218,161
DA:219,17
DA:220,144
DA:221,144
DA:222,144
DA:223,144
DA:224,144
DA:225,144
DA:226,144
DA:227,144
DA:228,144
DA:229,144
DA:230,144
DA:231,448
DA:232,144
DA:233,144
DA:234,17
DA:235,17
DA:236,17
DA:237,17
DA:238,17
DA:239,127
DA:240,127
DA:241,127
DA:242,31
DA:243,31
DA:244,31
DA:245,31
DA:246,96
DA:247,96
DA:248,96
DA:249,96
DA:250,0
DA:251,96
DA:252,96
DA:253,0
DA:254,96
DA:255,96
DA:256,0
DA:257,96
DA:258,96
DA:259,96
DA:260,0
DA:261,96
DA:262,96
DA:263,0
DA:264,96
DA:265,96
DA:266,96
DA:267,212
DA:272,96
DA:273,96
DA:274,96
DA:275,96
DA:276,96
DA:277,96
DA:278,96
DA:279,96
DA:280,96
DA:281,96
DA:282,96
DA:283,96
DA:284,96
DA:285,96
DA:286,96
DA:287,96
DA:288,96
DA:289,96
DA:290,96
DA:291,96
DA:292,96
DA:293,96
DA:294,96
DA:295,96
DA:296,96
DA:297,96
DA:298,96
DA:299,96
DA:300,96
DA:301,96
DA:302,96
DA:303,96
DA:304,96
DA:305,96
DA:306,96
DA:314,17
DA:315,17
DA:316,17
DA:317,17
DA:318,17
DA:319,17
DA:320,17
DA:321,17
DA:322,17
DA:325,17
DA:326,17
DA:327,17
DA:328,17
DA:329,17
DA:330,17
DA:333,17
DA:334,17
DA:335,17
DA:336,17
DA:337,17
DA:338,17
DA:339,17
DA:342,17
DA:343,17
DA:344,17
DA:345,17
DA:346,17
DA:349,17
DA:350,17
DA:351,17
DA:352,17
DA:353,17
DA:354,17
DA:355,17
DA:358,17
DA:359,17
DA:360,17
DA:361,17
DA:362,17
DA:363,17
DA:364,17
DA:365,17
DA:368,17
DA:369,17
DA:370,17
DA:373,17
DA:374,17
DA:375,17
DA:376,17
DA:377,17
DA:378,17
DA:379,17
DA:382,17
DA:383,17
DA:384,17
DA:385,17
DA:386,17
DA:387,17
DA:388,17
DA:391,17
DA:392,17
DA:393,17
DA:394,17
DA:395,17
DA:396,17
DA:397,17
DA:400,17
DA:401,17
DA:402,17
DA:403,17
DA:404,17
DA:405,17
DA:406,17
DA:409,17
DA:410,17
DA:411,17
DA:412,17
DA:413,17
DA:414,17
DA:415,17
DA:416,17
DA:417,17
DA:420,17
DA:421,17
DA:422,17
DA:423,17
DA:424,17
DA:425,17
DA:426,17
BRF:0
BRH:0
LF:241
LH:231
end_of_record
SF:/Users/VD/Vootaa_Projects/vootaa-labs@github/nexus-node/crates/nexus-config/src/telemetry.rs
FN:47,_RNvMs_NtCs88GkVJRILsZ_12nexus_config9telemetryNtB4_15TelemetryConfig11for_testing
FN:34,_RNvXNtCs88GkVJRILsZ_12nexus_config9telemetryNtB2_15TelemetryConfigNtNtCslNfmTnNkGed_4core7default7Default7default
FN:47,_RNvMs_NtCsgtRcUsPENq0_12nexus_config9telemetryNtB4_15TelemetryConfig11for_testing
FN:34,_RNvXNtCsgtRcUsPENq0_12nexus_config9telemetryNtB2_15TelemetryConfigNtNtCslNfmTnNkGed_4core7default7Default7default
FN:63,_RNvNtNtCsgtRcUsPENq0_12nexus_config9telemetry5testss_14default_values
FN:79,_RNvNtNtCsgtRcUsPENq0_12nexus_config9telemetry5testss_23serialization_roundtrip
FN:72,_RNvNtNtCsgtRcUsPENq0_12nexus_config9telemetry5testss_23testing_config_is_quiet
FNDA:14,_RNvMs_NtCs88GkVJRILsZ_12nexus_config9telemetryNtB4_15TelemetryConfig11for_testing
FNDA:0,_RNvXNtCs88GkVJRILsZ_12nexus_config9telemetryNtB2_15TelemetryConfigNtNtCslNfmTnNkGed_4core7default7Default7default
FNDA:34,_RNvMs_NtCsgtRcUsPENq0_12nexus_config9telemetryNtB4_15TelemetryConfig11for_testing
FNDA:168,_RNvXNtCsgtRcUsPENq0_12nexus_config9telemetryNtB2_15TelemetryConfigNtNtCslNfmTnNkGed_4core7default7Default7default
FNDA:17,_RNvNtNtCsgtRcUsPENq0_12nexus_config9telemetry5testss_14default_values
FNDA:17,_RNvNtNtCsgtRcUsPENq0_12nexus_config9telemetry5testss_23serialization_roundtrip
FNDA:17,_RNvNtNtCsgtRcUsPENq0_12nexus_config9telemetry5testss_23testing_config_is_quiet
FNF:5
FNH:5
DA:34,168
DA:35,168
DA:36,168
DA:37,168
DA:38,168
DA:39,168
DA:40,168
DA:41,168
DA:42,168
DA:47,48
DA:48,48
DA:49,48
DA:50,48
DA:51,48
DA:52,48
DA:53,48
DA:54,48
DA:55,48
DA:63,17
DA:64,17
DA:65,17
DA:66,17
DA:67,17
DA:68,17
DA:69,17
DA:72,17
DA:73,17
DA:74,17
DA:75,17
DA:76,17
DA:79,17
DA:80,17
DA:81,17
DA:82,17
DA:83,17
DA:84,17
DA:85,17
BRF:0
BRH:0
LF:37
LH:37
end_of_record
SF:/Users/VD/Vootaa_Projects/vootaa-labs@github/nexus-node/crates/nexus-consensus/src/certificate.rs
FN:88,_RNvMNtCs9QvvabE0u1j_15nexus_consensus11certificateNtB2_18CertificateBuilder13add_signature
FN:98,_RNvMNtCs9QvvabE0u1j_15nexus_consensus11certificateNtB2_18CertificateBuilder15signature_count
FN:65,_RNvMNtCs9QvvabE0u1j_15nexus_consensus11certificateNtB2_18CertificateBuilder3new
FN:103,_RNvMNtCs9QvvabE0u1j_15nexus_consensus11certificateNtB2_18CertificateBuilder7signers
FN:21,_RNvNtCs9QvvabE0u1j_15nexus_consensus11certificate19compute_cert_digest
FN:36,_RNvNtCs9QvvabE0u1j_15nexus_consensus11certificate20cert_signing_payload
FN:113,_RINvMNtCs9QvvabE0u1j_15nexus_consensus11certificateNtB3_18CertificateBuilder5buildpEB5_
FN:118,_RNCINvMNtCs9QvvabE0u1j_15nexus_consensus11certificateNtB5_18CertificateBuilder5buildpE0B7_
FN:120,_RNCINvMNtCs9QvvabE0u1j_15nexus_consensus11certificateNtB5_18CertificateBuilder5buildpEs0_0B7_
FN:119,_RNCINvMNtCs9QvvabE0u1j_15nexus_consensus11certificateNtB5_18CertificateBuilder5buildpEs_0B7_
FN:168,_RINvMs_NtCs9QvvabE0u1j_15nexus_consensus11certificateNtB5_19CertificateVerifier6verifyNtNtB7_9validator9CommitteeEB7_
FN:200,_RNCINvMs_NtCs9QvvabE0u1j_15nexus_consensus11certificateNtB7_19CertificateVerifier6verifyNtNtB9_9validator9CommitteeE0B9_
FN:202,_RNCINvMs_NtCs9QvvabE0u1j_15nexus_consensus11certificateNtB7_19CertificateVerifier6verifyNtNtB9_9validator9CommitteeEs0_0B9_
FN:225,_RNCINvMs_NtCs9QvvabE0u1j_15nexus_consensus11certificateNtB7_19CertificateVerifier6verifyNtNtB9_9validator9CommitteeEs1_0B9_
FN:201,_RNCINvMs_NtCs9QvvabE0u1j_15nexus_consensus11certificateNtB7_19CertificateVerifier6verifyNtNtB9_9validator9CommitteeEs_0B9_
FN:29,_RNCNvNtCs9QvvabE0u1j_15nexus_consensus11certificate19compute_cert_digest0B5_
FN:44,_RNCNvNtCs9QvvabE0u1j_15nexus_consensus11certificate20cert_signing_payload0B5_
FN:113,_RINvMNtCs9QvvabE0u1j_15nexus_consensus11certificateNtB3_18CertificateBuilder5buildNtNtB5_9validator9CommitteeECsbyH9FTJg6y7_17fv_property_tests
FN:118,_RNCINvMNtCs9QvvabE0u1j_15nexus_consensus11certificateNtB5_18CertificateBuilder5buildNtNtB7_9validator9CommitteeE0CsbyH9FTJg6y7_17fv_property_tests
FN:120,_RNCINvMNtCs9QvvabE0u1j_15nexus_consensus11certificateNtB5_18CertificateBuilder5buildNtNtB7_9validator9CommitteeEs0_0CsbyH9FTJg6y7_17fv_property_tests
FN:119,_RNCINvMNtCs9QvvabE0u1j_15nexus_consensus11certificateNtB5_18CertificateBuilder5buildNtNtB7_9validator9CommitteeEs_0CsbyH9FTJg6y7_17fv_property_tests
FN:113,_RINvMNtCs9QvvabE0u1j_15nexus_consensus11certificateNtB3_18CertificateBuilder5buildNtNtB5_9validator9CommitteeECsgEfK3BoHmLh_11fv_proptest
FN:118,_RNCINvMNtCs9QvvabE0u1j_15nexus_consensus11certificateNtB5_18CertificateBuilder5buildNtNtB7_9validator9CommitteeE0CsgEfK3BoHmLh_11fv_proptest
FN:120,_RNCINvMNtCs9QvvabE0u1j_15nexus_consensus11certificateNtB5_18CertificateBuilder5buildNtNtB7_9validator9CommitteeEs0_0CsgEfK3BoHmLh_11fv_proptest
FN:119,_RNCINvMNtCs9QvvabE0u1j_15nexus_consensus11certificateNtB5_18CertificateBuilder5buildNtNtB7_9validator9CommitteeEs_0CsgEfK3BoHmLh_11fv_proptest
FN:103,_RNvMNtCs6zOrHhYlc8W_15nexus_consensus11certificateNtB2_18CertificateBuilder7signers
FN:113,_RINvMNtCs6zOrHhYlc8W_15nexus_consensus11certificateNtB3_18CertificateBuilder5buildNtNtB5_9validator9CommitteeEB5_
FN:168,_RINvMs_NtCs6zOrHhYlc8W_15nexus_consensus11certificateNtB5_19CertificateVerifier6verifyNtNtB7_9validator9CommitteeEB7_
FN:118,_RNCINvMNtCs6zOrHhYlc8W_15nexus_consensus11certificateNtB5_18CertificateBuilder5buildNtNtB7_9validator9CommitteeE0B7_
FN:120,_RNCINvMNtCs6zOrHhYlc8W_15nexus_consensus11certificateNtB5_18CertificateBuilder5buildNtNtB7_9validator9CommitteeEs0_0B7_
FN:119,_RNCINvMNtCs6zOrHhYlc8W_15nexus_consensus11certificateNtB5_18CertificateBuilder5buildNtNtB7_9validator9CommitteeEs_0B7_
FN:200,_RNCINvMs_NtCs6zOrHhYlc8W_15nexus_consensus11certificateNtB7_19CertificateVerifier6verifyNtNtB9_9validator9CommitteeE0B9_
FN:202,_RNCINvMs_NtCs6zOrHhYlc8W_15nexus_consensus11certificateNtB7_19CertificateVerifier6verifyNtNtB9_9validator9CommitteeEs0_0B9_
FN:225,_RNCINvMs_NtCs6zOrHhYlc8W_15nexus_consensus11certificateNtB7_19CertificateVerifier6verifyNtNtB9_9validator9CommitteeEs1_0B9_
FN:201,_RNCINvMs_NtCs6zOrHhYlc8W_15nexus_consensus11certificateNtB7_19CertificateVerifier6verifyNtNtB9_9validator9CommitteeEs_0B9_
FN:29,_RNCNvNtCs6zOrHhYlc8W_15nexus_consensus11certificate19compute_cert_digest0B5_
FN:44,_RNCNvNtCs6zOrHhYlc8W_15nexus_consensus11certificate20cert_signing_payload0B5_
FN:272,_RNvNtNtCs6zOrHhYlc8W_15nexus_consensus11certificate5tests16sign_cert_header
FN:246,_RNvNtNtCs6zOrHhYlc8W_15nexus_consensus11certificate5tests19make_test_committee
FN:358,_RNvNtNtCs6zOrHhYlc8W_15nexus_consensus11certificate5testss_24verify_valid_certificate
FN:328,_RNvNtNtCs6zOrHhYlc8W_15nexus_consensus11certificate5testss_26builder_fails_below_quorum
FN:287,_RNvNtNtCs6zOrHhYlc8W_15nexus_consensus11certificate5testss_27builder_collects_signatures
FN:433,_RNvNtNtCs6zOrHhYlc8W_15nexus_consensus11certificate5testss_28cert_digest_is_deterministic
FN:378,_RNvNtNtCs6zOrHhYlc8W_15nexus_consensus11certificate5testss_30verify_rejects_tampered_digest
FN:401,_RNvNtNtCs6zOrHhYlc8W_15nexus_consensus11certificate5testss_30verify_rejects_wrong_signature
FN:311,_RNvNtNtCs6zOrHhYlc8W_15nexus_consensus11certificate5testss_32builder_rejects_duplicate_signer
FN:454,_RNvNtNtCs6zOrHhYlc8W_15nexus_consensus11certificate5testss_41cert_digest_changes_with_different_inputs
FN:477,_RNvNtNtCs6zOrHhYlc8W_15nexus_consensus11certificate5testss_46certificate_verifier_should_reject_wrong_epoch
FN:88,_RNvMNtCs6zOrHhYlc8W_15nexus_consensus11certificateNtB2_18CertificateBuilder13add_signature
FN:98,_RNvMNtCs6zOrHhYlc8W_15nexus_consensus11certificateNtB2_18CertificateBuilder15signature_count
FN:65,_RNvMNtCs6zOrHhYlc8W_15nexus_consensus11certificateNtB2_18CertificateBuilder3new
FN:21,_RNvNtCs6zOrHhYlc8W_15nexus_consensus11certificate19compute_cert_digest
FN:36,_RNvNtCs6zOrHhYlc8W_15nexus_consensus11certificate20cert_signing_payload
FN:113,_RINvMNtCs9QvvabE0u1j_15nexus_consensus11certificateNtB3_18CertificateBuilder5buildNtNtB5_9validator9CommitteeECs6UsFVvCaSVw_10nexus_node
FN:118,_RNCINvMNtCs9QvvabE0u1j_15nexus_consensus11certificateNtB5_18CertificateBuilder5buildNtNtB7_9validator9CommitteeE0Cs6UsFVvCaSVw_10nexus_node
FN:120,_RNCINvMNtCs9QvvabE0u1j_15nexus_consensus11certificateNtB5_18CertificateBuilder5buildNtNtB7_9validator9CommitteeEs0_0Cs6UsFVvCaSVw_10nexus_node
FN:119,_RNCINvMNtCs9QvvabE0u1j_15nexus_consensus11certificateNtB5_18CertificateBuilder5buildNtNtB7_9validator9CommitteeEs_0Cs6UsFVvCaSVw_10nexus_node
FN:113,_RINvMNtCs9QvvabE0u1j_15nexus_consensus11certificateNtB3_18CertificateBuilder5buildNtNtB5_9validator9CommitteeECs2jSKwtTFQO2_16nexus_test_utils
FN:118,_RNCINvMNtCs9QvvabE0u1j_15nexus_consensus11certificateNtB5_18CertificateBuilder5buildNtNtB7_9validator9CommitteeE0Cs2jSKwtTFQO2_16nexus_test_utils
FN:120,_RNCINvMNtCs9QvvabE0u1j_15nexus_consensus11certificateNtB5_18CertificateBuilder5buildNtNtB7_9validator9CommitteeEs0_0Cs2jSKwtTFQO2_16nexus_test_utils
FN:119,_RNCINvMNtCs9QvvabE0u1j_15nexus_consensus11certificateNtB5_18CertificateBuilder5buildNtNtB7_9validator9CommitteeEs_0Cs2jSKwtTFQO2_16nexus_test_utils
FNDA:6523,_RNvMNtCs9QvvabE0u1j_15nexus_consensus11certificateNtB2_18CertificateBuilder13add_signature
FNDA:56,_RNvMNtCs9QvvabE0u1j_15nexus_consensus11certificateNtB2_18CertificateBuilder15signature_count
FNDA:15973,_RNvMNtCs9QvvabE0u1j_15nexus_consensus11certificateNtB2_18CertificateBuilder3new
FNDA:42,_RNvMNtCs9QvvabE0u1j_15nexus_consensus11certificateNtB2_18CertificateBuilder7signers
FNDA:14362,_RNvNtCs9QvvabE0u1j_15nexus_consensus11certificate19compute_cert_digest
FNDA:5179,_RNvNtCs9QvvabE0u1j_15nexus_consensus11certificate20cert_signing_payload
FNDA:0,_RINvMNtCs9QvvabE0u1j_15nexus_consensus11certificateNtB3_18CertificateBuilder5buildpEB5_
FNDA:0,_RNCINvMNtCs9QvvabE0u1j_15nexus_consensus11certificateNtB5_18CertificateBuilder5buildpE0B7_
FNDA:0,_RNCINvMNtCs9QvvabE0u1j_15nexus_consensus11certificateNtB5_18CertificateBuilder5buildpEs0_0B7_
FNDA:0,_RNCINvMNtCs9QvvabE0u1j_15nexus_consensus11certificateNtB5_18CertificateBuilder5buildpEs_0B7_
FNDA:1960,_RINvMs_NtCs9QvvabE0u1j_15nexus_consensus11certificateNtB5_19CertificateVerifier6verifyNtNtB7_9validator9CommitteeEB7_
FNDA:0,_RNCINvMs_NtCs9QvvabE0u1j_15nexus_consensus11certificateNtB7_19CertificateVerifier6verifyNtNtB9_9validator9CommitteeE0B9_
FNDA:0,_RNCINvMs_NtCs9QvvabE0u1j_15nexus_consensus11certificateNtB7_19CertificateVerifier6verifyNtNtB9_9validator9CommitteeEs0_0B9_
FNDA:0,_RNCINvMs_NtCs9QvvabE0u1j_15nexus_consensus11certificateNtB7_19CertificateVerifier6verifyNtNtB9_9validator9CommitteeEs1_0B9_
FNDA:0,_RNCINvMs_NtCs9QvvabE0u1j_15nexus_consensus11certificateNtB7_19CertificateVerifier6verifyNtNtB9_9validator9CommitteeEs_0B9_
FNDA:0,_RNCNvNtCs9QvvabE0u1j_15nexus_consensus11certificate19compute_cert_digest0B5_
FNDA:0,_RNCNvNtCs9QvvabE0u1j_15nexus_consensus11certificate20cert_signing_payload0B5_
FNDA:392,_RINvMNtCs9QvvabE0u1j_15nexus_consensus11certificateNtB3_18CertificateBuilder5buildNtNtB5_9validator9CommitteeECsbyH9FTJg6y7_17fv_property_tests
FNDA:0,_RNCINvMNtCs9QvvabE0u1j_15nexus_consensus11certificateNtB5_18CertificateBuilder5buildNtNtB7_9validator9CommitteeE0CsbyH9FTJg6y7_17fv_property_tests
FNDA:0,_RNCINvMNtCs9QvvabE0u1j_15nexus_consensus11certificateNtB5_18CertificateBuilder5buildNtNtB7_9validator9CommitteeEs0_0CsbyH9FTJg6y7_17fv_property_tests
FNDA:0,_RNCINvMNtCs9QvvabE0u1j_15nexus_consensus11certificateNtB5_18CertificateBuilder5buildNtNtB7_9validator9CommitteeEs_0CsbyH9FTJg6y7_17fv_property_tests
FNDA:784,_RINvMNtCs9QvvabE0u1j_15nexus_consensus11certificateNtB3_18CertificateBuilder5buildNtNtB5_9validator9CommitteeECsgEfK3BoHmLh_11fv_proptest
FNDA:0,_RNCINvMNtCs9QvvabE0u1j_15nexus_consensus11certificateNtB5_18CertificateBuilder5buildNtNtB7_9validator9CommitteeE0CsgEfK3BoHmLh_11fv_proptest
FNDA:0,_RNCINvMNtCs9QvvabE0u1j_15nexus_consensus11certificateNtB5_18CertificateBuilder5buildNtNtB7_9validator9CommitteeEs0_0CsgEfK3BoHmLh_11fv_proptest
FNDA:0,_RNCINvMNtCs9QvvabE0u1j_15nexus_consensus11certificateNtB5_18CertificateBuilder5buildNtNtB7_9validator9CommitteeEs_0CsgEfK3BoHmLh_11fv_proptest
FNDA:0,_RNvMNtCs6zOrHhYlc8W_15nexus_consensus11certificateNtB2_18CertificateBuilder7signers
FNDA:216,_RINvMNtCs6zOrHhYlc8W_15nexus_consensus11certificateNtB3_18CertificateBuilder5buildNtNtB5_9validator9CommitteeEB5_
FNDA:216,_RINvMs_NtCs6zOrHhYlc8W_15nexus_consensus11certificateNtB5_19CertificateVerifier6verifyNtNtB7_9validator9CommitteeEB7_
FNDA:34,_RNCINvMNtCs6zOrHhYlc8W_15nexus_consensus11certificateNtB5_18CertificateBuilder5buildNtNtB7_9validator9CommitteeE0B7_
FNDA:34,_RNCINvMNtCs6zOrHhYlc8W_15nexus_consensus11certificateNtB5_18CertificateBuilder5buildNtNtB7_9validator9CommitteeEs0_0B7_
FNDA:34,_RNCINvMNtCs6zOrHhYlc8W_15nexus_consensus11certificateNtB5_18CertificateBuilder5buildNtNtB7_9validator9CommitteeEs_0B7_
FNDA:0,_RNCINvMs_NtCs6zOrHhYlc8W_15nexus_consensus11certificateNtB7_19CertificateVerifier6verifyNtNtB9_9validator9CommitteeE0B9_
FNDA:0,_RNCINvMs_NtCs6zOrHhYlc8W_15nexus_consensus11certificateNtB7_19CertificateVerifier6verifyNtNtB9_9validator9CommitteeEs0_0B9_
FNDA:17,_RNCINvMs_NtCs6zOrHhYlc8W_15nexus_consensus11certificateNtB7_19CertificateVerifier6verifyNtNtB9_9validator9CommitteeEs1_0B9_
FNDA:0,_RNCINvMs_NtCs6zOrHhYlc8W_15nexus_consensus11certificateNtB7_19CertificateVerifier6verifyNtNtB9_9validator9CommitteeEs_0B9_
FNDA:0,_RNCNvNtCs6zOrHhYlc8W_15nexus_consensus11certificate19compute_cert_digest0B5_
FNDA:0,_RNCNvNtCs6zOrHhYlc8W_15nexus_consensus11certificate20cert_signing_payload0B5_
FNDA:306,_RNvNtNtCs6zOrHhYlc8W_15nexus_consensus11certificate5tests16sign_cert_header
FNDA:119,_RNvNtNtCs6zOrHhYlc8W_15nexus_consensus11certificate5tests19make_test_committee
FNDA:17,_RNvNtNtCs6zOrHhYlc8W_15nexus_consensus11certificate5testss_24verify_valid_certificate
FNDA:17,_RNvNtNtCs6zOrHhYlc8W_15nexus_consensus11certificate5testss_26builder_fails_below_quorum
FNDA:17,_RNvNtNtCs6zOrHhYlc8W_15nexus_consensus11certificate5testss_27builder_collects_signatures
FNDA:17,_RNvNtNtCs6zOrHhYlc8W_15nexus_consensus11certificate5testss_28cert_digest_is_deterministic
FNDA:17,_RNvNtNtCs6zOrHhYlc8W_15nexus_consensus11certificate5testss_30verify_rejects_tampered_digest
FNDA:17,_RNvNtNtCs6zOrHhYlc8W_15nexus_consensus11certificate5testss_30verify_rejects_wrong_signature
FNDA:17,_RNvNtNtCs6zOrHhYlc8W_15nexus_consensus11certificate5testss_32builder_rejects_duplicate_signer
FNDA:17,_RNvNtNtCs6zOrHhYlc8W_15nexus_consensus11certificate5testss_41cert_digest_changes_with_different_inputs
FNDA:17,_RNvNtNtCs6zOrHhYlc8W_15nexus_consensus11certificate5testss_46certificate_verifier_should_reject_wrong_epoch
FNDA:779,_RNvMNtCs6zOrHhYlc8W_15nexus_consensus11certificateNtB2_18CertificateBuilder13add_signature
FNDA:34,_RNvMNtCs6zOrHhYlc8W_15nexus_consensus11certificateNtB2_18CertificateBuilder15signature_count
FNDA:233,_RNvMNtCs6zOrHhYlc8W_15nexus_consensus11certificateNtB2_18CertificateBuilder3new
FNDA:1152,_RNvNtCs6zOrHhYlc8W_15nexus_consensus11certificate19compute_cert_digest
FNDA:585,_RNvNtCs6zOrHhYlc8W_15nexus_consensus11certificate20cert_signing_payload
FNDA:56,_RINvMNtCs9QvvabE0u1j_15nexus_consensus11certificateNtB3_18CertificateBuilder5buildNtNtB5_9validator9CommitteeECs6UsFVvCaSVw_10nexus_node
FNDA:0,_RNCINvMNtCs9QvvabE0u1j_15nexus_consensus11certificateNtB5_18CertificateBuilder5buildNtNtB7_9validator9CommitteeE0Cs6UsFVvCaSVw_10nexus_node
FNDA:0,_RNCINvMNtCs9QvvabE0u1j_15nexus_consensus11certificateNtB5_18CertificateBuilder5buildNtNtB7_9validator9CommitteeEs0_0Cs6UsFVvCaSVw_10nexus_node
FNDA:0,_RNCINvMNtCs9QvvabE0u1j_15nexus_consensus11certificateNtB5_18CertificateBuilder5buildNtNtB7_9validator9CommitteeEs_0Cs6UsFVvCaSVw_10nexus_node
FNDA:321,_RINvMNtCs9QvvabE0u1j_15nexus_consensus11certificateNtB3_18CertificateBuilder5buildNtNtB5_9validator9CommitteeECs2jSKwtTFQO2_16nexus_test_utils
FNDA:56,_RNCINvMNtCs9QvvabE0u1j_15nexus_consensus11certificateNtB5_18CertificateBuilder5buildNtNtB7_9validator9CommitteeE0Cs2jSKwtTFQO2_16nexus_test_utils
FNDA:56,_RNCINvMNtCs9QvvabE0u1j_15nexus_consensus11certificateNtB5_18CertificateBuilder5buildNtNtB7_9validator9CommitteeEs0_0Cs2jSKwtTFQO2_16nexus_test_utils
FNDA:56,_RNCINvMNtCs9QvvabE0u1j_15nexus_consensus11certificateNtB5_18CertificateBuilder5buildNtNtB7_9validator9CommitteeEs_0Cs2jSKwtTFQO2_16nexus_test_utils
FNF:28
FNH:23
DA:21,15514
DA:22,15514
DA:23,15514
DA:24,15514
DA:25,15514
DA:26,15514
DA:27,15514
DA:28,15514
DA:29,15514
DA:30,15514
DA:31,15514
DA:36,5764
DA:37,5764
DA:38,5764
DA:39,5764
DA:40,5764
DA:41,5764
DA:42,5764
DA:43,5764
DA:44,5764
DA:45,5764
DA:65,16206
DA:66,16206
DA:67,16206
DA:68,16206
DA:69,16206
DA:70,16206
DA:71,16206
DA:72,16206
DA:73,16206
DA:74,16206
DA:75,16206
DA:76,16206
DA:77,16206
DA:78,16206
DA:79,16206
DA:80,16206
DA:81,16206
DA:82,16206
DA:88,7302
DA:89,7302
DA:90,31
DA:91,7271
DA:92,7271
DA:93,7271
DA:94,7271
DA:95,7302
DA:98,90
DA:99,90
DA:100,90
DA:103,42
DA:104,42
DA:105,42
DA:113,1769
DA:114,1769
DA:115,31
DA:116,31
DA:117,31
DA:118,90
DA:119,90
DA:120,90
DA:121,31
DA:122,31
DA:123,31
DA:124,31
DA:125,31
DA:126,1738
DA:128,1738
DA:129,1738
DA:130,1738
DA:131,1738
DA:132,1738
DA:133,1738
DA:134,1738
DA:136,1738
DA:137,1738
DA:138,1738
DA:139,1738
DA:140,1738
DA:141,1738
DA:142,1738
DA:143,1738
DA:144,1738
DA:145,1738
DA:146,1769
DA:168,2176
DA:169,2176
DA:170,2176
DA:171,2176
DA:172,2176
DA:173,2176
DA:174,2176
DA:175,45
DA:176,45
DA:177,45
DA:178,45
DA:179,2131
DA:182,2131
DA:183,2131
DA:184,2131
DA:185,2131
DA:186,2131
DA:187,2131
DA:188,2131
DA:189,2131
DA:190,17
DA:191,17
DA:192,17
DA:193,2114
DA:194,2114
DA:195,2114
DA:196,2114
DA:197,31
DA:198,31
DA:199,31
DA:200,31
DA:201,31
DA:202,31
DA:203,31
DA:204,31
DA:205,31
DA:206,31
DA:207,31
DA:208,2083
DA:211,2083
DA:212,2083
DA:213,2083
DA:214,2083
DA:215,2083
DA:216,2083
DA:217,2083
DA:219,11439
DA:220,9373
DA:221,9373
DA:222,9373
DA:224,9373
DA:225,9373
DA:226,17
DA:227,17
DA:228,9373
DA:229,9373
DA:232,2066
DA:233,2176
DA:246,119
DA:247,119
DA:248,119
DA:249,119
DA:250,119
DA:251,119
DA:252,119
DA:253,119
DA:254,476
DA:255,476
DA:256,476
DA:257,476
DA:258,476
DA:259,476
DA:260,476
DA:261,476
DA:262,476
DA:263,476
DA:264,476
DA:265,476
DA:266,119
DA:267,119
DA:268,119
DA:269,119
DA:270,119
DA:272,306
DA:273,306
DA:274,306
DA:275,306
DA:276,306
DA:277,306
DA:278,306
DA:279,306
DA:280,306
DA:281,306
DA:282,306
DA:287,17
DA:288,17
DA:289,17
DA:290,17
DA:291,17
DA:292,17
DA:293,17
DA:294,17
DA:295,17
DA:296,17
DA:298,51
DA:299,51
DA:300,51
DA:303,17
DA:304,17
DA:305,17
DA:306,17
DA:307,17
DA:308,17
DA:311,17
DA:312,17
DA:313,17
DA:314,17
DA:315,17
DA:316,17
DA:317,17
DA:318,17
DA:319,17
DA:320,17
DA:321,17
DA:322,17
DA:323,17
DA:324,17
DA:325,17
DA:328,17
DA:329,17
DA:330,17
DA:331,17
DA:332,17
DA:333,17
DA:334,17
DA:335,17
DA:336,17
DA:337,17
DA:338,17
DA:340,34
DA:341,34
DA:342,34
DA:343,34
DA:345,17
DA:346,17
DA:347,17
DA:353,17
DA:358,17
DA:359,17
DA:360,17
DA:361,17
DA:362,17
DA:363,17
DA:364,17
DA:365,17
DA:366,17
DA:367,17
DA:368,51
DA:369,51
DA:370,51
DA:371,51
DA:372,17
DA:373,17
DA:374,17
DA:375,17
DA:378,17
DA:379,17
DA:380,17
DA:381,17
DA:382,17
DA:383,17
DA:384,17
DA:385,17
DA:386,17
DA:387,17
DA:388,51
DA:389,51
DA:390,51
DA:391,51
DA:392,17
DA:393,17
DA:394,17
DA:395,17
DA:396,17
DA:397,17
DA:398,17
DA:401,17
DA:402,17
DA:403,17
DA:404,17
DA:405,17
DA:406,17
DA:407,17
DA:408,17
DA:409,17
DA:410,17
DA:413,34
DA:414,34
DA:415,34
DA:416,34
DA:419,17
DA:420,17
DA:421,17
DA:422,17
DA:423,17
DA:424,17
DA:425,17
DA:428,17
DA:433,17
DA:434,17
DA:435,17
DA:436,17
DA:437,17
DA:438,17
DA:439,17
DA:440,17
DA:441,17
DA:442,17
DA:443,17
DA:444,17
DA:445,17
DA:446,17
DA:447,17
DA:448,17
DA:449,17
DA:450,17
DA:451,17
DA:454,17
DA:455,17
DA:456,17
DA:457,17
DA:458,17
DA:459,17
DA:460,17
DA:461,17
DA:462,17
DA:463,17
DA:464,17
DA:465,17
DA:466,17
DA:467,17
DA:468,17
DA:469,17
DA:470,17
DA:471,17
DA:472,17
DA:477,17
DA:478,17
DA:479,17
DA:480,17
DA:481,17
DA:482,17
DA:483,17
DA:484,17
DA:485,17
DA:486,17
DA:487,51
DA:488,51
DA:489,51
DA:490,51
DA:491,17
DA:492,17
DA:493,17
DA:494,17
DA:495,17
DA:496,17
DA:497,17
DA:498,17
DA:499,17
DA:500,17
DA:501,0
DA:503,17
BRF:0
BRH:0
LF:367
LH:361
end_of_record
SF:/Users/VD/Vootaa_Projects/vootaa-labs@github/nexus-node/crates/nexus-consensus/src/dag.rs
FN:209,_RNCNCNvXs0_NtCs9QvvabE0u1j_15nexus_consensus3dagNtB9_11InMemoryDagNtNtBb_6traits14CertificateDag14causal_history00Bb_
FN:175,_RNCNCNvXs0_NtCs9QvvabE0u1j_15nexus_consensus3dagNtB9_11InMemoryDagNtNtBb_6traits14CertificateDag18round_certificates00Bb_
FN:67,_RNCNvMNtCs9QvvabE0u1j_15nexus_consensus3dagNtB4_11InMemoryDag17prune_below_round0B6_
FN:209,_RNCNvXs0_NtCs9QvvabE0u1j_15nexus_consensus3dagNtB7_11InMemoryDagNtNtB9_6traits14CertificateDag14causal_history0B9_
FN:210,_RNCNvXs0_NtCs9QvvabE0u1j_15nexus_consensus3dagNtB7_11InMemoryDagNtNtB9_6traits14CertificateDag14causal_historys_0B9_
FN:169,_RNCNvXs0_NtCs9QvvabE0u1j_15nexus_consensus3dagNtB7_11InMemoryDagNtNtB9_6traits14CertificateDag15get_certificate0B9_
FN:175,_RNCNvXs0_NtCs9QvvabE0u1j_15nexus_consensus3dagNtB7_11InMemoryDagNtNtB9_6traits14CertificateDag18round_certificates0B9_
FN:93,_RNvMNtCs9QvvabE0u1j_15nexus_consensus3dagNtB2_11InMemoryDag11all_digests
FN:88,_RNvMNtCs9QvvabE0u1j_15nexus_consensus3dagNtB2_11InMemoryDag13get_by_digest
FN:63,_RNvMNtCs9QvvabE0u1j_15nexus_consensus3dagNtB2_11InMemoryDag17prune_below_round
FN:49,_RNvMNtCs9QvvabE0u1j_15nexus_consensus3dagNtB2_11InMemoryDag3len
FN:39,_RNvMNtCs9QvvabE0u1j_15nexus_consensus3dagNtB2_11InMemoryDag3new
FN:83,_RNvMNtCs9QvvabE0u1j_15nexus_consensus3dagNtB2_11InMemoryDag8contains
FN:54,_RNvMNtCs9QvvabE0u1j_15nexus_consensus3dagNtB2_11InMemoryDag8is_empty
FN:179,_RNvXs0_NtCs9QvvabE0u1j_15nexus_consensus3dagNtB5_11InMemoryDagNtNtB7_6traits14CertificateDag13current_round
FN:183,_RNvXs0_NtCs9QvvabE0u1j_15nexus_consensus3dagNtB5_11InMemoryDagNtNtB7_6traits14CertificateDag14causal_history
FN:162,_RNvXs0_NtCs9QvvabE0u1j_15nexus_consensus3dagNtB5_11InMemoryDagNtNtB7_6traits14CertificateDag15get_certificate
FN:105,_RNvXs0_NtCs9QvvabE0u1j_15nexus_consensus3dagNtB5_11InMemoryDagNtNtB7_6traits14CertificateDag18insert_certificate
FN:172,_RNvXs0_NtCs9QvvabE0u1j_15nexus_consensus3dagNtB5_11InMemoryDagNtNtB7_6traits14CertificateDag18round_certificates
FN:99,_RNvXs_NtCs9QvvabE0u1j_15nexus_consensus3dagNtB4_11InMemoryDagNtNtCslNfmTnNkGed_4core7default7Default7default
FN:67,_RNCNvMNtCs6zOrHhYlc8W_15nexus_consensus3dagNtB4_11InMemoryDag17prune_below_round0B6_
FN:63,_RNvMNtCs6zOrHhYlc8W_15nexus_consensus3dagNtB2_11InMemoryDag17prune_below_round
FN:99,_RNvXs_NtCs6zOrHhYlc8W_15nexus_consensus3dagNtB4_11InMemoryDagNtNtCslNfmTnNkGed_4core7default7Default7default
FN:209,_RNCNCNvXs0_NtCs6zOrHhYlc8W_15nexus_consensus3dagNtB9_11InMemoryDagNtNtBb_6traits14CertificateDag14causal_history00Bb_
FN:175,_RNCNCNvXs0_NtCs6zOrHhYlc8W_15nexus_consensus3dagNtB9_11InMemoryDagNtNtBb_6traits14CertificateDag18round_certificates00Bb_
FN:209,_RNCNvXs0_NtCs6zOrHhYlc8W_15nexus_consensus3dagNtB7_11InMemoryDagNtNtB9_6traits14CertificateDag14causal_history0B9_
FN:210,_RNCNvXs0_NtCs6zOrHhYlc8W_15nexus_consensus3dagNtB7_11InMemoryDagNtNtB9_6traits14CertificateDag14causal_historys_0B9_
FN:169,_RNCNvXs0_NtCs6zOrHhYlc8W_15nexus_consensus3dagNtB7_11InMemoryDagNtNtB9_6traits14CertificateDag15get_certificate0B9_
FN:175,_RNCNvXs0_NtCs6zOrHhYlc8W_15nexus_consensus3dagNtB7_11InMemoryDagNtNtB9_6traits14CertificateDag18round_certificates0B9_
FN:93,_RNvMNtCs6zOrHhYlc8W_15nexus_consensus3dagNtB2_11InMemoryDag11all_digests
FN:88,_RNvMNtCs6zOrHhYlc8W_15nexus_consensus3dagNtB2_11InMemoryDag13get_by_digest
FN:49,_RNvMNtCs6zOrHhYlc8W_15nexus_consensus3dagNtB2_11InMemoryDag3len
FN:39,_RNvMNtCs6zOrHhYlc8W_15nexus_consensus3dagNtB2_11InMemoryDag3new
FN:83,_RNvMNtCs6zOrHhYlc8W_15nexus_consensus3dagNtB2_11InMemoryDag8contains
FN:54,_RNvMNtCs6zOrHhYlc8W_15nexus_consensus3dagNtB2_11InMemoryDag8is_empty
FN:179,_RNvXs0_NtCs6zOrHhYlc8W_15nexus_consensus3dagNtB5_11InMemoryDagNtNtB7_6traits14CertificateDag13current_round
FN:183,_RNvXs0_NtCs6zOrHhYlc8W_15nexus_consensus3dagNtB5_11InMemoryDagNtNtB7_6traits14CertificateDag14causal_history
FN:162,_RNvXs0_NtCs6zOrHhYlc8W_15nexus_consensus3dagNtB5_11InMemoryDagNtNtB7_6traits14CertificateDag15get_certificate
FN:105,_RNvXs0_NtCs6zOrHhYlc8W_15nexus_consensus3dagNtB5_11InMemoryDagNtNtB7_6traits14CertificateDag18insert_certificate
FN:172,_RNvXs0_NtCs6zOrHhYlc8W_15nexus_consensus3dagNtB5_11InMemoryDagNtNtB7_6traits14CertificateDag18round_certificates
FN:222,_RNvNtNtCs6zOrHhYlc8W_15nexus_consensus3dag5tests9make_cert
FN:436,_RNvNtNtCs6zOrHhYlc8W_15nexus_consensus3dag5testss_19get_by_digest_works
FN:320,_RNvNtNtCs6zOrHhYlc8W_15nexus_consensus3dag5testss_23missing_parent_rejected
FN:395,_RNvNtNtCs6zOrHhYlc8W_15nexus_consensus3dag5testss_23three_round_diamond_dag
FN:244,_RNvNtNtCs6zOrHhYlc8W_15nexus_consensus3dag5testss_27insert_and_get_genesis_cert
FN:330,_RNvNtNtCs6zOrHhYlc8W_15nexus_consensus3dag5testss_28causality_violation_rejected
FN:290,_RNvNtNtCs6zOrHhYlc8W_15nexus_consensus3dag5testss_28current_round_tracks_highest
FN:307,_RNvNtNtCs6zOrHhYlc8W_15nexus_consensus3dag5testss_30duplicate_certificate_rejected
FN:257,_RNvNtNtCs6zOrHhYlc8W_15nexus_consensus3dag5testss_35get_certificate_by_origin_and_round
FN:375,_RNvNtNtCs6zOrHhYlc8W_15nexus_consensus3dag5testss_37causal_history_single_cert_no_parents
FN:273,_RNvNtNtCs6zOrHhYlc8W_15nexus_consensus3dag5testss_40round_certificates_returns_all_for_round
FN:386,_RNvNtNtCs6zOrHhYlc8W_15nexus_consensus3dag5testss_41causal_history_unknown_cert_returns_empty
FN:349,_RNvNtNtCs6zOrHhYlc8W_15nexus_consensus3dag5testss_53causal_history_returns_ancestors_in_topological_order
FN:449,_RNvNtNtCs6zOrHhYlc8W_15nexus_consensus3dag5testss_60dag_should_reject_equivocating_certificate_same_origin_round
FNDA:2380,_RNCNCNvXs0_NtCs9QvvabE0u1j_15nexus_consensus3dagNtB9_11InMemoryDagNtNtBb_6traits14CertificateDag14causal_history00Bb_
FNDA:308,_RNCNCNvXs0_NtCs9QvvabE0u1j_15nexus_consensus3dagNtB9_11InMemoryDagNtNtBb_6traits14CertificateDag18round_certificates00Bb_
FNDA:0,_RNCNvMNtCs9QvvabE0u1j_15nexus_consensus3dagNtB4_11InMemoryDag17prune_below_round0B6_
FNDA:12006,_RNCNvXs0_NtCs9QvvabE0u1j_15nexus_consensus3dagNtB7_11InMemoryDagNtNtB9_6traits14CertificateDag14causal_history0B9_
FNDA:3231,_RNCNvXs0_NtCs9QvvabE0u1j_15nexus_consensus3dagNtB7_11InMemoryDagNtNtB9_6traits14CertificateDag14causal_historys_0B9_
FNDA:447,_RNCNvXs0_NtCs9QvvabE0u1j_15nexus_consensus3dagNtB7_11InMemoryDagNtNtB9_6traits14CertificateDag15get_certificate0B9_
FNDA:308,_RNCNvXs0_NtCs9QvvabE0u1j_15nexus_consensus3dagNtB7_11InMemoryDagNtNtB9_6traits14CertificateDag18round_certificates0B9_
FNDA:0,_RNvMNtCs9QvvabE0u1j_15nexus_consensus3dagNtB2_11InMemoryDag11all_digests
FNDA:1195,_RNvMNtCs9QvvabE0u1j_15nexus_consensus3dagNtB2_11InMemoryDag13get_by_digest
FNDA:0,_RNvMNtCs9QvvabE0u1j_15nexus_consensus3dagNtB2_11InMemoryDag17prune_below_round
FNDA:471,_RNvMNtCs9QvvabE0u1j_15nexus_consensus3dagNtB2_11InMemoryDag3len
FNDA:4606,_RNvMNtCs9QvvabE0u1j_15nexus_consensus3dagNtB2_11InMemoryDag3new
FNDA:0,_RNvMNtCs9QvvabE0u1j_15nexus_consensus3dagNtB2_11InMemoryDag8contains
FNDA:0,_RNvMNtCs9QvvabE0u1j_15nexus_consensus3dagNtB2_11InMemoryDag8is_empty
FNDA:3443,_RNvXs0_NtCs9QvvabE0u1j_15nexus_consensus3dagNtB5_11InMemoryDagNtNtB7_6traits14CertificateDag13current_round
FNDA:447,_RNvXs0_NtCs9QvvabE0u1j_15nexus_consensus3dagNtB5_11InMemoryDagNtNtB7_6traits14CertificateDag14causal_history
FNDA:447,_RNvXs0_NtCs9QvvabE0u1j_15nexus_consensus3dagNtB5_11InMemoryDagNtNtB7_6traits14CertificateDag15get_certificate
FNDA:3443,_RNvXs0_NtCs9QvvabE0u1j_15nexus_consensus3dagNtB5_11InMemoryDagNtNtB7_6traits14CertificateDag18insert_certificate
FNDA:394,_RNvXs0_NtCs9QvvabE0u1j_15nexus_consensus3dagNtB5_11InMemoryDagNtNtB7_6traits14CertificateDag18round_certificates
FNDA:0,_RNvXs_NtCs9QvvabE0u1j_15nexus_consensus3dagNtB4_11InMemoryDagNtNtCslNfmTnNkGed_4core7default7Default7default
FNDA:0,_RNCNvMNtCs6zOrHhYlc8W_15nexus_consensus3dagNtB4_11InMemoryDag17prune_below_round0B6_
FNDA:0,_RNvMNtCs6zOrHhYlc8W_15nexus_consensus3dagNtB2_11InMemoryDag17prune_below_round
FNDA:0,_RNvXs_NtCs6zOrHhYlc8W_15nexus_consensus3dagNtB4_11InMemoryDagNtNtCslNfmTnNkGed_4core7default7Default7default
FNDA:178,_RNCNCNvXs0_NtCs6zOrHhYlc8W_15nexus_consensus3dagNtB9_11InMemoryDagNtNtBb_6traits14CertificateDag14causal_history00Bb_
FNDA:119,_RNCNCNvXs0_NtCs6zOrHhYlc8W_15nexus_consensus3dagNtB9_11InMemoryDagNtNtBb_6traits14CertificateDag18round_certificates00Bb_
FNDA:669,_RNCNvXs0_NtCs6zOrHhYlc8W_15nexus_consensus3dagNtB7_11InMemoryDagNtNtB9_6traits14CertificateDag14causal_history0B9_
FNDA:624,_RNCNvXs0_NtCs6zOrHhYlc8W_15nexus_consensus3dagNtB7_11InMemoryDagNtNtB9_6traits14CertificateDag14causal_historys_0B9_
FNDA:233,_RNCNvXs0_NtCs6zOrHhYlc8W_15nexus_consensus3dagNtB7_11InMemoryDagNtNtB9_6traits14CertificateDag15get_certificate0B9_
FNDA:68,_RNCNvXs0_NtCs6zOrHhYlc8W_15nexus_consensus3dagNtB7_11InMemoryDagNtNtB9_6traits14CertificateDag18round_certificates0B9_
FNDA:12,_RNvMNtCs6zOrHhYlc8W_15nexus_consensus3dagNtB2_11InMemoryDag11all_digests
FNDA:34,_RNvMNtCs6zOrHhYlc8W_15nexus_consensus3dagNtB2_11InMemoryDag13get_by_digest
FNDA:109,_RNvMNtCs6zOrHhYlc8W_15nexus_consensus3dagNtB2_11InMemoryDag3len
FNDA:664,_RNvMNtCs6zOrHhYlc8W_15nexus_consensus3dagNtB2_11InMemoryDag3new
FNDA:17,_RNvMNtCs6zOrHhYlc8W_15nexus_consensus3dagNtB2_11InMemoryDag8contains
FNDA:17,_RNvMNtCs6zOrHhYlc8W_15nexus_consensus3dagNtB2_11InMemoryDag8is_empty
FNDA:689,_RNvXs0_NtCs6zOrHhYlc8W_15nexus_consensus3dagNtB5_11InMemoryDagNtNtB7_6traits14CertificateDag13current_round
FNDA:284,_RNvXs0_NtCs6zOrHhYlc8W_15nexus_consensus3dagNtB5_11InMemoryDagNtNtB7_6traits14CertificateDag14causal_history
FNDA:318,_RNvXs0_NtCs6zOrHhYlc8W_15nexus_consensus3dagNtB5_11InMemoryDagNtNtB7_6traits14CertificateDag15get_certificate
FNDA:1522,_RNvXs0_NtCs6zOrHhYlc8W_15nexus_consensus3dagNtB5_11InMemoryDagNtNtB7_6traits14CertificateDag18insert_certificate
FNDA:85,_RNvXs0_NtCs6zOrHhYlc8W_15nexus_consensus3dagNtB5_11InMemoryDagNtNtB7_6traits14CertificateDag18round_certificates
FNDA:374,_RNvNtNtCs6zOrHhYlc8W_15nexus_consensus3dag5tests9make_cert
FNDA:17,_RNvNtNtCs6zOrHhYlc8W_15nexus_consensus3dag5testss_19get_by_digest_works
FNDA:17,_RNvNtNtCs6zOrHhYlc8W_15nexus_consensus3dag5testss_23missing_parent_rejected
FNDA:17,_RNvNtNtCs6zOrHhYlc8W_15nexus_consensus3dag5testss_23three_round_diamond_dag
FNDA:17,_RNvNtNtCs6zOrHhYlc8W_15nexus_consensus3dag5testss_27insert_and_get_genesis_cert
FNDA:17,_RNvNtNtCs6zOrHhYlc8W_15nexus_consensus3dag5testss_28causality_violation_rejected
FNDA:17,_RNvNtNtCs6zOrHhYlc8W_15nexus_consensus3dag5testss_28current_round_tracks_highest
FNDA:17,_RNvNtNtCs6zOrHhYlc8W_15nexus_consensus3dag5testss_30duplicate_certificate_rejected
FNDA:17,_RNvNtNtCs6zOrHhYlc8W_15nexus_consensus3dag5testss_35get_certificate_by_origin_and_round
FNDA:17,_RNvNtNtCs6zOrHhYlc8W_15nexus_consensus3dag5testss_37causal_history_single_cert_no_parents
FNDA:17,_RNvNtNtCs6zOrHhYlc8W_15nexus_consensus3dag5testss_40round_certificates_returns_all_for_round
FNDA:17,_RNvNtNtCs6zOrHhYlc8W_15nexus_consensus3dag5testss_41causal_history_unknown_cert_returns_empty
FNDA:17,_RNvNtNtCs6zOrHhYlc8W_15nexus_consensus3dag5testss_53causal_history_returns_ancestors_in_topological_order
FNDA:17,_RNvNtNtCs6zOrHhYlc8W_15nexus_consensus3dag5testss_60dag_should_reject_equivocating_certificate_same_origin_round
FNF:34
FNH:31
DA:39,5270
DA:40,5270
DA:41,5270
DA:42,5270
DA:43,5270
DA:44,5270
DA:45,5270
DA:46,5270
DA:49,580
DA:50,580
DA:51,580
DA:54,17
DA:55,17
DA:56,17
DA:63,0
DA:64,0
DA:65,0
DA:66,0
DA:67,0
DA:68,0
DA:69,0
DA:71,0
DA:72,0
DA:73,0
DA:74,0
DA:75,0
DA:76,0
DA:78,0
DA:80,0
DA:83,17
DA:84,17
DA:85,17
DA:88,1229
DA:89,1229
DA:90,1229
DA:93,12
DA:94,12
DA:95,12
DA:99,0
DA:100,0
DA:101,0
DA:105,4965
DA:106,4965
DA:107,4965
DA:108,34
DA:109,34
DA:110,34
DA:111,4931
DA:114,4931
DA:115,17
DA:116,17
DA:117,17
DA:118,17
DA:119,17
DA:120,17
DA:121,17
DA:122,0
DA:123,4914
DA:126,4914
DA:129,2833
DA:130,12564
DA:131,9748
DA:132,9765
DA:133,9765
DA:134,9765
DA:135,9765
DA:136,9765
DA:137,9748
DA:138,17
DA:139,17
DA:140,17
DA:141,17
DA:142,9731
DA:144,2081
DA:147,4880
DA:148,4880
DA:149,4880
DA:150,4880
DA:151,4880
DA:152,4880
DA:153,4880
DA:154,1362
DA:155,3518
DA:157,4880
DA:158,4880
DA:159,4880
DA:160,4965
DA:162,765
DA:163,765
DA:164,765
DA:165,765
DA:166,765
DA:167,765
DA:168,765
DA:169,765
DA:170,765
DA:172,479
DA:173,479
DA:174,479
DA:175,479
DA:176,479
DA:177,479
DA:179,4132
DA:180,4132
DA:181,4132
DA:183,731
DA:184,731
DA:185,731
DA:186,731
DA:187,731
DA:189,731
DA:190,714
DA:191,714
DA:192,714
DA:194,4586
DA:195,3855
DA:196,11046
DA:197,7191
DA:198,3141
DA:199,3141
DA:200,3141
DA:201,3141
DA:202,4050
DA:204,0
DA:208,731
DA:209,12675
DA:210,3855
DA:211,731
DA:222,374
DA:223,374
DA:224,374
DA:225,374
DA:226,374
DA:227,374
DA:228,374
DA:229,374
DA:230,374
DA:231,374
DA:232,374
DA:233,374
DA:234,374
DA:235,374
DA:236,374
DA:237,374
DA:238,374
DA:239,374
DA:244,17
DA:245,17
DA:246,17
DA:247,17
DA:248,17
DA:249,17
DA:250,17
DA:251,17
DA:252,17
DA:253,17
DA:254,17
DA:257,17
DA:258,17
DA:259,17
DA:260,17
DA:261,17
DA:262,17
DA:263,17
DA:264,17
DA:267,17
DA:268,17
DA:269,17
DA:270,17
DA:273,17
DA:274,17
DA:275,17
DA:276,17
DA:277,17
DA:278,17
DA:279,17
DA:280,17
DA:281,17
DA:284,17
DA:285,17
DA:290,17
DA:291,17
DA:292,17
DA:294,17
DA:295,17
DA:296,17
DA:297,17
DA:299,17
DA:300,17
DA:301,17
DA:302,17
DA:307,17
DA:308,17
DA:309,17
DA:310,17
DA:311,17
DA:312,17
DA:313,17
DA:314,17
DA:317,17
DA:320,17
DA:321,17
DA:322,17
DA:323,17
DA:324,17
DA:325,17
DA:326,17
DA:327,17
DA:330,17
DA:331,17
DA:332,17
DA:333,17
DA:334,17
DA:335,17
DA:336,17
DA:337,17
DA:338,17
DA:339,17
DA:340,17
DA:341,17
DA:344,17
DA:349,17
DA:350,17
DA:351,17
DA:352,17
DA:353,17
DA:354,17
DA:355,17
DA:356,17
DA:357,17
DA:358,17
DA:359,17
DA:360,17
DA:361,17
DA:362,17
DA:363,17
DA:364,17
DA:365,17
DA:366,17
DA:367,17
DA:368,17
DA:369,17
DA:370,17
DA:371,17
DA:372,17
DA:375,17
DA:376,17
DA:377,17
DA:378,17
DA:379,17
DA:380,17
DA:381,17
DA:382,17
DA:383,17
DA:386,17
DA:387,17
DA:388,17
DA:389,17
DA:390,17
DA:395,17
DA:396,17
DA:397,17
DA:398,17
DA:399,17
DA:400,17
DA:401,17
DA:402,17
DA:403,17
DA:404,17
DA:405,17
DA:406,17
DA:407,17
DA:408,17
DA:409,17
DA:410,17
DA:411,17
DA:412,17
DA:413,17
DA:414,17
DA:415,17
DA:416,17
DA:417,17
DA:418,17
DA:419,17
DA:420,17
DA:421,17
DA:422,17
DA:423,17
DA:426,17
DA:427,17
DA:429,17
DA:430,17
DA:431,17
DA:436,17
DA:437,17
DA:438,17
DA:439,17
DA:440,17
DA:441,17
DA:442,17
DA:443,17
DA:444,17
DA:449,17
DA:450,17
DA:451,17
DA:452,17
DA:453,17
DA:454,17
DA:455,17
DA:456,17
DA:457,17
DA:458,17
DA:459,17
DA:460,17
DA:461,17
DA:462,0
DA:466,17
DA:467,17
BRF:0
BRH:0
LF:325
LH:303
end_of_record
SF:/Users/VD/Vootaa_Projects/vootaa-labs@github/nexus-node/crates/nexus-consensus/src/engine.rs
FN:299,_RNvMs_NtCs9QvvabE0u1j_15nexus_consensus6engineNtB4_15ConsensusEngine13advance_epoch
FN:287,_RNvMs_NtCs9QvvabE0u1j_15nexus_consensus6engineNtB4_15ConsensusEngine13committee_mut
FN:282,_RNvMs_NtCs9QvvabE0u1j_15nexus_consensus6engineNtB4_15ConsensusEngine13total_commits
FN:247,_RNvMs_NtCs9QvvabE0u1j_15nexus_consensus6engineNtB4_15ConsensusEngine14take_committed
FN:252,_RNvMs_NtCs9QvvabE0u1j_15nexus_consensus6engineNtB4_15ConsensusEngine15pending_commits
FN:147,_RNvMs_NtCs9QvvabE0u1j_15nexus_consensus6engineNtB4_15ConsensusEngine19process_certificate
FN:99,_RNvMs_NtCs9QvvabE0u1j_15nexus_consensus6engineNtB4_15ConsensusEngine20new_with_persistence
FN:190,_RNvMs_NtCs9QvvabE0u1j_15nexus_consensus6engineNtB4_15ConsensusEngine27insert_verified_certificate
FN:112,_RNvMs_NtCs9QvvabE0u1j_15nexus_consensus6engineNtB4_15ConsensusEngine34new_with_persistence_and_retention
FN:262,_RNvMs_NtCs9QvvabE0u1j_15nexus_consensus6engineNtB4_15ConsensusEngine3dag
FN:75,_RNvMs_NtCs9QvvabE0u1j_15nexus_consensus6engineNtB4_15ConsensusEngine3new
FN:257,_RNvMs_NtCs9QvvabE0u1j_15nexus_consensus6engineNtB4_15ConsensusEngine5epoch
FN:272,_RNvMs_NtCs9QvvabE0u1j_15nexus_consensus6engineNtB4_15ConsensusEngine7orderer
FN:277,_RNvMs_NtCs9QvvabE0u1j_15nexus_consensus6engineNtB4_15ConsensusEngine8dag_size
FN:267,_RNvMs_NtCs9QvvabE0u1j_15nexus_consensus6engineNtB4_15ConsensusEngine9committee
FN:56,_RNvXNtCs9QvvabE0u1j_15nexus_consensus6engineNtB2_15ConsensusEngineNtNtCslNfmTnNkGed_4core3fmt5Debug3fmt
FN:321,_RNCNvMs_NtCs9QvvabE0u1j_15nexus_consensus6engineNtB6_15ConsensusEngine13advance_epoch0B8_
FN:121,_RNCNvMs_NtCs9QvvabE0u1j_15nexus_consensus6engineNtB6_15ConsensusEngine34new_with_persistence_and_retention0B8_
FN:79,_RNCNvMs_NtCs9QvvabE0u1j_15nexus_consensus6engineNtB6_15ConsensusEngine3new0B8_
FN:287,_RNvMs_NtCs6zOrHhYlc8W_15nexus_consensus6engineNtB4_15ConsensusEngine13committee_mut
FN:262,_RNvMs_NtCs6zOrHhYlc8W_15nexus_consensus6engineNtB4_15ConsensusEngine3dag
FN:272,_RNvMs_NtCs6zOrHhYlc8W_15nexus_consensus6engineNtB4_15ConsensusEngine7orderer
FN:321,_RNCNvMs_NtCs6zOrHhYlc8W_15nexus_consensus6engineNtB6_15ConsensusEngine13advance_epoch0B8_
FN:121,_RNCNvMs_NtCs6zOrHhYlc8W_15nexus_consensus6engineNtB6_15ConsensusEngine34new_with_persistence_and_retention0B8_
FN:79,_RNCNvMs_NtCs6zOrHhYlc8W_15nexus_consensus6engineNtB6_15ConsensusEngine3new0B8_
FN:392,_RNvXNtNtCs6zOrHhYlc8W_15nexus_consensus6engine5testsINtNtCsdEVMfzfmdlp_5alloc4sync3ArcNtB2_15PersistRecorderENtNtB6_7persist14DagPersistSync11delete_sync
FN:387,_RNvXNtNtCs6zOrHhYlc8W_15nexus_consensus6engine5testsINtNtCsdEVMfzfmdlp_5alloc4sync3ArcNtB2_15PersistRecorderENtNtB6_7persist14DagPersistSync12persist_sync
FN:400,_RNvXNtNtCs6zOrHhYlc8W_15nexus_consensus6engine5testsINtNtCsdEVMfzfmdlp_5alloc4sync3ArcNtB2_15PersistRecorderENtNtB6_7persist14DagPersistSync14purge_by_epoch
FN:299,_RNvMs_NtCs6zOrHhYlc8W_15nexus_consensus6engineNtB4_15ConsensusEngine13advance_epoch
FN:282,_RNvMs_NtCs6zOrHhYlc8W_15nexus_consensus6engineNtB4_15ConsensusEngine13total_commits
FN:247,_RNvMs_NtCs6zOrHhYlc8W_15nexus_consensus6engineNtB4_15ConsensusEngine14take_committed
FN:252,_RNvMs_NtCs6zOrHhYlc8W_15nexus_consensus6engineNtB4_15ConsensusEngine15pending_commits
FN:147,_RNvMs_NtCs6zOrHhYlc8W_15nexus_consensus6engineNtB4_15ConsensusEngine19process_certificate
FN:99,_RNvMs_NtCs6zOrHhYlc8W_15nexus_consensus6engineNtB4_15ConsensusEngine20new_with_persistence
FN:190,_RNvMs_NtCs6zOrHhYlc8W_15nexus_consensus6engineNtB4_15ConsensusEngine27insert_verified_certificate
FN:112,_RNvMs_NtCs6zOrHhYlc8W_15nexus_consensus6engineNtB4_15ConsensusEngine34new_with_persistence_and_retention
FN:75,_RNvMs_NtCs6zOrHhYlc8W_15nexus_consensus6engineNtB4_15ConsensusEngine3new
FN:257,_RNvMs_NtCs6zOrHhYlc8W_15nexus_consensus6engineNtB4_15ConsensusEngine5epoch
FN:277,_RNvMs_NtCs6zOrHhYlc8W_15nexus_consensus6engineNtB4_15ConsensusEngine8dag_size
FN:267,_RNvMs_NtCs6zOrHhYlc8W_15nexus_consensus6engineNtB4_15ConsensusEngine9committee
FN:56,_RNvXNtCs6zOrHhYlc8W_15nexus_consensus6engineNtB2_15ConsensusEngineNtNtCslNfmTnNkGed_4core3fmt5Debug3fmt
FN:433,_RNvMs_NtNtCs6zOrHhYlc8W_15nexus_consensus6engine5testsNtB4_11TestHarness10build_cert
FN:468,_RNvMs_NtNtCs6zOrHhYlc8W_15nexus_consensus6engine5testsNtB4_11TestHarness12genesis_cert
FN:494,_RNvMs_NtNtCs6zOrHhYlc8W_15nexus_consensus6engine5testsNtB4_11TestHarness19committee_for_epoch
FN:412,_RNvMs_NtNtCs6zOrHhYlc8W_15nexus_consensus6engine5testsNtB4_11TestHarness3new
FN:503,_RNvNtNtCs6zOrHhYlc8W_15nexus_consensus6engine5testss_15engine_creation
FN:598,_RNvNtNtCs6zOrHhYlc8W_15nexus_consensus6engine5testss_19multi_round_commits
FN:575,_RNvNtNtCs6zOrHhYlc8W_15nexus_consensus6engine5testss_28take_committed_drains_buffer
FN:640,_RNvNtNtCs6zOrHhYlc8W_15nexus_consensus6engine5testss_29committed_buffer_backpressure
FN:512,_RNvNtNtCs6zOrHhYlc8W_15nexus_consensus6engine5testss_29insert_verified_genesis_certs
FN:525,_RNvNtNtCs6zOrHhYlc8W_15nexus_consensus6engine5testss_31full_pipeline_genesis_to_commit
FN:563,_RNvNtNtCs6zOrHhYlc8W_15nexus_consensus6engine5testss_35duplicate_cert_rejected_in_pipeline
FN:712,_RNvNtNtCs6zOrHhYlc8W_15nexus_consensus6engine5testss_38engine_debug_reports_key_runtime_state
FN:552,_RNvNtNtCs6zOrHhYlc8W_15nexus_consensus6engine5testss_45process_certificate_rejects_invalid_signature
FN:790,_RNvNtNtCs6zOrHhYlc8W_15nexus_consensus6engine5testss_48advance_epoch_with_retention_purges_cutoff_epoch
FN:760,_RNvNtNtCs6zOrHhYlc8W_15nexus_consensus6engine5testss_63advance_epoch_with_zero_retention_deletes_current_epoch_digests
FN:729,_RNvNtNtCs6zOrHhYlc8W_15nexus_consensus6engine5testss_64advance_epoch_resets_runtime_state_and_returns_remaining_batches
FN:676,_RNvNtNtCs6zOrHhYlc8W_15nexus_consensus6engine5testss_66insert_verified_certificate_should_reject_external_untrusted_input
FNDA:3192,_RNvMs_NtCs9QvvabE0u1j_15nexus_consensus6engineNtB4_15ConsensusEngine13advance_epoch
FNDA:126,_RNvMs_NtCs9QvvabE0u1j_15nexus_consensus6engineNtB4_15ConsensusEngine13committee_mut
FNDA:247,_RNvMs_NtCs9QvvabE0u1j_15nexus_consensus6engineNtB4_15ConsensusEngine13total_commits
FNDA:4368,_RNvMs_NtCs9QvvabE0u1j_15nexus_consensus6engineNtB4_15ConsensusEngine14take_committed
FNDA:331,_RNvMs_NtCs9QvvabE0u1j_15nexus_consensus6engineNtB4_15ConsensusEngine15pending_commits
FNDA:1834,_RNvMs_NtCs9QvvabE0u1j_15nexus_consensus6engineNtB4_15ConsensusEngine19process_certificate
FNDA:0,_RNvMs_NtCs9QvvabE0u1j_15nexus_consensus6engineNtB4_15ConsensusEngine20new_with_persistence
FNDA:1623,_RNvMs_NtCs9QvvabE0u1j_15nexus_consensus6engineNtB4_15ConsensusEngine27insert_verified_certificate
FNDA:112,_RNvMs_NtCs9QvvabE0u1j_15nexus_consensus6engineNtB4_15ConsensusEngine34new_with_persistence_and_retention
FNDA:559,_RNvMs_NtCs9QvvabE0u1j_15nexus_consensus6engineNtB4_15ConsensusEngine3dag
FNDA:1302,_RNvMs_NtCs9QvvabE0u1j_15nexus_consensus6engineNtB4_15ConsensusEngine3new
FNDA:653,_RNvMs_NtCs9QvvabE0u1j_15nexus_consensus6engineNtB4_15ConsensusEngine5epoch
FNDA:0,_RNvMs_NtCs9QvvabE0u1j_15nexus_consensus6engineNtB4_15ConsensusEngine7orderer
FNDA:471,_RNvMs_NtCs9QvvabE0u1j_15nexus_consensus6engineNtB4_15ConsensusEngine8dag_size
FNDA:2817,_RNvMs_NtCs9QvvabE0u1j_15nexus_consensus6engineNtB4_15ConsensusEngine9committee
FNDA:0,_RNvXNtCs9QvvabE0u1j_15nexus_consensus6engineNtB2_15ConsensusEngineNtNtCslNfmTnNkGed_4core3fmt5Debug3fmt
FNDA:14616,_RNCNvMs_NtCs9QvvabE0u1j_15nexus_consensus6engineNtB6_15ConsensusEngine13advance_epoch0B8_
FNDA:448,_RNCNvMs_NtCs9QvvabE0u1j_15nexus_consensus6engineNtB6_15ConsensusEngine34new_with_persistence_and_retention0B8_
FNDA:5768,_RNCNvMs_NtCs9QvvabE0u1j_15nexus_consensus6engineNtB6_15ConsensusEngine3new0B8_
FNDA:0,_RNvMs_NtCs6zOrHhYlc8W_15nexus_consensus6engineNtB4_15ConsensusEngine13committee_mut
FNDA:0,_RNvMs_NtCs6zOrHhYlc8W_15nexus_consensus6engineNtB4_15ConsensusEngine3dag
FNDA:0,_RNvMs_NtCs6zOrHhYlc8W_15nexus_consensus6engineNtB4_15ConsensusEngine7orderer
FNDA:144,_RNCNvMs_NtCs6zOrHhYlc8W_15nexus_consensus6engineNtB6_15ConsensusEngine13advance_epoch0B8_
FNDA:144,_RNCNvMs_NtCs6zOrHhYlc8W_15nexus_consensus6engineNtB6_15ConsensusEngine34new_with_persistence_and_retention0B8_
FNDA:804,_RNCNvMs_NtCs6zOrHhYlc8W_15nexus_consensus6engineNtB6_15ConsensusEngine3new0B8_
FNDA:12,_RNvXNtNtCs6zOrHhYlc8W_15nexus_consensus6engine5testsINtNtCsdEVMfzfmdlp_5alloc4sync3ArcNtB2_15PersistRecorderENtNtB6_7persist14DagPersistSync11delete_sync
FNDA:24,_RNvXNtNtCs6zOrHhYlc8W_15nexus_consensus6engine5testsINtNtCsdEVMfzfmdlp_5alloc4sync3ArcNtB2_15PersistRecorderENtNtB6_7persist14DagPersistSync12persist_sync
FNDA:12,_RNvXNtNtCs6zOrHhYlc8W_15nexus_consensus6engine5testsINtNtCsdEVMfzfmdlp_5alloc4sync3ArcNtB2_15PersistRecorderENtNtB6_7persist14DagPersistSync14purge_by_epoch
FNDA:36,_RNvMs_NtCs6zOrHhYlc8W_15nexus_consensus6engineNtB4_15ConsensusEngine13advance_epoch
FNDA:63,_RNvMs_NtCs6zOrHhYlc8W_15nexus_consensus6engineNtB4_15ConsensusEngine13total_commits
FNDA:138,_RNvMs_NtCs6zOrHhYlc8W_15nexus_consensus6engineNtB4_15ConsensusEngine14take_committed
FNDA:114,_RNvMs_NtCs6zOrHhYlc8W_15nexus_consensus6engineNtB4_15ConsensusEngine15pending_commits
FNDA:131,_RNvMs_NtCs6zOrHhYlc8W_15nexus_consensus6engineNtB4_15ConsensusEngine19process_certificate
FNDA:24,_RNvMs_NtCs6zOrHhYlc8W_15nexus_consensus6engineNtB4_15ConsensusEngine20new_with_persistence
FNDA:303,_RNvMs_NtCs6zOrHhYlc8W_15nexus_consensus6engineNtB4_15ConsensusEngine27insert_verified_certificate
FNDA:36,_RNvMs_NtCs6zOrHhYlc8W_15nexus_consensus6engineNtB4_15ConsensusEngine34new_with_persistence_and_retention
FNDA:201,_RNvMs_NtCs6zOrHhYlc8W_15nexus_consensus6engineNtB4_15ConsensusEngine3new
FNDA:29,_RNvMs_NtCs6zOrHhYlc8W_15nexus_consensus6engineNtB4_15ConsensusEngine5epoch
FNDA:46,_RNvMs_NtCs6zOrHhYlc8W_15nexus_consensus6engineNtB4_15ConsensusEngine8dag_size
FNDA:198,_RNvMs_NtCs6zOrHhYlc8W_15nexus_consensus6engineNtB4_15ConsensusEngine9committee
FNDA:12,_RNvXNtCs6zOrHhYlc8W_15nexus_consensus6engineNtB2_15ConsensusEngineNtNtCslNfmTnNkGed_4core3fmt5Debug3fmt
FNDA:84,_RNvMs_NtNtCs6zOrHhYlc8W_15nexus_consensus6engine5testsNtB4_11TestHarness10build_cert
FNDA:228,_RNvMs_NtNtCs6zOrHhYlc8W_15nexus_consensus6engine5testsNtB4_11TestHarness12genesis_cert
FNDA:54,_RNvMs_NtNtCs6zOrHhYlc8W_15nexus_consensus6engine5testsNtB4_11TestHarness19committee_for_epoch
FNDA:156,_RNvMs_NtNtCs6zOrHhYlc8W_15nexus_consensus6engine5testsNtB4_11TestHarness3new
FNDA:9,_RNvNtNtCs6zOrHhYlc8W_15nexus_consensus6engine5testss_15engine_creation
FNDA:9,_RNvNtNtCs6zOrHhYlc8W_15nexus_consensus6engine5testss_19multi_round_commits
FNDA:9,_RNvNtNtCs6zOrHhYlc8W_15nexus_consensus6engine5testss_28take_committed_drains_buffer
FNDA:9,_RNvNtNtCs6zOrHhYlc8W_15nexus_consensus6engine5testss_29committed_buffer_backpressure
FNDA:9,_RNvNtNtCs6zOrHhYlc8W_15nexus_consensus6engine5testss_29insert_verified_genesis_certs
FNDA:9,_RNvNtNtCs6zOrHhYlc8W_15nexus_consensus6engine5testss_31full_pipeline_genesis_to_commit
FNDA:9,_RNvNtNtCs6zOrHhYlc8W_15nexus_consensus6engine5testss_35duplicate_cert_rejected_in_pipeline
FNDA:9,_RNvNtNtCs6zOrHhYlc8W_15nexus_consensus6engine5testss_38engine_debug_reports_key_runtime_state
FNDA:9,_RNvNtNtCs6zOrHhYlc8W_15nexus_consensus6engine5testss_45process_certificate_rejects_invalid_signature
FNDA:7,_RNvNtNtCs6zOrHhYlc8W_15nexus_consensus6engine5testss_48advance_epoch_with_retention_purges_cutoff_epoch
FNDA:7,_RNvNtNtCs6zOrHhYlc8W_15nexus_consensus6engine5testss_63advance_epoch_with_zero_retention_deletes_current_epoch_digests
FNDA:9,_RNvNtNtCs6zOrHhYlc8W_15nexus_consensus6engine5testss_64advance_epoch_resets_runtime_state_and_returns_remaining_batches
FNDA:9,_RNvNtNtCs6zOrHhYlc8W_15nexus_consensus6engine5testss_66insert_verified_certificate_should_reject_external_untrusted_input
FNF:39
FNH:38
DA:56,12
DA:57,12
DA:58,12
DA:59,12
DA:60,12
DA:61,12
DA:62,12
DA:63,12
DA:64,12
DA:66,0
DA:69,12
DA:70,12
DA:75,1503
DA:76,1503
DA:77,1503
DA:78,1503
DA:79,6572
DA:80,1503
DA:81,1503
DA:82,1503
DA:83,1503
DA:84,1503
DA:85,1503
DA:86,1503
DA:87,1503
DA:88,1503
DA:89,1503
DA:90,1503
DA:91,1503
DA:92,1503
DA:99,24
DA:100,24
DA:101,24
DA:102,24
DA:103,24
DA:104,24
DA:105,24
DA:112,148
DA:113,148
DA:114,148
DA:115,148
DA:116,148
DA:117,148
DA:118,148
DA:119,148
DA:120,148
DA:121,592
DA:122,148
DA:123,148
DA:124,148
DA:125,148
DA:126,148
DA:127,148
DA:128,148
DA:129,148
DA:130,148
DA:131,148
DA:132,148
DA:133,148
DA:134,148
DA:147,1965
DA:148,1965
DA:149,1965
DA:150,0
DA:151,0
DA:152,0
DA:153,0
DA:154,1965
DA:155,1965
DA:156,1965
DA:157,1965
DA:160,1934
DA:163,1934
DA:164,0
DA:165,0
DA:166,0
DA:167,1934
DA:170,1934
DA:171,332
DA:172,332
DA:173,332
DA:174,332
DA:176,1602
DA:178,1965
DA:190,1926
DA:191,1926
DA:192,1926
DA:193,1926
DA:194,1926
DA:195,1926
DA:196,17
DA:197,17
DA:198,17
DA:199,17
DA:200,1909
DA:201,1909
DA:202,1909
DA:203,1909
DA:204,17
DA:205,17
DA:206,17
DA:207,17
DA:208,1892
DA:211,1892
DA:212,1892
DA:213,1892
DA:214,1892
DA:215,1892
DA:216,1892
DA:217,1892
DA:218,1892
DA:219,17
DA:220,17
DA:221,17
DA:222,1875
DA:223,1875
DA:224,1875
DA:227,1858
DA:228,668
DA:229,0
DA:230,668
DA:231,1190
DA:233,1858
DA:234,195
DA:235,195
DA:236,195
DA:237,195
DA:239,1663
DA:241,1926
DA:247,4506
DA:248,4506
DA:249,4506
DA:252,445
DA:253,445
DA:254,445
DA:257,682
DA:258,682
DA:259,682
DA:262,559
DA:263,559
DA:264,559
DA:267,3015
DA:268,3015
DA:269,3015
DA:272,0
DA:273,0
DA:274,0
DA:277,517
DA:278,517
DA:279,517
DA:282,310
DA:283,310
DA:284,310
DA:287,126
DA:288,126
DA:289,126
DA:299,3228
DA:300,3228
DA:301,3228
DA:302,3228
DA:303,3228
DA:304,3228
DA:305,3228
DA:306,3228
DA:307,3228
DA:308,3228
DA:309,3228
DA:310,3228
DA:311,3228
DA:312,3228
DA:313,3228
DA:314,3228
DA:315,3228
DA:316,3228
DA:317,3228
DA:318,3228
DA:319,3228
DA:320,3228
DA:321,14760
DA:322,3228
DA:325,3228
DA:326,122
DA:328,12
DA:329,12
DA:330,12
DA:331,0
DA:332,12
DA:333,0
DA:338,110
DA:339,110
DA:340,40
DA:341,40
DA:342,40
DA:345,0
DA:348,0
DA:349,0
DA:350,0
DA:353,70
DA:355,3106
DA:357,3228
DA:358,3228
DA:359,3228
DA:360,3228
DA:361,3228
DA:362,3228
DA:363,3228
DA:364,3228
DA:387,24
DA:388,24
DA:389,24
DA:390,24
DA:392,12
DA:393,12
DA:394,12
DA:395,12
DA:396,12
DA:397,12
DA:398,12
DA:400,12
DA:401,12
DA:402,12
DA:403,12
DA:412,156
DA:413,156
DA:414,156
DA:415,624
DA:416,624
DA:417,624
DA:418,624
DA:419,624
DA:420,624
DA:421,624
DA:422,624
DA:423,624
DA:424,624
DA:425,624
DA:426,624
DA:427,156
DA:428,156
DA:429,156
DA:430,156
DA:433,84
DA:434,84
DA:435,84
DA:436,84
DA:437,84
DA:438,84
DA:439,84
DA:440,84
DA:441,84
DA:442,84
DA:443,84
DA:444,84
DA:445,84
DA:446,84
DA:447,84
DA:448,84
DA:449,84
DA:450,84
DA:451,84
DA:452,84
DA:453,84
DA:454,84
DA:455,84
DA:456,84
DA:459,336
DA:460,336
DA:461,336
DA:462,336
DA:464,84
DA:465,84
DA:468,228
DA:469,228
DA:470,228
DA:471,228
DA:472,228
DA:473,228
DA:474,228
DA:475,228
DA:476,228
DA:477,228
DA:478,228
DA:479,228
DA:480,228
DA:481,228
DA:482,228
DA:483,228
DA:484,228
DA:485,228
DA:486,228
DA:487,228
DA:488,228
DA:489,228
DA:490,228
DA:491,228
DA:492,228
DA:494,54
DA:495,54
DA:496,54
DA:497,54
DA:503,9
DA:504,9
DA:505,9
DA:506,9
DA:507,9
DA:508,9
DA:509,9
DA:512,9
DA:513,9
DA:514,9
DA:515,9
DA:516,9
DA:517,9
DA:518,9
DA:519,9
DA:520,9
DA:525,9
DA:526,9
DA:527,9
DA:528,9
DA:529,9
DA:530,9
DA:531,9
DA:532,9
DA:533,9
DA:534,9
DA:535,9
DA:536,9
DA:537,9
DA:538,9
DA:539,9
DA:540,9
DA:541,9
DA:542,9
DA:543,9
DA:545,9
DA:546,9
DA:547,9
DA:548,9
DA:549,9
DA:552,9
DA:553,9
DA:554,9
DA:555,9
DA:556,9
DA:557,9
DA:558,9
DA:559,9
DA:560,9
DA:563,9
DA:564,9
DA:565,9
DA:566,9
DA:567,9
DA:568,9
DA:569,9
DA:572,9
DA:575,9
DA:576,9
DA:577,9
DA:578,9
DA:579,9
DA:580,9
DA:581,9
DA:582,9
DA:583,9
DA:584,9
DA:585,9
DA:586,9
DA:587,9
DA:588,9
DA:589,9
DA:590,9
DA:591,9
DA:593,9
DA:594,9
DA:595,9
DA:598,9
DA:599,9
DA:600,9
DA:601,9
DA:602,9
DA:603,9
DA:604,9
DA:605,9
DA:606,9
DA:607,9
DA:608,9
DA:609,9
DA:610,9
DA:611,9
DA:612,9
DA:613,9
DA:614,9
DA:615,9
DA:616,9
DA:617,9
DA:618,9
DA:619,9
DA:622,9
DA:623,9
DA:624,9
DA:625,9
DA:626,9
DA:627,9
DA:628,9
DA:629,9
DA:630,9
DA:631,9
DA:632,9
DA:633,9
DA:634,9
DA:635,9
DA:640,9
DA:641,9
DA:642,9
DA:643,9
DA:646,9225
DA:647,9216
DA:648,9216
DA:649,9216
DA:650,9216
DA:651,9216
DA:652,9216
DA:653,9216
DA:654,9
DA:657,9
DA:658,9
DA:659,9
DA:660,9
DA:661,9
DA:662,9
DA:664,0
DA:668,9
DA:669,9
DA:670,9
DA:671,9
DA:676,9
DA:677,9
DA:678,9
DA:679,9
DA:680,9
DA:681,9
DA:682,9
DA:683,9
DA:684,9
DA:685,9
DA:686,9
DA:687,9
DA:688,9
DA:689,9
DA:690,9
DA:691,0
DA:695,9
DA:696,9
DA:697,9
DA:698,9
DA:699,9
DA:700,9
DA:701,9
DA:702,9
DA:703,0
DA:707,9
DA:708,9
DA:709,9
DA:712,9
DA:713,9
DA:714,9
DA:715,9
DA:716,9
DA:717,9
DA:718,9
DA:719,9
DA:720,9
DA:721,9
DA:722,9
DA:723,9
DA:724,9
DA:725,9
DA:726,9
DA:729,9
DA:730,9
DA:731,9
DA:732,9
DA:733,9
DA:734,9
DA:735,9
DA:736,9
DA:737,9
DA:738,9
DA:739,9
DA:741,9
DA:742,9
DA:743,9
DA:744,9
DA:745,9
DA:746,9
DA:747,9
DA:748,9
DA:749,9
DA:750,9
DA:751,9
DA:752,9
DA:753,9
DA:754,9
DA:755,9
DA:756,9
DA:757,9
DA:760,7
DA:761,7
DA:762,7
DA:763,7
DA:764,7
DA:765,7
DA:766,7
DA:767,7
DA:768,7
DA:769,7
DA:770,7
DA:771,7
DA:772,7
DA:773,7
DA:774,7
DA:775,7
DA:776,7
DA:777,7
DA:778,7
DA:779,7
DA:780,7
DA:781,7
DA:783,7
DA:784,7
DA:785,7
DA:786,7
DA:787,7
DA:790,7
DA:791,7
DA:792,7
DA:793,7
DA:794,7
DA:795,7
DA:796,7
DA:797,7
DA:798,7
DA:799,7
DA:800,7
DA:801,7
DA:802,7
DA:803,7
DA:804,7
DA:805,7
DA:806,7
BRF:0
BRH:0
LF:555
LH:529
end_of_record
SF:/Users/VD/Vootaa_Projects/vootaa-labs@github/nexus-node/crates/nexus-consensus/src/epoch_manager.rs
FN:92,_RNvMNtCs6zOrHhYlc8W_15nexus_consensus13epoch_managerNtB2_12EpochManager6config
FN:87,_RNvMNtCs6zOrHhYlc8W_15nexus_consensus13epoch_managerNtB2_12EpochManager11transitions
FN:77,_RNvMNtCs6zOrHhYlc8W_15nexus_consensus13epoch_managerNtB2_12EpochManager13current_epoch
FN:102,_RNvMNtCs6zOrHhYlc8W_15nexus_consensus13epoch_managerNtB2_12EpochManager14should_advance
FN:82,_RNvMNtCs6zOrHhYlc8W_15nexus_consensus13epoch_managerNtB2_12EpochManager16epoch_started_at
FN:131,_RNvMNtCs6zOrHhYlc8W_15nexus_consensus13epoch_managerNtB2_12EpochManager17record_transition
FN:48,_RNvMNtCs6zOrHhYlc8W_15nexus_consensus13epoch_managerNtB2_12EpochManager3new
FN:60,_RNvMNtCs6zOrHhYlc8W_15nexus_consensus13epoch_managerNtB2_12EpochManager7recover
FN:144,_RNvNtNtCs6zOrHhYlc8W_15nexus_consensus13epoch_manager5tests11test_config
FN:254,_RNvNtNtCs6zOrHhYlc8W_15nexus_consensus13epoch_manager5testss_21time_based_transition
FN:225,_RNvNtNtCs6zOrHhYlc8W_15nexus_consensus13epoch_manager5testss_22recover_restores_state
FN:153,_RNvNtNtCs6zOrHhYlc8W_15nexus_consensus13epoch_manager5testss_24initial_epoch_is_correct
FN:206,_RNvNtNtCs6zOrHhYlc8W_15nexus_consensus13epoch_manager5testss_31multiple_transitions_accumulate
FN:188,_RNvNtNtCs6zOrHhYlc8W_15nexus_consensus13epoch_manager5testss_32record_transition_advances_epoch
FN:160,_RNvNtNtCs6zOrHhYlc8W_15nexus_consensus13epoch_manager5testss_32should_not_advance_below_minimum
FN:174,_RNvNtNtCs6zOrHhYlc8W_15nexus_consensus13epoch_manager5testss_34should_advance_at_commit_threshold
FN:167,_RNvNtNtCs6zOrHhYlc8W_15nexus_consensus13epoch_manager5testss_34should_not_advance_below_threshold
FN:181,_RNvNtNtCs6zOrHhYlc8W_15nexus_consensus13epoch_manager5testss_37should_advance_above_commit_threshold
FN:243,_RNvNtNtCs6zOrHhYlc8W_15nexus_consensus13epoch_manager5testss_40disabled_commit_threshold_never_triggers
FN:87,_RNvMNtCs9QvvabE0u1j_15nexus_consensus13epoch_managerNtB2_12EpochManager11transitions
FN:77,_RNvMNtCs9QvvabE0u1j_15nexus_consensus13epoch_managerNtB2_12EpochManager13current_epoch
FN:102,_RNvMNtCs9QvvabE0u1j_15nexus_consensus13epoch_managerNtB2_12EpochManager14should_advance
FN:82,_RNvMNtCs9QvvabE0u1j_15nexus_consensus13epoch_managerNtB2_12EpochManager16epoch_started_at
FN:131,_RNvMNtCs9QvvabE0u1j_15nexus_consensus13epoch_managerNtB2_12EpochManager17record_transition
FN:48,_RNvMNtCs9QvvabE0u1j_15nexus_consensus13epoch_managerNtB2_12EpochManager3new
FN:92,_RNvMNtCs9QvvabE0u1j_15nexus_consensus13epoch_managerNtB2_12EpochManager6config
FN:60,_RNvMNtCs9QvvabE0u1j_15nexus_consensus13epoch_managerNtB2_12EpochManager7recover
FNDA:0,_RNvMNtCs6zOrHhYlc8W_15nexus_consensus13epoch_managerNtB2_12EpochManager6config
FNDA:68,_RNvMNtCs6zOrHhYlc8W_15nexus_consensus13epoch_managerNtB2_12EpochManager11transitions
FNDA:68,_RNvMNtCs6zOrHhYlc8W_15nexus_consensus13epoch_managerNtB2_12EpochManager13current_epoch
FNDA:102,_RNvMNtCs6zOrHhYlc8W_15nexus_consensus13epoch_managerNtB2_12EpochManager14should_advance
FNDA:34,_RNvMNtCs6zOrHhYlc8W_15nexus_consensus13epoch_managerNtB2_12EpochManager16epoch_started_at
FNDA:68,_RNvMNtCs6zOrHhYlc8W_15nexus_consensus13epoch_managerNtB2_12EpochManager17record_transition
FNDA:136,_RNvMNtCs6zOrHhYlc8W_15nexus_consensus13epoch_managerNtB2_12EpochManager3new
FNDA:34,_RNvMNtCs6zOrHhYlc8W_15nexus_consensus13epoch_managerNtB2_12EpochManager7recover
FNDA:136,_RNvNtNtCs6zOrHhYlc8W_15nexus_consensus13epoch_manager5tests11test_config
FNDA:17,_RNvNtNtCs6zOrHhYlc8W_15nexus_consensus13epoch_manager5testss_21time_based_transition
FNDA:17,_RNvNtNtCs6zOrHhYlc8W_15nexus_consensus13epoch_manager5testss_22recover_restores_state
FNDA:17,_RNvNtNtCs6zOrHhYlc8W_15nexus_consensus13epoch_manager5testss_24initial_epoch_is_correct
FNDA:17,_RNvNtNtCs6zOrHhYlc8W_15nexus_consensus13epoch_manager5testss_31multiple_transitions_accumulate
FNDA:17,_RNvNtNtCs6zOrHhYlc8W_15nexus_consensus13epoch_manager5testss_32record_transition_advances_epoch
FNDA:17,_RNvNtNtCs6zOrHhYlc8W_15nexus_consensus13epoch_manager5testss_32should_not_advance_below_minimum
FNDA:17,_RNvNtNtCs6zOrHhYlc8W_15nexus_consensus13epoch_manager5testss_34should_advance_at_commit_threshold
FNDA:17,_RNvNtNtCs6zOrHhYlc8W_15nexus_consensus13epoch_manager5testss_34should_not_advance_below_threshold
FNDA:17,_RNvNtNtCs6zOrHhYlc8W_15nexus_consensus13epoch_manager5testss_37should_advance_above_commit_threshold
FNDA:17,_RNvNtNtCs6zOrHhYlc8W_15nexus_consensus13epoch_manager5testss_40disabled_commit_threshold_never_triggers
FNDA:322,_RNvMNtCs9QvvabE0u1j_15nexus_consensus13epoch_managerNtB2_12EpochManager11transitions
FNDA:602,_RNvMNtCs9QvvabE0u1j_15nexus_consensus13epoch_managerNtB2_12EpochManager13current_epoch
FNDA:2996,_RNvMNtCs9QvvabE0u1j_15nexus_consensus13epoch_managerNtB2_12EpochManager14should_advance
FNDA:14,_RNvMNtCs9QvvabE0u1j_15nexus_consensus13epoch_managerNtB2_12EpochManager16epoch_started_at
FNDA:2282,_RNvMNtCs9QvvabE0u1j_15nexus_consensus13epoch_managerNtB2_12EpochManager17record_transition
FNDA:476,_RNvMNtCs9QvvabE0u1j_15nexus_consensus13epoch_managerNtB2_12EpochManager3new
FNDA:0,_RNvMNtCs9QvvabE0u1j_15nexus_consensus13epoch_managerNtB2_12EpochManager6config
FNDA:140,_RNvMNtCs9QvvabE0u1j_15nexus_consensus13epoch_managerNtB2_12EpochManager7recover
FNF:19
FNH:18
DA:48,612
DA:49,612
DA:50,612
DA:51,612
DA:52,612
DA:53,612
DA:54,612
DA:55,612
DA:60,174
DA:61,174
DA:62,174
DA:63,174
DA:64,174
DA:65,174
DA:66,174
DA:67,174
DA:68,174
DA:69,174
DA:70,174
DA:71,174
DA:72,174
DA:77,670
DA:78,670
DA:79,670
DA:82,48
DA:83,48
DA:84,48
DA:87,390
DA:88,390
DA:89,390
DA:92,0
DA:93,0
DA:94,0
DA:102,3098
DA:103,3098
DA:104,3098
DA:105,31
DA:106,3067
DA:107,3067
DA:108,3067
DA:109,3067
DA:111,1686
DA:112,1381
DA:113,1381
DA:114,1381
DA:115,1381
DA:116,17
DA:117,17
DA:118,17
DA:119,17
DA:120,0
DA:121,1364
DA:123,1364
DA:124,3098
DA:131,2350
DA:132,2350
DA:133,2350
DA:134,2350
DA:135,2350
DA:144,136
DA:145,136
DA:146,136
DA:147,136
DA:148,136
DA:149,136
DA:150,136
DA:153,17
DA:154,17
DA:155,17
DA:156,17
DA:157,17
DA:160,17
DA:161,17
DA:162,17
DA:163,17
DA:164,17
DA:167,17
DA:168,17
DA:169,17
DA:170,17
DA:171,17
DA:174,17
DA:175,17
DA:176,17
DA:177,17
DA:178,17
DA:181,17
DA:182,17
DA:183,17
DA:184,17
DA:185,17
DA:188,17
DA:189,17
DA:190,17
DA:191,17
DA:192,17
DA:193,17
DA:194,17
DA:195,17
DA:196,17
DA:197,17
DA:198,17
DA:199,17
DA:200,17
DA:201,17
DA:202,17
DA:203,17
DA:206,17
DA:207,17
DA:208,17
DA:210,68
DA:211,51
DA:212,51
DA:213,51
DA:214,51
DA:215,51
DA:216,51
DA:217,51
DA:218,51
DA:220,17
DA:221,17
DA:222,17
DA:225,17
DA:226,17
DA:227,17
DA:228,17
DA:229,17
DA:230,17
DA:231,17
DA:232,17
DA:233,17
DA:234,17
DA:235,17
DA:236,17
DA:237,17
DA:238,17
DA:239,17
DA:240,17
DA:243,17
DA:244,17
DA:245,17
DA:246,17
DA:247,17
DA:248,17
DA:249,17
DA:250,17
DA:251,17
DA:254,17
DA:255,17
DA:256,17
DA:257,17
DA:258,17
DA:259,17
DA:260,17
DA:261,17
DA:262,17
DA:263,17
DA:264,17
DA:265,17
DA:266,17
DA:267,17
DA:268,17
DA:269,17
BRF:0
BRH:0
LF:163
LH:159
end_of_record
SF:/Users/VD/Vootaa_Projects/vootaa-labs@github/nexus-node/crates/nexus-consensus/src/persist.rs
FN:119,_RNCNCNCNvMNtCs9QvvabE0u1j_15nexus_consensus7persistINtB8_14DagPersistencepE24delete_certificates_sync000Ba_
FN:137,_RNCNCNvMNtCs9QvvabE0u1j_15nexus_consensus7persistINtB6_14DagPersistencepE19delete_certificates00B8_
FN:77,_RNCNCNvMNtCs9QvvabE0u1j_15nexus_consensus7persistINtB6_14DagPersistencepE19persist_certificate00B8_
FN:84,_RNCNCNvMNtCs9QvvabE0u1j_15nexus_consensus7persistINtB6_14DagPersistencepE19persist_certificate0s_0B8_
FN:115,_RNCNCNvMNtCs9QvvabE0u1j_15nexus_consensus7persistINtB6_14DagPersistencepE24delete_certificates_sync00B8_
FN:181,_RNCNvMNtCs9QvvabE0u1j_15nexus_consensus7persistINtB4_14DagPersistencepE14purge_by_epoch0B6_
FN:186,_RNCNvMNtCs9QvvabE0u1j_15nexus_consensus7persistINtB4_14DagPersistencepE14purge_by_epochs_0B6_
FN:126,_RNCNvMNtCs9QvvabE0u1j_15nexus_consensus7persistINtB4_14DagPersistencepE19delete_certificates0B6_
FN:75,_RNCNvMNtCs9QvvabE0u1j_15nexus_consensus7persistINtB4_14DagPersistencepE19persist_certificate0B6_
FN:153,_RNCNvMNtCs9QvvabE0u1j_15nexus_consensus7persistINtB4_14DagPersistencepE20restore_certificates0B6_
FN:163,_RNCNvMNtCs9QvvabE0u1j_15nexus_consensus7persistINtB4_14DagPersistencepE20restore_certificatess0_0B6_
FN:158,_RNCNvMNtCs9QvvabE0u1j_15nexus_consensus7persistINtB4_14DagPersistencepE20restore_certificatess_0B6_
FN:114,_RNCNvMNtCs9QvvabE0u1j_15nexus_consensus7persistINtB4_14DagPersistencepE24delete_certificates_sync0B6_
FN:91,_RNCNvMNtCs9QvvabE0u1j_15nexus_consensus7persistINtB4_14DagPersistencepE24persist_certificate_sync0B6_
FN:95,_RNCNvMNtCs9QvvabE0u1j_15nexus_consensus7persistINtB4_14DagPersistencepE24persist_certificate_syncs_0B6_
FN:172,_RNvMNtCs9QvvabE0u1j_15nexus_consensus7persistINtB2_14DagPersistencepE14purge_by_epochB4_
FN:126,_RNvMNtCs9QvvabE0u1j_15nexus_consensus7persistINtB2_14DagPersistencepE19delete_certificatesB4_
FN:75,_RNvMNtCs9QvvabE0u1j_15nexus_consensus7persistINtB2_14DagPersistencepE19persist_certificateB4_
FN:145,_RNvMNtCs9QvvabE0u1j_15nexus_consensus7persistINtB2_14DagPersistencepE20restore_certificatesB4_
FN:104,_RNvMNtCs9QvvabE0u1j_15nexus_consensus7persistINtB2_14DagPersistencepE24delete_certificates_syncB4_
FN:89,_RNvMNtCs9QvvabE0u1j_15nexus_consensus7persistINtB2_14DagPersistencepE24persist_certificate_syncB4_
FN:67,_RNvMNtCs9QvvabE0u1j_15nexus_consensus7persistINtB2_14DagPersistencepE3newB4_
FN:202,_RNvMNtCs9QvvabE0u1j_15nexus_consensus7persistINtB2_14DagPersistencepE5storeB4_
FN:214,_RNvXININtCs9QvvabE0u1j_15nexus_consensus7persists_0pEINtB5_14DagPersistencepENtB5_14DagPersistSync11delete_syncB7_
FN:210,_RNvXININtCs9QvvabE0u1j_15nexus_consensus7persists_0pEINtB5_14DagPersistencepENtB5_14DagPersistSync12persist_syncB7_
FN:218,_RNvXININtCs9QvvabE0u1j_15nexus_consensus7persists_0pEINtB5_14DagPersistencepENtB5_14DagPersistSync14purge_by_epochB7_
FN:214,_RNvXININtCs6zOrHhYlc8W_15nexus_consensus7persists_0pEINtB5_14DagPersistencepENtB5_14DagPersistSync11delete_syncB7_
FN:210,_RNvXININtCs6zOrHhYlc8W_15nexus_consensus7persists_0pEINtB5_14DagPersistencepENtB5_14DagPersistSync12persist_syncB7_
FN:218,_RNvXININtCs6zOrHhYlc8W_15nexus_consensus7persists_0pEINtB5_14DagPersistencepENtB5_14DagPersistSync14purge_by_epochB7_
FN:322,_RNCNvNtNtCs6zOrHhYlc8W_15nexus_consensus7persist5testss_22persist_sync_roundtrip0B7_
FN:294,_RNCNvNtNtCs6zOrHhYlc8W_15nexus_consensus7persist5testss_22restore_empty_database0B7_
FN:335,_RNCNvNtNtCs6zOrHhYlc8W_15nexus_consensus7persist5testss_26delete_empty_slice_is_noop0B7_
FN:270,_RNCNvNtNtCs6zOrHhYlc8W_15nexus_consensus7persist5testss_29persist_and_restore_roundtrip0B7_
FN:411,_RNCNvNtNtCs6zOrHhYlc8W_15nexus_consensus7persist5testss_34store_accessor_returns_inner_store0B7_
FN:392,_RNCNvNtNtCs6zOrHhYlc8W_15nexus_consensus7persist5testss_36purge_by_epoch_no_match_returns_zero0B7_
FN:367,_RNCNvNtNtCs6zOrHhYlc8W_15nexus_consensus7persist5testss_37purge_by_epoch_removes_matching_certs0B7_
FN:302,_RNCNvNtNtCs6zOrHhYlc8W_15nexus_consensus7persist5testss_38delete_certificates_removes_from_store0B7_
FN:249,_RNvNtNtCs6zOrHhYlc8W_15nexus_consensus7persist5tests14make_test_cert
FN:346,_RNvNtNtCs6zOrHhYlc8W_15nexus_consensus7persist5tests19make_cert_for_epoch
FN:322,_RNvNtNtCs6zOrHhYlc8W_15nexus_consensus7persist5testss_22persist_sync_roundtrip
FN:294,_RNvNtNtCs6zOrHhYlc8W_15nexus_consensus7persist5testss_22restore_empty_database
FN:335,_RNvNtNtCs6zOrHhYlc8W_15nexus_consensus7persist5testss_26delete_empty_slice_is_noop
FN:270,_RNvNtNtCs6zOrHhYlc8W_15nexus_consensus7persist5testss_29persist_and_restore_roundtrip
FN:411,_RNvNtNtCs6zOrHhYlc8W_15nexus_consensus7persist5testss_34store_accessor_returns_inner_store
FN:392,_RNvNtNtCs6zOrHhYlc8W_15nexus_consensus7persist5testss_36purge_by_epoch_no_match_returns_zero
FN:367,_RNvNtNtCs6zOrHhYlc8W_15nexus_consensus7persist5testss_37purge_by_epoch_removes_matching_certs
FN:302,_RNvNtNtCs6zOrHhYlc8W_15nexus_consensus7persist5testss_38delete_certificates_removes_from_store
FN:119,_RNCNCNCNvMNtCs6zOrHhYlc8W_15nexus_consensus7persistINtB8_14DagPersistenceNtNtCs5pVniBmGZYN_13nexus_storage6memory11MemoryStoreE24delete_certificates_sync000Ba_
FN:137,_RNCNCNvMNtCs6zOrHhYlc8W_15nexus_consensus7persistINtB6_14DagPersistenceNtNtCs5pVniBmGZYN_13nexus_storage6memory11MemoryStoreE19delete_certificates00B8_
FN:77,_RNCNCNvMNtCs6zOrHhYlc8W_15nexus_consensus7persistINtB6_14DagPersistenceNtNtCs5pVniBmGZYN_13nexus_storage6memory11MemoryStoreE19persist_certificate00B8_
FN:84,_RNCNCNvMNtCs6zOrHhYlc8W_15nexus_consensus7persistINtB6_14DagPersistenceNtNtCs5pVniBmGZYN_13nexus_storage6memory11MemoryStoreE19persist_certificate0s_0B8_
FN:115,_RNCNCNvMNtCs6zOrHhYlc8W_15nexus_consensus7persistINtB6_14DagPersistenceNtNtCs5pVniBmGZYN_13nexus_storage6memory11MemoryStoreE24delete_certificates_sync00B8_
FN:181,_RNCNvMNtCs6zOrHhYlc8W_15nexus_consensus7persistINtB4_14DagPersistenceNtNtCs5pVniBmGZYN_13nexus_storage6memory11MemoryStoreE14purge_by_epoch0B6_
FN:186,_RNCNvMNtCs6zOrHhYlc8W_15nexus_consensus7persistINtB4_14DagPersistenceNtNtCs5pVniBmGZYN_13nexus_storage6memory11MemoryStoreE14purge_by_epochs_0B6_
FN:126,_RNCNvMNtCs6zOrHhYlc8W_15nexus_consensus7persistINtB4_14DagPersistenceNtNtCs5pVniBmGZYN_13nexus_storage6memory11MemoryStoreE19delete_certificates0B6_
FN:75,_RNCNvMNtCs6zOrHhYlc8W_15nexus_consensus7persistINtB4_14DagPersistenceNtNtCs5pVniBmGZYN_13nexus_storage6memory11MemoryStoreE19persist_certificate0B6_
FN:153,_RNCNvMNtCs6zOrHhYlc8W_15nexus_consensus7persistINtB4_14DagPersistenceNtNtCs5pVniBmGZYN_13nexus_storage6memory11MemoryStoreE20restore_certificates0B6_
FN:163,_RNCNvMNtCs6zOrHhYlc8W_15nexus_consensus7persistINtB4_14DagPersistenceNtNtCs5pVniBmGZYN_13nexus_storage6memory11MemoryStoreE20restore_certificatess0_0B6_
FN:158,_RNCNvMNtCs6zOrHhYlc8W_15nexus_consensus7persistINtB4_14DagPersistenceNtNtCs5pVniBmGZYN_13nexus_storage6memory11MemoryStoreE20restore_certificatess_0B6_
FN:114,_RNCNvMNtCs6zOrHhYlc8W_15nexus_consensus7persistINtB4_14DagPersistenceNtNtCs5pVniBmGZYN_13nexus_storage6memory11MemoryStoreE24delete_certificates_sync0B6_
FN:91,_RNCNvMNtCs6zOrHhYlc8W_15nexus_consensus7persistINtB4_14DagPersistenceNtNtCs5pVniBmGZYN_13nexus_storage6memory11MemoryStoreE24persist_certificate_sync0B6_
FN:95,_RNCNvMNtCs6zOrHhYlc8W_15nexus_consensus7persistINtB4_14DagPersistenceNtNtCs5pVniBmGZYN_13nexus_storage6memory11MemoryStoreE24persist_certificate_syncs_0B6_
FN:172,_RNvMNtCs6zOrHhYlc8W_15nexus_consensus7persistINtB2_14DagPersistenceNtNtCs5pVniBmGZYN_13nexus_storage6memory11MemoryStoreE14purge_by_epochB4_
FN:126,_RNvMNtCs6zOrHhYlc8W_15nexus_consensus7persistINtB2_14DagPersistenceNtNtCs5pVniBmGZYN_13nexus_storage6memory11MemoryStoreE19delete_certificatesB4_
FN:75,_RNvMNtCs6zOrHhYlc8W_15nexus_consensus7persistINtB2_14DagPersistenceNtNtCs5pVniBmGZYN_13nexus_storage6memory11MemoryStoreE19persist_certificateB4_
FN:145,_RNvMNtCs6zOrHhYlc8W_15nexus_consensus7persistINtB2_14DagPersistenceNtNtCs5pVniBmGZYN_13nexus_storage6memory11MemoryStoreE20restore_certificatesB4_
FN:104,_RNvMNtCs6zOrHhYlc8W_15nexus_consensus7persistINtB2_14DagPersistenceNtNtCs5pVniBmGZYN_13nexus_storage6memory11MemoryStoreE24delete_certificates_syncB4_
FN:89,_RNvMNtCs6zOrHhYlc8W_15nexus_consensus7persistINtB2_14DagPersistenceNtNtCs5pVniBmGZYN_13nexus_storage6memory11MemoryStoreE24persist_certificate_syncB4_
FN:67,_RNvMNtCs6zOrHhYlc8W_15nexus_consensus7persistINtB2_14DagPersistenceNtNtCs5pVniBmGZYN_13nexus_storage6memory11MemoryStoreE3newB4_
FN:202,_RNvMNtCs6zOrHhYlc8W_15nexus_consensus7persistINtB2_14DagPersistenceNtNtCs5pVniBmGZYN_13nexus_storage6memory11MemoryStoreE5storeB4_
FN:119,_RNCNCNCNvMNtCs9QvvabE0u1j_15nexus_consensus7persistINtB8_14DagPersistenceNtNtCs5pVniBmGZYN_13nexus_storage6memory11MemoryStoreE24delete_certificates_sync000Cs2jSKwtTFQO2_16nexus_test_utils
FN:77,_RNCNCNvMNtCs9QvvabE0u1j_15nexus_consensus7persistINtB6_14DagPersistenceNtNtCs5pVniBmGZYN_13nexus_storage6memory11MemoryStoreE19persist_certificate00Cs2jSKwtTFQO2_16nexus_test_utils
FN:84,_RNCNCNvMNtCs9QvvabE0u1j_15nexus_consensus7persistINtB6_14DagPersistenceNtNtCs5pVniBmGZYN_13nexus_storage6memory11MemoryStoreE19persist_certificate0s_0Cs2jSKwtTFQO2_16nexus_test_utils
FN:115,_RNCNCNvMNtCs9QvvabE0u1j_15nexus_consensus7persistINtB6_14DagPersistenceNtNtCs5pVniBmGZYN_13nexus_storage6memory11MemoryStoreE24delete_certificates_sync00Cs2jSKwtTFQO2_16nexus_test_utils
FN:181,_RNCNvMNtCs9QvvabE0u1j_15nexus_consensus7persistINtB4_14DagPersistenceNtNtCs5pVniBmGZYN_13nexus_storage6memory11MemoryStoreE14purge_by_epoch0Cs2jSKwtTFQO2_16nexus_test_utils
FN:186,_RNCNvMNtCs9QvvabE0u1j_15nexus_consensus7persistINtB4_14DagPersistenceNtNtCs5pVniBmGZYN_13nexus_storage6memory11MemoryStoreE14purge_by_epochs_0Cs2jSKwtTFQO2_16nexus_test_utils
FN:75,_RNCNvMNtCs9QvvabE0u1j_15nexus_consensus7persistINtB4_14DagPersistenceNtNtCs5pVniBmGZYN_13nexus_storage6memory11MemoryStoreE19persist_certificate0Cs2jSKwtTFQO2_16nexus_test_utils
FN:153,_RNCNvMNtCs9QvvabE0u1j_15nexus_consensus7persistINtB4_14DagPersistenceNtNtCs5pVniBmGZYN_13nexus_storage6memory11MemoryStoreE20restore_certificates0Cs2jSKwtTFQO2_16nexus_test_utils
FN:163,_RNCNvMNtCs9QvvabE0u1j_15nexus_consensus7persistINtB4_14DagPersistenceNtNtCs5pVniBmGZYN_13nexus_storage6memory11MemoryStoreE20restore_certificatess0_0Cs2jSKwtTFQO2_16nexus_test_utils
FN:158,_RNCNvMNtCs9QvvabE0u1j_15nexus_consensus7persistINtB4_14DagPersistenceNtNtCs5pVniBmGZYN_13nexus_storage6memory11MemoryStoreE20restore_certificatess_0Cs2jSKwtTFQO2_16nexus_test_utils
FN:114,_RNCNvMNtCs9QvvabE0u1j_15nexus_consensus7persistINtB4_14DagPersistenceNtNtCs5pVniBmGZYN_13nexus_storage6memory11MemoryStoreE24delete_certificates_sync0Cs2jSKwtTFQO2_16nexus_test_utils
FN:91,_RNCNvMNtCs9QvvabE0u1j_15nexus_consensus7persistINtB4_14DagPersistenceNtNtCs5pVniBmGZYN_13nexus_storage6memory11MemoryStoreE24persist_certificate_sync0Cs2jSKwtTFQO2_16nexus_test_utils
FN:95,_RNCNvMNtCs9QvvabE0u1j_15nexus_consensus7persistINtB4_14DagPersistenceNtNtCs5pVniBmGZYN_13nexus_storage6memory11MemoryStoreE24persist_certificate_syncs_0Cs2jSKwtTFQO2_16nexus_test_utils
FN:172,_RNvMNtCs9QvvabE0u1j_15nexus_consensus7persistINtB2_14DagPersistenceNtNtCs5pVniBmGZYN_13nexus_storage6memory11MemoryStoreE14purge_by_epochCs2jSKwtTFQO2_16nexus_test_utils
FN:75,_RNvMNtCs9QvvabE0u1j_15nexus_consensus7persistINtB2_14DagPersistenceNtNtCs5pVniBmGZYN_13nexus_storage6memory11MemoryStoreE19persist_certificateCs2jSKwtTFQO2_16nexus_test_utils
FN:145,_RNvMNtCs9QvvabE0u1j_15nexus_consensus7persistINtB2_14DagPersistenceNtNtCs5pVniBmGZYN_13nexus_storage6memory11MemoryStoreE20restore_certificatesCs2jSKwtTFQO2_16nexus_test_utils
FN:104,_RNvMNtCs9QvvabE0u1j_15nexus_consensus7persistINtB2_14DagPersistenceNtNtCs5pVniBmGZYN_13nexus_storage6memory11MemoryStoreE24delete_certificates_syncCs2jSKwtTFQO2_16nexus_test_utils
FN:89,_RNvMNtCs9QvvabE0u1j_15nexus_consensus7persistINtB2_14DagPersistenceNtNtCs5pVniBmGZYN_13nexus_storage6memory11MemoryStoreE24persist_certificate_syncCs2jSKwtTFQO2_16nexus_test_utils
FN:67,_RNvMNtCs9QvvabE0u1j_15nexus_consensus7persistINtB2_14DagPersistenceNtNtCs5pVniBmGZYN_13nexus_storage6memory11MemoryStoreE3newCs2jSKwtTFQO2_16nexus_test_utils
FN:214,_RNvXs_NtCs9QvvabE0u1j_15nexus_consensus7persistINtB4_14DagPersistenceNtNtCs5pVniBmGZYN_13nexus_storage6memory11MemoryStoreENtB4_14DagPersistSync11delete_syncCs2jSKwtTFQO2_16nexus_test_utils
FN:210,_RNvXs_NtCs9QvvabE0u1j_15nexus_consensus7persistINtB4_14DagPersistenceNtNtCs5pVniBmGZYN_13nexus_storage6memory11MemoryStoreENtB4_14DagPersistSync12persist_syncCs2jSKwtTFQO2_16nexus_test_utils
FN:218,_RNvXs_NtCs9QvvabE0u1j_15nexus_consensus7persistINtB4_14DagPersistenceNtNtCs5pVniBmGZYN_13nexus_storage6memory11MemoryStoreENtB4_14DagPersistSync14purge_by_epochCs2jSKwtTFQO2_16nexus_test_utils
FNDA:0,_RNCNCNCNvMNtCs9QvvabE0u1j_15nexus_consensus7persistINtB8_14DagPersistencepE24delete_certificates_sync000Ba_
FNDA:0,_RNCNCNvMNtCs9QvvabE0u1j_15nexus_consensus7persistINtB6_14DagPersistencepE19delete_certificates00B8_
FNDA:0,_RNCNCNvMNtCs9QvvabE0u1j_15nexus_consensus7persistINtB6_14DagPersistencepE19persist_certificate00B8_
FNDA:0,_RNCNCNvMNtCs9QvvabE0u1j_15nexus_consensus7persistINtB6_14DagPersistencepE19persist_certificate0s_0B8_
FNDA:0,_RNCNCNvMNtCs9QvvabE0u1j_15nexus_consensus7persistINtB6_14DagPersistencepE24delete_certificates_sync00B8_
FNDA:0,_RNCNvMNtCs9QvvabE0u1j_15nexus_consensus7persistINtB4_14DagPersistencepE14purge_by_epoch0B6_
FNDA:0,_RNCNvMNtCs9QvvabE0u1j_15nexus_consensus7persistINtB4_14DagPersistencepE14purge_by_epochs_0B6_
FNDA:0,_RNCNvMNtCs9QvvabE0u1j_15nexus_consensus7persistINtB4_14DagPersistencepE19delete_certificates0B6_
FNDA:0,_RNCNvMNtCs9QvvabE0u1j_15nexus_consensus7persistINtB4_14DagPersistencepE19persist_certificate0B6_
FNDA:0,_RNCNvMNtCs9QvvabE0u1j_15nexus_consensus7persistINtB4_14DagPersistencepE20restore_certificates0B6_
FNDA:0,_RNCNvMNtCs9QvvabE0u1j_15nexus_consensus7persistINtB4_14DagPersistencepE20restore_certificatess0_0B6_
FNDA:0,_RNCNvMNtCs9QvvabE0u1j_15nexus_consensus7persistINtB4_14DagPersistencepE20restore_certificatess_0B6_
FNDA:0,_RNCNvMNtCs9QvvabE0u1j_15nexus_consensus7persistINtB4_14DagPersistencepE24delete_certificates_sync0B6_
FNDA:0,_RNCNvMNtCs9QvvabE0u1j_15nexus_consensus7persistINtB4_14DagPersistencepE24persist_certificate_sync0B6_
FNDA:0,_RNCNvMNtCs9QvvabE0u1j_15nexus_consensus7persistINtB4_14DagPersistencepE24persist_certificate_syncs_0B6_
FNDA:0,_RNvMNtCs9QvvabE0u1j_15nexus_consensus7persistINtB2_14DagPersistencepE14purge_by_epochB4_
FNDA:0,_RNvMNtCs9QvvabE0u1j_15nexus_consensus7persistINtB2_14DagPersistencepE19delete_certificatesB4_
FNDA:0,_RNvMNtCs9QvvabE0u1j_15nexus_consensus7persistINtB2_14DagPersistencepE19persist_certificateB4_
FNDA:0,_RNvMNtCs9QvvabE0u1j_15nexus_consensus7persistINtB2_14DagPersistencepE20restore_certificatesB4_
FNDA:0,_RNvMNtCs9QvvabE0u1j_15nexus_consensus7persistINtB2_14DagPersistencepE24delete_certificates_syncB4_
FNDA:0,_RNvMNtCs9QvvabE0u1j_15nexus_consensus7persistINtB2_14DagPersistencepE24persist_certificate_syncB4_
FNDA:0,_RNvMNtCs9QvvabE0u1j_15nexus_consensus7persistINtB2_14DagPersistencepE3newB4_
FNDA:0,_RNvMNtCs9QvvabE0u1j_15nexus_consensus7persistINtB2_14DagPersistencepE5storeB4_
FNDA:0,_RNvXININtCs9QvvabE0u1j_15nexus_consensus7persists_0pEINtB5_14DagPersistencepENtB5_14DagPersistSync11delete_syncB7_
FNDA:0,_RNvXININtCs9QvvabE0u1j_15nexus_consensus7persists_0pEINtB5_14DagPersistencepENtB5_14DagPersistSync12persist_syncB7_
FNDA:0,_RNvXININtCs9QvvabE0u1j_15nexus_consensus7persists_0pEINtB5_14DagPersistencepENtB5_14DagPersistSync14purge_by_epochB7_
FNDA:0,_RNvXININtCs6zOrHhYlc8W_15nexus_consensus7persists_0pEINtB5_14DagPersistencepENtB5_14DagPersistSync11delete_syncB7_
FNDA:0,_RNvXININtCs6zOrHhYlc8W_15nexus_consensus7persists_0pEINtB5_14DagPersistencepENtB5_14DagPersistSync12persist_syncB7_
FNDA:0,_RNvXININtCs6zOrHhYlc8W_15nexus_consensus7persists_0pEINtB5_14DagPersistencepENtB5_14DagPersistSync14purge_by_epochB7_
FNDA:17,_RNCNvNtNtCs6zOrHhYlc8W_15nexus_consensus7persist5testss_22persist_sync_roundtrip0B7_
FNDA:17,_RNCNvNtNtCs6zOrHhYlc8W_15nexus_consensus7persist5testss_22restore_empty_database0B7_
FNDA:3,_RNCNvNtNtCs6zOrHhYlc8W_15nexus_consensus7persist5testss_26delete_empty_slice_is_noop0B7_
FNDA:17,_RNCNvNtNtCs6zOrHhYlc8W_15nexus_consensus7persist5testss_29persist_and_restore_roundtrip0B7_
FNDA:3,_RNCNvNtNtCs6zOrHhYlc8W_15nexus_consensus7persist5testss_34store_accessor_returns_inner_store0B7_
FNDA:3,_RNCNvNtNtCs6zOrHhYlc8W_15nexus_consensus7persist5testss_36purge_by_epoch_no_match_returns_zero0B7_
FNDA:3,_RNCNvNtNtCs6zOrHhYlc8W_15nexus_consensus7persist5testss_37purge_by_epoch_removes_matching_certs0B7_
FNDA:17,_RNCNvNtNtCs6zOrHhYlc8W_15nexus_consensus7persist5testss_38delete_certificates_removes_from_store0B7_
FNDA:102,_RNvNtNtCs6zOrHhYlc8W_15nexus_consensus7persist5tests14make_test_cert
FNDA:12,_RNvNtNtCs6zOrHhYlc8W_15nexus_consensus7persist5tests19make_cert_for_epoch
FNDA:17,_RNvNtNtCs6zOrHhYlc8W_15nexus_consensus7persist5testss_22persist_sync_roundtrip
FNDA:17,_RNvNtNtCs6zOrHhYlc8W_15nexus_consensus7persist5testss_22restore_empty_database
FNDA:3,_RNvNtNtCs6zOrHhYlc8W_15nexus_consensus7persist5testss_26delete_empty_slice_is_noop
FNDA:17,_RNvNtNtCs6zOrHhYlc8W_15nexus_consensus7persist5testss_29persist_and_restore_roundtrip
FNDA:3,_RNvNtNtCs6zOrHhYlc8W_15nexus_consensus7persist5testss_34store_accessor_returns_inner_store
FNDA:3,_RNvNtNtCs6zOrHhYlc8W_15nexus_consensus7persist5testss_36purge_by_epoch_no_match_returns_zero
FNDA:3,_RNvNtNtCs6zOrHhYlc8W_15nexus_consensus7persist5testss_37purge_by_epoch_removes_matching_certs
FNDA:17,_RNvNtNtCs6zOrHhYlc8W_15nexus_consensus7persist5testss_38delete_certificates_removes_from_store
FNDA:0,_RNCNCNCNvMNtCs6zOrHhYlc8W_15nexus_consensus7persistINtB8_14DagPersistenceNtNtCs5pVniBmGZYN_13nexus_storage6memory11MemoryStoreE24delete_certificates_sync000Ba_
FNDA:0,_RNCNCNvMNtCs6zOrHhYlc8W_15nexus_consensus7persistINtB6_14DagPersistenceNtNtCs5pVniBmGZYN_13nexus_storage6memory11MemoryStoreE19delete_certificates00B8_
FNDA:0,_RNCNCNvMNtCs6zOrHhYlc8W_15nexus_consensus7persistINtB6_14DagPersistenceNtNtCs5pVniBmGZYN_13nexus_storage6memory11MemoryStoreE19persist_certificate00B8_
FNDA:0,_RNCNCNvMNtCs6zOrHhYlc8W_15nexus_consensus7persistINtB6_14DagPersistenceNtNtCs5pVniBmGZYN_13nexus_storage6memory11MemoryStoreE19persist_certificate0s_0B8_
FNDA:3,_RNCNCNvMNtCs6zOrHhYlc8W_15nexus_consensus7persistINtB6_14DagPersistenceNtNtCs5pVniBmGZYN_13nexus_storage6memory11MemoryStoreE24delete_certificates_sync00B8_
FNDA:0,_RNCNvMNtCs6zOrHhYlc8W_15nexus_consensus7persistINtB4_14DagPersistenceNtNtCs5pVniBmGZYN_13nexus_storage6memory11MemoryStoreE14purge_by_epoch0B6_
FNDA:0,_RNCNvMNtCs6zOrHhYlc8W_15nexus_consensus7persistINtB4_14DagPersistenceNtNtCs5pVniBmGZYN_13nexus_storage6memory11MemoryStoreE14purge_by_epochs_0B6_
FNDA:20,_RNCNvMNtCs6zOrHhYlc8W_15nexus_consensus7persistINtB4_14DagPersistenceNtNtCs5pVniBmGZYN_13nexus_storage6memory11MemoryStoreE19delete_certificates0B6_
FNDA:97,_RNCNvMNtCs6zOrHhYlc8W_15nexus_consensus7persistINtB4_14DagPersistenceNtNtCs5pVniBmGZYN_13nexus_storage6memory11MemoryStoreE19persist_certificate0B6_
FNDA:0,_RNCNvMNtCs6zOrHhYlc8W_15nexus_consensus7persistINtB4_14DagPersistenceNtNtCs5pVniBmGZYN_13nexus_storage6memory11MemoryStoreE20restore_certificates0B6_
FNDA:68,_RNCNvMNtCs6zOrHhYlc8W_15nexus_consensus7persistINtB4_14DagPersistenceNtNtCs5pVniBmGZYN_13nexus_storage6memory11MemoryStoreE20restore_certificatess0_0B6_
FNDA:0,_RNCNvMNtCs6zOrHhYlc8W_15nexus_consensus7persistINtB4_14DagPersistenceNtNtCs5pVniBmGZYN_13nexus_storage6memory11MemoryStoreE20restore_certificatess_0B6_
FNDA:3,_RNCNvMNtCs6zOrHhYlc8W_15nexus_consensus7persistINtB4_14DagPersistenceNtNtCs5pVniBmGZYN_13nexus_storage6memory11MemoryStoreE24delete_certificates_sync0B6_
FNDA:0,_RNCNvMNtCs6zOrHhYlc8W_15nexus_consensus7persistINtB4_14DagPersistenceNtNtCs5pVniBmGZYN_13nexus_storage6memory11MemoryStoreE24persist_certificate_sync0B6_
FNDA:0,_RNCNvMNtCs6zOrHhYlc8W_15nexus_consensus7persistINtB4_14DagPersistenceNtNtCs5pVniBmGZYN_13nexus_storage6memory11MemoryStoreE24persist_certificate_syncs_0B6_
FNDA:6,_RNvMNtCs6zOrHhYlc8W_15nexus_consensus7persistINtB2_14DagPersistenceNtNtCs5pVniBmGZYN_13nexus_storage6memory11MemoryStoreE14purge_by_epochB4_
FNDA:20,_RNvMNtCs6zOrHhYlc8W_15nexus_consensus7persistINtB2_14DagPersistenceNtNtCs5pVniBmGZYN_13nexus_storage6memory11MemoryStoreE19delete_certificatesB4_
FNDA:97,_RNvMNtCs6zOrHhYlc8W_15nexus_consensus7persistINtB2_14DagPersistenceNtNtCs5pVniBmGZYN_13nexus_storage6memory11MemoryStoreE19persist_certificateB4_
FNDA:74,_RNvMNtCs6zOrHhYlc8W_15nexus_consensus7persistINtB2_14DagPersistenceNtNtCs5pVniBmGZYN_13nexus_storage6memory11MemoryStoreE20restore_certificatesB4_
FNDA:6,_RNvMNtCs6zOrHhYlc8W_15nexus_consensus7persistINtB2_14DagPersistenceNtNtCs5pVniBmGZYN_13nexus_storage6memory11MemoryStoreE24delete_certificates_syncB4_
FNDA:17,_RNvMNtCs6zOrHhYlc8W_15nexus_consensus7persistINtB2_14DagPersistenceNtNtCs5pVniBmGZYN_13nexus_storage6memory11MemoryStoreE24persist_certificate_syncB4_
FNDA:80,_RNvMNtCs6zOrHhYlc8W_15nexus_consensus7persistINtB2_14DagPersistenceNtNtCs5pVniBmGZYN_13nexus_storage6memory11MemoryStoreE3newB4_
FNDA:3,_RNvMNtCs6zOrHhYlc8W_15nexus_consensus7persistINtB2_14DagPersistenceNtNtCs5pVniBmGZYN_13nexus_storage6memory11MemoryStoreE5storeB4_
FNDA:0,_RNCNCNCNvMNtCs9QvvabE0u1j_15nexus_consensus7persistINtB8_14DagPersistenceNtNtCs5pVniBmGZYN_13nexus_storage6memory11MemoryStoreE24delete_certificates_sync000Cs2jSKwtTFQO2_16nexus_test_utils
FNDA:0,_RNCNCNvMNtCs9QvvabE0u1j_15nexus_consensus7persistINtB6_14DagPersistenceNtNtCs5pVniBmGZYN_13nexus_storage6memory11MemoryStoreE19persist_certificate00Cs2jSKwtTFQO2_16nexus_test_utils
FNDA:0,_RNCNCNvMNtCs9QvvabE0u1j_15nexus_consensus7persistINtB6_14DagPersistenceNtNtCs5pVniBmGZYN_13nexus_storage6memory11MemoryStoreE19persist_certificate0s_0Cs2jSKwtTFQO2_16nexus_test_utils
FNDA:42,_RNCNCNvMNtCs9QvvabE0u1j_15nexus_consensus7persistINtB6_14DagPersistenceNtNtCs5pVniBmGZYN_13nexus_storage6memory11MemoryStoreE24delete_certificates_sync00Cs2jSKwtTFQO2_16nexus_test_utils
FNDA:0,_RNCNvMNtCs9QvvabE0u1j_15nexus_consensus7persistINtB4_14DagPersistenceNtNtCs5pVniBmGZYN_13nexus_storage6memory11MemoryStoreE14purge_by_epoch0Cs2jSKwtTFQO2_16nexus_test_utils
FNDA:0,_RNCNvMNtCs9QvvabE0u1j_15nexus_consensus7persistINtB4_14DagPersistenceNtNtCs5pVniBmGZYN_13nexus_storage6memory11MemoryStoreE14purge_by_epochs_0Cs2jSKwtTFQO2_16nexus_test_utils
FNDA:224,_RNCNvMNtCs9QvvabE0u1j_15nexus_consensus7persistINtB4_14DagPersistenceNtNtCs5pVniBmGZYN_13nexus_storage6memory11MemoryStoreE19persist_certificate0Cs2jSKwtTFQO2_16nexus_test_utils
FNDA:0,_RNCNvMNtCs9QvvabE0u1j_15nexus_consensus7persistINtB4_14DagPersistenceNtNtCs5pVniBmGZYN_13nexus_storage6memory11MemoryStoreE20restore_certificates0Cs2jSKwtTFQO2_16nexus_test_utils
FNDA:3444,_RNCNvMNtCs9QvvabE0u1j_15nexus_consensus7persistINtB4_14DagPersistenceNtNtCs5pVniBmGZYN_13nexus_storage6memory11MemoryStoreE20restore_certificatess0_0Cs2jSKwtTFQO2_16nexus_test_utils
FNDA:0,_RNCNvMNtCs9QvvabE0u1j_15nexus_consensus7persistINtB4_14DagPersistenceNtNtCs5pVniBmGZYN_13nexus_storage6memory11MemoryStoreE20restore_certificatess_0Cs2jSKwtTFQO2_16nexus_test_utils
FNDA:42,_RNCNvMNtCs9QvvabE0u1j_15nexus_consensus7persistINtB4_14DagPersistenceNtNtCs5pVniBmGZYN_13nexus_storage6memory11MemoryStoreE24delete_certificates_sync0Cs2jSKwtTFQO2_16nexus_test_utils
FNDA:0,_RNCNvMNtCs9QvvabE0u1j_15nexus_consensus7persistINtB4_14DagPersistenceNtNtCs5pVniBmGZYN_13nexus_storage6memory11MemoryStoreE24persist_certificate_sync0Cs2jSKwtTFQO2_16nexus_test_utils
FNDA:0,_RNCNvMNtCs9QvvabE0u1j_15nexus_consensus7persistINtB4_14DagPersistenceNtNtCs5pVniBmGZYN_13nexus_storage6memory11MemoryStoreE24persist_certificate_syncs_0Cs2jSKwtTFQO2_16nexus_test_utils
FNDA:56,_RNvMNtCs9QvvabE0u1j_15nexus_consensus7persistINtB2_14DagPersistenceNtNtCs5pVniBmGZYN_13nexus_storage6memory11MemoryStoreE14purge_by_epochCs2jSKwtTFQO2_16nexus_test_utils
FNDA:224,_RNvMNtCs9QvvabE0u1j_15nexus_consensus7persistINtB2_14DagPersistenceNtNtCs5pVniBmGZYN_13nexus_storage6memory11MemoryStoreE19persist_certificateCs2jSKwtTFQO2_16nexus_test_utils
FNDA:182,_RNvMNtCs9QvvabE0u1j_15nexus_consensus7persistINtB2_14DagPersistenceNtNtCs5pVniBmGZYN_13nexus_storage6memory11MemoryStoreE20restore_certificatesCs2jSKwtTFQO2_16nexus_test_utils
FNDA:42,_RNvMNtCs9QvvabE0u1j_15nexus_consensus7persistINtB2_14DagPersistenceNtNtCs5pVniBmGZYN_13nexus_storage6memory11MemoryStoreE24delete_certificates_syncCs2jSKwtTFQO2_16nexus_test_utils
FNDA:812,_RNvMNtCs9QvvabE0u1j_15nexus_consensus7persistINtB2_14DagPersistenceNtNtCs5pVniBmGZYN_13nexus_storage6memory11MemoryStoreE24persist_certificate_syncCs2jSKwtTFQO2_16nexus_test_utils
FNDA:280,_RNvMNtCs9QvvabE0u1j_15nexus_consensus7persistINtB2_14DagPersistenceNtNtCs5pVniBmGZYN_13nexus_storage6memory11MemoryStoreE3newCs2jSKwtTFQO2_16nexus_test_utils
FNDA:0,_RNvXs_NtCs9QvvabE0u1j_15nexus_consensus7persistINtB4_14DagPersistenceNtNtCs5pVniBmGZYN_13nexus_storage6memory11MemoryStoreENtB4_14DagPersistSync11delete_syncCs2jSKwtTFQO2_16nexus_test_utils
FNDA:644,_RNvXs_NtCs9QvvabE0u1j_15nexus_consensus7persistINtB4_14DagPersistenceNtNtCs5pVniBmGZYN_13nexus_storage6memory11MemoryStoreENtB4_14DagPersistSync12persist_syncCs2jSKwtTFQO2_16nexus_test_utils
FNDA:28,_RNvXs_NtCs9QvvabE0u1j_15nexus_consensus7persistINtB4_14DagPersistenceNtNtCs5pVniBmGZYN_13nexus_storage6memory11MemoryStoreENtB4_14DagPersistSync14purge_by_epochCs2jSKwtTFQO2_16nexus_test_utils
FNF:44
FNH:33
DA:67,360
DA:68,360
DA:69,360
DA:75,321
DA:76,321
DA:77,321
DA:79,321
DA:80,321
DA:81,321
DA:82,321
DA:83,321
DA:84,321
DA:85,321
DA:86,321
DA:89,829
DA:90,829
DA:91,829
DA:93,829
DA:94,829
DA:95,829
DA:96,829
DA:97,829
DA:104,48
DA:105,48
DA:106,3
DA:107,45
DA:108,45
DA:109,191
DA:110,146
DA:111,146
DA:113,45
DA:114,45
DA:115,45
DA:116,45
DA:117,45
DA:118,45
DA:119,45
DA:120,45
DA:121,45
DA:122,45
DA:123,48
DA:126,20
DA:127,20
DA:128,3
DA:129,17
DA:130,17
DA:131,34
DA:132,17
DA:133,17
DA:134,17
DA:135,17
DA:136,17
DA:137,17
DA:138,17
DA:139,20
DA:145,256
DA:146,256
DA:147,256
DA:148,256
DA:149,256
DA:150,256
DA:151,256
DA:152,256
DA:153,256
DA:155,256
DA:156,1299
DA:157,1043
DA:158,1043
DA:159,1043
DA:163,3512
DA:164,256
DA:165,256
DA:172,62
DA:173,62
DA:174,62
DA:175,62
DA:176,62
DA:177,62
DA:178,62
DA:179,62
DA:180,62
DA:181,62
DA:183,62
DA:184,522
DA:185,460
DA:186,460
DA:187,460
DA:188,146
DA:189,146
DA:190,146
DA:191,314
DA:194,62
DA:195,62
DA:196,45
DA:197,17
DA:198,62
DA:199,62
DA:202,3
DA:203,3
DA:204,3
DA:210,644
DA:211,644
DA:212,644
DA:214,0
DA:215,0
DA:216,0
DA:218,28
DA:219,28
DA:220,28
DA:221,28
DA:222,28
DA:223,28
DA:249,102
DA:250,102
DA:251,102
DA:252,102
DA:253,102
DA:254,102
DA:255,102
DA:256,102
DA:257,102
DA:258,102
DA:259,102
DA:260,102
DA:261,102
DA:262,102
DA:263,102
DA:264,102
DA:265,102
DA:266,102
DA:267,102
DA:270,17
DA:271,17
DA:272,17
DA:273,17
DA:274,17
DA:275,17
DA:276,17
DA:277,17
DA:278,17
DA:279,17
DA:280,17
DA:281,17
DA:282,17
DA:283,17
DA:284,17
DA:285,17
DA:286,17
DA:287,17
DA:288,17
DA:289,17
DA:290,17
DA:291,17
DA:294,17
DA:295,17
DA:296,17
DA:297,17
DA:298,17
DA:299,17
DA:302,17
DA:303,17
DA:304,17
DA:305,17
DA:306,17
DA:307,17
DA:308,17
DA:309,17
DA:310,17
DA:311,17
DA:312,17
DA:313,17
DA:314,17
DA:315,17
DA:316,17
DA:317,17
DA:318,17
DA:319,17
DA:322,17
DA:323,17
DA:324,17
DA:325,17
DA:326,17
DA:327,17
DA:328,17
DA:329,17
DA:330,17
DA:331,17
DA:332,17
DA:335,3
DA:336,3
DA:337,3
DA:338,3
DA:339,3
DA:340,3
DA:341,3
DA:342,3
DA:343,3
DA:346,12
DA:347,12
DA:348,12
DA:349,12
DA:350,12
DA:351,12
DA:352,12
DA:353,12
DA:354,12
DA:355,12
DA:356,12
DA:357,12
DA:358,12
DA:359,12
DA:360,12
DA:361,12
DA:362,12
DA:363,12
DA:364,12
DA:367,3
DA:368,3
DA:369,3
DA:370,3
DA:371,3
DA:372,3
DA:373,3
DA:374,3
DA:375,3
DA:376,3
DA:377,3
DA:378,3
DA:379,3
DA:380,3
DA:381,3
DA:382,3
DA:383,3
DA:384,3
DA:385,3
DA:386,3
DA:387,3
DA:388,3
DA:389,3
DA:392,3
DA:393,3
DA:394,3
DA:395,3
DA:396,3
DA:397,3
DA:398,3
DA:399,3
DA:400,3
DA:401,3
DA:402,3
DA:403,3
DA:404,3
DA:405,3
DA:406,3
DA:407,3
DA:408,3
DA:411,3
DA:412,3
DA:413,3
DA:414,3
DA:415,3
DA:416,3
BRF:0
BRH:0
LF:379
LH:366
end_of_record
SF:/Users/VD/Vootaa_Projects/vootaa-labs@github/nexus-node/crates/nexus-consensus/src/shoal.rs
FN:130,_RNCNCNvMNtCs9QvvabE0u1j_15nexus_consensus5shoalNtB6_12ShoalOrderer13select_leaders_00B8_
FN:260,_RNCNCNvXs_NtCs9QvvabE0u1j_15nexus_consensus5shoalNtB8_12ShoalOrdererNtNtBa_6traits10BftOrderer25current_anchor_candidatess_00Ba_
FN:121,_RNCNvMNtCs9QvvabE0u1j_15nexus_consensus5shoalNtB4_12ShoalOrderer13select_leader0B6_
FN:137,_RNCNvMNtCs9QvvabE0u1j_15nexus_consensus5shoalNtB4_12ShoalOrderer13select_leaders0_0B6_
FN:130,_RNCNvMNtCs9QvvabE0u1j_15nexus_consensus5shoalNtB4_12ShoalOrderer13select_leaders_0B6_
FN:70,_RNCNvMNtCs9QvvabE0u1j_15nexus_consensus5shoalNtB4_12ShoalOrderer3new0B6_
FN:249,_RNCNvXs_NtCs9QvvabE0u1j_15nexus_consensus5shoalNtB6_12ShoalOrdererNtNtB8_6traits10BftOrderer25current_anchor_candidates0B8_
FN:261,_RNCNvXs_NtCs9QvvabE0u1j_15nexus_consensus5shoalNtB6_12ShoalOrdererNtNtB8_6traits10BftOrderer25current_anchor_candidatess0_0B8_
FN:260,_RNCNvXs_NtCs9QvvabE0u1j_15nexus_consensus5shoalNtB6_12ShoalOrdererNtNtB8_6traits10BftOrderer25current_anchor_candidatess_0B8_
FN:89,_RNvMNtCs9QvvabE0u1j_15nexus_consensus5shoalNtB2_12ShoalOrderer12commit_count
FN:112,_RNvMNtCs9QvvabE0u1j_15nexus_consensus5shoalNtB2_12ShoalOrderer13select_leader
FN:94,_RNvMNtCs9QvvabE0u1j_15nexus_consensus5shoalNtB2_12ShoalOrderer17committed_anchors
FN:99,_RNvMNtCs9QvvabE0u1j_15nexus_consensus5shoalNtB2_12ShoalOrderer17next_anchor_round
FN:147,_RNvMNtCs9QvvabE0u1j_15nexus_consensus5shoalNtB2_12ShoalOrderer18latency_to_quality
FN:103,_RNvMNtCs9QvvabE0u1j_15nexus_consensus5shoalNtB2_12ShoalOrderer20advance_anchor_round
FN:84,_RNvMNtCs9QvvabE0u1j_15nexus_consensus5shoalNtB2_12ShoalOrderer20last_committed_round
FN:67,_RNvMNtCs9QvvabE0u1j_15nexus_consensus5shoalNtB2_12ShoalOrderer3new
FN:159,_RNvXs_NtCs9QvvabE0u1j_15nexus_consensus5shoalNtB4_12ShoalOrdererNtNtB6_6traits10BftOrderer10try_commit
FN:230,_RNvXs_NtCs9QvvabE0u1j_15nexus_consensus5shoalNtB4_12ShoalOrdererNtNtB6_6traits10BftOrderer17update_reputation
FN:245,_RNvXs_NtCs9QvvabE0u1j_15nexus_consensus5shoalNtB4_12ShoalOrdererNtNtB6_6traits10BftOrderer25current_anchor_candidates
FN:84,_RNvMNtCs6zOrHhYlc8W_15nexus_consensus5shoalNtB2_12ShoalOrderer20last_committed_round
FN:89,_RNvMNtCs6zOrHhYlc8W_15nexus_consensus5shoalNtB2_12ShoalOrderer12commit_count
FN:112,_RNvMNtCs6zOrHhYlc8W_15nexus_consensus5shoalNtB2_12ShoalOrderer13select_leader
FN:94,_RNvMNtCs6zOrHhYlc8W_15nexus_consensus5shoalNtB2_12ShoalOrderer17committed_anchors
FN:99,_RNvMNtCs6zOrHhYlc8W_15nexus_consensus5shoalNtB2_12ShoalOrderer17next_anchor_round
FN:147,_RNvMNtCs6zOrHhYlc8W_15nexus_consensus5shoalNtB2_12ShoalOrderer18latency_to_quality
FN:103,_RNvMNtCs6zOrHhYlc8W_15nexus_consensus5shoalNtB2_12ShoalOrderer20advance_anchor_round
FN:67,_RNvMNtCs6zOrHhYlc8W_15nexus_consensus5shoalNtB2_12ShoalOrderer3new
FN:159,_RNvXs_NtCs6zOrHhYlc8W_15nexus_consensus5shoalNtB4_12ShoalOrdererNtNtB6_6traits10BftOrderer10try_commit
FN:230,_RNvXs_NtCs6zOrHhYlc8W_15nexus_consensus5shoalNtB4_12ShoalOrdererNtNtB6_6traits10BftOrderer17update_reputation
FN:245,_RNvXs_NtCs6zOrHhYlc8W_15nexus_consensus5shoalNtB4_12ShoalOrdererNtNtB6_6traits10BftOrderer25current_anchor_candidates
FN:291,_RNvNtNtCs6zOrHhYlc8W_15nexus_consensus5shoal5tests10validators
FN:273,_RNvNtNtCs6zOrHhYlc8W_15nexus_consensus5shoal5tests9make_cert
FN:569,_RNvNtNtCs6zOrHhYlc8W_15nexus_consensus5shoal5testss_25committed_anchors_history
FN:348,_RNvNtNtCs6zOrHhYlc8W_15nexus_consensus5shoal5testss_25latency_to_quality_ranges
FN:298,_RNvNtNtCs6zOrHhYlc8W_15nexus_consensus5shoal5testss_26next_anchor_starts_at_zero
FN:562,_RNvNtNtCs6zOrHhYlc8W_15nexus_consensus5shoal5testss_28empty_committee_returns_none
FN:306,_RNvNtNtCs6zOrHhYlc8W_15nexus_consensus5shoal5testss_28leader_is_highest_reputation
FN:497,_RNvNtNtCs6zOrHhYlc8W_15nexus_consensus5shoal5testss_28try_commit_advances_sequence
FN:317,_RNvNtNtCs6zOrHhYlc8W_15nexus_consensus5shoal5testss_31leader_tiebreak_by_lowest_index
FN:327,_RNvNtNtCs6zOrHhYlc8W_15nexus_consensus5shoal5testss_32low_latency_increases_reputation
FN:337,_RNvNtNtCs6zOrHhYlc8W_15nexus_consensus5shoal5testss_33high_latency_decreases_reputation
FN:591,_RNvNtNtCs6zOrHhYlc8W_15nexus_consensus5shoal5testss_34next_anchor_round_saturates_at_max
FN:643,_RNvNtNtCs6zOrHhYlc8W_15nexus_consensus5shoal5testss_35leader_rotates_across_anchor_rounds
FN:471,_RNvNtNtCs6zOrHhYlc8W_15nexus_consensus5shoal5testss_36try_commit_succeeds_with_leader_cert
FN:538,_RNvNtNtCs6zOrHhYlc8W_15nexus_consensus5shoal5testss_38try_commit_no_double_commit_same_round
FN:670,_RNvNtNtCs6zOrHhYlc8W_15nexus_consensus5shoal5testss_44leader_with_much_higher_reputation_dominates
FN:364,_RNvNtNtCs6zOrHhYlc8W_15nexus_consensus5shoal5testss_45try_commit_returns_none_when_dag_not_advanced
FN:373,_RNvNtNtCs6zOrHhYlc8W_15nexus_consensus5shoal5testss_47try_commit_returns_none_when_leader_has_no_cert
FN:399,_RNvNtNtCs6zOrHhYlc8W_15nexus_consensus5shoal5testss_53try_commit_skips_missing_anchor_after_recovery_window
FN:602,_RNvNtNtCs6zOrHhYlc8W_15nexus_consensus5shoal5testss_62shoal_should_not_permanently_skip_late_anchor_without_recovery
FN:436,_RNvNtNtCs6zOrHhYlc8W_15nexus_consensus5shoal5testss_62try_commit_skips_missing_anchor_and_commits_next_available_one
FN:130,_RNCNCNvMNtCs6zOrHhYlc8W_15nexus_consensus5shoalNtB6_12ShoalOrderer13select_leaders_00B8_
FN:260,_RNCNCNvXs_NtCs6zOrHhYlc8W_15nexus_consensus5shoalNtB8_12ShoalOrdererNtNtBa_6traits10BftOrderer25current_anchor_candidatess_00Ba_
FN:121,_RNCNvMNtCs6zOrHhYlc8W_15nexus_consensus5shoalNtB4_12ShoalOrderer13select_leader0B6_
FN:137,_RNCNvMNtCs6zOrHhYlc8W_15nexus_consensus5shoalNtB4_12ShoalOrderer13select_leaders0_0B6_
FN:130,_RNCNvMNtCs6zOrHhYlc8W_15nexus_consensus5shoalNtB4_12ShoalOrderer13select_leaders_0B6_
FN:70,_RNCNvMNtCs6zOrHhYlc8W_15nexus_consensus5shoalNtB4_12ShoalOrderer3new0B6_
FN:249,_RNCNvXs_NtCs6zOrHhYlc8W_15nexus_consensus5shoalNtB6_12ShoalOrdererNtNtB8_6traits10BftOrderer25current_anchor_candidates0B8_
FN:261,_RNCNvXs_NtCs6zOrHhYlc8W_15nexus_consensus5shoalNtB6_12ShoalOrdererNtNtB8_6traits10BftOrderer25current_anchor_candidatess0_0B8_
FN:260,_RNCNvXs_NtCs6zOrHhYlc8W_15nexus_consensus5shoalNtB6_12ShoalOrdererNtNtB8_6traits10BftOrderer25current_anchor_candidatess_0B8_
FNDA:840,_RNCNCNvMNtCs9QvvabE0u1j_15nexus_consensus5shoalNtB6_12ShoalOrderer13select_leaders_00B8_
FNDA:0,_RNCNCNvXs_NtCs9QvvabE0u1j_15nexus_consensus5shoalNtB8_12ShoalOrdererNtNtBa_6traits10BftOrderer25current_anchor_candidatess_00Ba_
FNDA:1287,_RNCNvMNtCs9QvvabE0u1j_15nexus_consensus5shoalNtB4_12ShoalOrderer13select_leader0B6_
FNDA:1287,_RNCNvMNtCs9QvvabE0u1j_15nexus_consensus5shoalNtB4_12ShoalOrderer13select_leaders0_0B6_
FNDA:840,_RNCNvMNtCs9QvvabE0u1j_15nexus_consensus5shoalNtB4_12ShoalOrderer13select_leaders_0B6_
FNDA:20832,_RNCNvMNtCs9QvvabE0u1j_15nexus_consensus5shoalNtB4_12ShoalOrderer3new0B6_
FNDA:0,_RNCNvXs_NtCs9QvvabE0u1j_15nexus_consensus5shoalNtB6_12ShoalOrdererNtNtB8_6traits10BftOrderer25current_anchor_candidates0B8_
FNDA:0,_RNCNvXs_NtCs9QvvabE0u1j_15nexus_consensus5shoalNtB6_12ShoalOrdererNtNtB8_6traits10BftOrderer25current_anchor_candidatess0_0B8_
FNDA:0,_RNCNvXs_NtCs9QvvabE0u1j_15nexus_consensus5shoalNtB6_12ShoalOrdererNtNtB8_6traits10BftOrderer25current_anchor_candidatess_0B8_
FNDA:3439,_RNvMNtCs9QvvabE0u1j_15nexus_consensus5shoalNtB2_12ShoalOrderer12commit_count
FNDA:447,_RNvMNtCs9QvvabE0u1j_15nexus_consensus5shoalNtB2_12ShoalOrderer13select_leader
FNDA:0,_RNvMNtCs9QvvabE0u1j_15nexus_consensus5shoalNtB2_12ShoalOrderer17committed_anchors
FNDA:3443,_RNvMNtCs9QvvabE0u1j_15nexus_consensus5shoalNtB2_12ShoalOrderer17next_anchor_round
FNDA:0,_RNvMNtCs9QvvabE0u1j_15nexus_consensus5shoalNtB2_12ShoalOrderer18latency_to_quality
FNDA:447,_RNvMNtCs9QvvabE0u1j_15nexus_consensus5shoalNtB2_12ShoalOrderer20advance_anchor_round
FNDA:0,_RNvMNtCs9QvvabE0u1j_15nexus_consensus5shoalNtB2_12ShoalOrderer20last_committed_round
FNDA:4606,_RNvMNtCs9QvvabE0u1j_15nexus_consensus5shoalNtB2_12ShoalOrderer3new
FNDA:3443,_RNvXs_NtCs9QvvabE0u1j_15nexus_consensus5shoalNtB4_12ShoalOrdererNtNtB6_6traits10BftOrderer10try_commit
FNDA:0,_RNvXs_NtCs9QvvabE0u1j_15nexus_consensus5shoalNtB4_12ShoalOrdererNtNtB6_6traits10BftOrderer17update_reputation
FNDA:0,_RNvXs_NtCs9QvvabE0u1j_15nexus_consensus5shoalNtB4_12ShoalOrdererNtNtB6_6traits10BftOrderer25current_anchor_candidates
FNDA:0,_RNvMNtCs6zOrHhYlc8W_15nexus_consensus5shoalNtB2_12ShoalOrderer20last_committed_round
FNDA:116,_RNvMNtCs6zOrHhYlc8W_15nexus_consensus5shoalNtB2_12ShoalOrderer12commit_count
FNDA:454,_RNvMNtCs6zOrHhYlc8W_15nexus_consensus5shoalNtB2_12ShoalOrderer13select_leader
FNDA:51,_RNvMNtCs6zOrHhYlc8W_15nexus_consensus5shoalNtB2_12ShoalOrderer17committed_anchors
FNDA:706,_RNvMNtCs6zOrHhYlc8W_15nexus_consensus5shoalNtB2_12ShoalOrderer17next_anchor_round
FNDA:12019,_RNvMNtCs6zOrHhYlc8W_15nexus_consensus5shoalNtB2_12ShoalOrderer18latency_to_quality
FNDA:267,_RNvMNtCs6zOrHhYlc8W_15nexus_consensus5shoalNtB2_12ShoalOrderer20advance_anchor_round
FNDA:579,_RNvMNtCs6zOrHhYlc8W_15nexus_consensus5shoalNtB2_12ShoalOrderer3new
FNDA:570,_RNvXs_NtCs6zOrHhYlc8W_15nexus_consensus5shoalNtB4_12ShoalOrdererNtNtB6_6traits10BftOrderer10try_commit
FNDA:11934,_RNvXs_NtCs6zOrHhYlc8W_15nexus_consensus5shoalNtB4_12ShoalOrdererNtNtB6_6traits10BftOrderer17update_reputation
FNDA:34,_RNvXs_NtCs6zOrHhYlc8W_15nexus_consensus5shoalNtB4_12ShoalOrdererNtNtB6_6traits10BftOrderer25current_anchor_candidates
FNDA:289,_RNvNtNtCs6zOrHhYlc8W_15nexus_consensus5shoal5tests10validators
FNDA:765,_RNvNtNtCs6zOrHhYlc8W_15nexus_consensus5shoal5tests9make_cert
FNDA:17,_RNvNtNtCs6zOrHhYlc8W_15nexus_consensus5shoal5testss_25committed_anchors_history
FNDA:17,_RNvNtNtCs6zOrHhYlc8W_15nexus_consensus5shoal5testss_25latency_to_quality_ranges
FNDA:17,_RNvNtNtCs6zOrHhYlc8W_15nexus_consensus5shoal5testss_26next_anchor_starts_at_zero
FNDA:17,_RNvNtNtCs6zOrHhYlc8W_15nexus_consensus5shoal5testss_28empty_committee_returns_none
FNDA:17,_RNvNtNtCs6zOrHhYlc8W_15nexus_consensus5shoal5testss_28leader_is_highest_reputation
FNDA:17,_RNvNtNtCs6zOrHhYlc8W_15nexus_consensus5shoal5testss_28try_commit_advances_sequence
FNDA:17,_RNvNtNtCs6zOrHhYlc8W_15nexus_consensus5shoal5testss_31leader_tiebreak_by_lowest_index
FNDA:17,_RNvNtNtCs6zOrHhYlc8W_15nexus_consensus5shoal5testss_32low_latency_increases_reputation
FNDA:17,_RNvNtNtCs6zOrHhYlc8W_15nexus_consensus5shoal5testss_33high_latency_decreases_reputation
FNDA:17,_RNvNtNtCs6zOrHhYlc8W_15nexus_consensus5shoal5testss_34next_anchor_round_saturates_at_max
FNDA:17,_RNvNtNtCs6zOrHhYlc8W_15nexus_consensus5shoal5testss_35leader_rotates_across_anchor_rounds
FNDA:17,_RNvNtNtCs6zOrHhYlc8W_15nexus_consensus5shoal5testss_36try_commit_succeeds_with_leader_cert
FNDA:17,_RNvNtNtCs6zOrHhYlc8W_15nexus_consensus5shoal5testss_38try_commit_no_double_commit_same_round
FNDA:17,_RNvNtNtCs6zOrHhYlc8W_15nexus_consensus5shoal5testss_44leader_with_much_higher_reputation_dominates
FNDA:17,_RNvNtNtCs6zOrHhYlc8W_15nexus_consensus5shoal5testss_45try_commit_returns_none_when_dag_not_advanced
FNDA:17,_RNvNtNtCs6zOrHhYlc8W_15nexus_consensus5shoal5testss_47try_commit_returns_none_when_leader_has_no_cert
FNDA:17,_RNvNtNtCs6zOrHhYlc8W_15nexus_consensus5shoal5testss_53try_commit_skips_missing_anchor_after_recovery_window
FNDA:17,_RNvNtNtCs6zOrHhYlc8W_15nexus_consensus5shoal5testss_62shoal_should_not_permanently_skip_late_anchor_without_recovery
FNDA:17,_RNvNtNtCs6zOrHhYlc8W_15nexus_consensus5shoal5testss_62try_commit_skips_missing_anchor_and_commits_next_available_one
FNDA:1277,_RNCNCNvMNtCs6zOrHhYlc8W_15nexus_consensus5shoalNtB6_12ShoalOrderer13select_leaders_00B8_
FNDA:85,_RNCNCNvXs_NtCs6zOrHhYlc8W_15nexus_consensus5shoalNtB8_12ShoalOrdererNtNtBa_6traits10BftOrderer25current_anchor_candidatess_00Ba_
FNDA:1816,_RNCNvMNtCs6zOrHhYlc8W_15nexus_consensus5shoalNtB4_12ShoalOrderer13select_leader0B6_
FNDA:1646,_RNCNvMNtCs6zOrHhYlc8W_15nexus_consensus5shoalNtB4_12ShoalOrderer13select_leaders0_0B6_
FNDA:1362,_RNCNvMNtCs6zOrHhYlc8W_15nexus_consensus5shoalNtB4_12ShoalOrderer13select_leaders_0B6_
FNDA:2248,_RNCNvMNtCs6zOrHhYlc8W_15nexus_consensus5shoalNtB4_12ShoalOrderer3new0B6_
FNDA:136,_RNCNvXs_NtCs6zOrHhYlc8W_15nexus_consensus5shoalNtB6_12ShoalOrdererNtNtB8_6traits10BftOrderer25current_anchor_candidates0B8_
FNDA:136,_RNCNvXs_NtCs6zOrHhYlc8W_15nexus_consensus5shoalNtB6_12ShoalOrdererNtNtB8_6traits10BftOrderer25current_anchor_candidatess0_0B8_
FNDA:136,_RNCNvXs_NtCs6zOrHhYlc8W_15nexus_consensus5shoalNtB6_12ShoalOrdererNtNtB8_6traits10BftOrderer25current_anchor_candidatess_0B8_
FNF:41
FNH:40
DA:67,5185
DA:68,5185
DA:69,5185
DA:70,23080
DA:71,5185
DA:72,5185
DA:73,5185
DA:74,5185
DA:75,5185
DA:76,5185
DA:77,5185
DA:78,5185
DA:79,5185
DA:80,5185
DA:81,5185
DA:84,0
DA:85,0
DA:86,0
DA:89,3555
DA:90,3555
DA:91,3555
DA:94,51
DA:95,51
DA:96,51
DA:99,4149
DA:100,4149
DA:101,4149
DA:103,714
DA:104,714
DA:105,714
DA:112,901
DA:113,901
DA:114,0
DA:115,901
DA:116,901
DA:117,901
DA:118,901
DA:119,901
DA:120,901
DA:121,3103
DA:122,3103
DA:123,3103
DA:124,3103
DA:125,3103
DA:126,3103
DA:127,3103
DA:128,3103
DA:129,901
DA:130,2202
DA:131,901
DA:132,901
DA:133,901
DA:134,901
DA:135,901
DA:136,901
DA:137,2933
DA:138,901
DA:139,901
DA:140,901
DA:141,901
DA:142,901
DA:143,901
DA:144,901
DA:147,12019
DA:148,12019
DA:149,51
DA:150,11968
DA:151,11934
DA:153,34
DA:155,12019
DA:159,4013
DA:160,4013
DA:161,4013
DA:162,4013
DA:164,4047
DA:165,4047
DA:166,4047
DA:167,4047
DA:168,4047
DA:169,3316
DA:170,731
DA:173,731
DA:174,731
DA:175,0
DA:179,731
DA:180,663
DA:184,68
DA:185,68
DA:186,34
DA:187,34
DA:188,34
DA:189,34
DA:194,663
DA:195,663
DA:196,663
DA:197,663
DA:198,0
DA:199,663
DA:200,663
DA:201,663
DA:202,663
DA:203,663
DA:204,663
DA:205,663
DA:206,663
DA:207,663
DA:208,663
DA:209,663
DA:210,663
DA:211,663
DA:212,663
DA:213,663
DA:214,663
DA:215,663
DA:216,663
DA:217,663
DA:218,663
DA:219,663
DA:220,663
DA:221,663
DA:222,663
DA:223,663
DA:224,663
DA:225,663
DA:226,663
DA:228,4013
DA:230,11934
DA:231,11934
DA:232,11934
DA:233,11934
DA:234,11934
DA:235,11934
DA:236,11934
DA:237,11934
DA:238,11934
DA:239,11934
DA:240,11934
DA:241,11934
DA:242,11934
DA:243,11934
DA:245,34
DA:246,34
DA:247,34
DA:248,34
DA:249,136
DA:250,136
DA:251,136
DA:252,136
DA:253,136
DA:254,136
DA:255,136
DA:256,136
DA:257,34
DA:258,34
DA:259,34
DA:260,136
DA:261,136
DA:262,34
DA:273,765
DA:274,765
DA:275,765
DA:276,765
DA:277,765
DA:278,765
DA:279,765
DA:280,765
DA:281,765
DA:282,765
DA:283,765
DA:284,765
DA:285,765
DA:286,765
DA:287,765
DA:288,765
DA:289,765
DA:291,289
DA:292,289
DA:293,289
DA:298,17
DA:299,17
DA:300,17
DA:301,17
DA:306,17
DA:307,17
DA:308,17
DA:309,17
DA:310,17
DA:311,17
DA:312,17
DA:313,17
DA:314,17
DA:317,17
DA:318,17
DA:319,17
DA:320,17
DA:321,17
DA:322,17
DA:327,17
DA:328,17
DA:329,17
DA:330,17
DA:331,17
DA:332,17
DA:333,17
DA:334,17
DA:337,17
DA:338,17
DA:340,1717
DA:341,1700
DA:342,1700
DA:343,17
DA:344,17
DA:345,17
DA:348,17
DA:349,17
DA:350,17
DA:352,17
DA:354,17
DA:355,17
DA:357,17
DA:358,17
DA:359,17
DA:364,17
DA:365,17
DA:366,17
DA:367,17
DA:368,17
DA:369,17
DA:370,17
DA:373,17
DA:374,17
DA:375,17
DA:376,17
DA:377,17
DA:378,17
DA:379,17
DA:380,17
DA:381,17
DA:382,17
DA:383,17
DA:384,17
DA:385,17
DA:386,17
DA:387,17
DA:388,17
DA:389,17
DA:390,17
DA:391,17
DA:392,17
DA:393,17
DA:395,17
DA:396,17
DA:399,17
DA:400,17
DA:401,17
DA:402,17
DA:403,17
DA:404,17
DA:405,17
DA:406,17
DA:407,17
DA:408,17
DA:409,17
DA:410,17
DA:411,17
DA:412,17
DA:413,17
DA:414,17
DA:415,17
DA:416,17
DA:417,153
DA:418,136
DA:419,136
DA:420,136
DA:421,136
DA:422,17
DA:426,17
DA:427,17
DA:428,17
DA:429,0
DA:431,17
DA:432,17
DA:433,17
DA:436,17
DA:437,17
DA:438,17
DA:439,17
DA:440,17
DA:441,17
DA:442,17
DA:443,17
DA:444,17
DA:445,17
DA:446,17
DA:447,17
DA:448,17
DA:449,17
DA:450,17
DA:451,17
DA:452,17
DA:453,17
DA:454,17
DA:455,17
DA:456,153
DA:457,136
DA:458,136
DA:459,136
DA:460,136
DA:463,17
DA:464,17
DA:465,17
DA:466,17
DA:467,17
DA:468,17
DA:471,17
DA:472,17
DA:473,17
DA:474,17
DA:475,17
DA:476,17
DA:477,17
DA:478,17
DA:479,17
DA:480,17
DA:481,17
DA:482,17
DA:483,17
DA:484,17
DA:485,17
DA:486,17
DA:487,17
DA:488,17
DA:490,17
DA:491,17
DA:492,17
DA:493,17
DA:494,17
DA:497,17
DA:498,17
DA:499,17
DA:500,17
DA:501,17
DA:502,17
DA:503,17
DA:504,17
DA:505,17
DA:506,17
DA:507,17
DA:508,17
DA:509,17
DA:510,17
DA:511,17
DA:512,17
DA:513,17
DA:514,17
DA:515,17
DA:516,17
DA:517,17
DA:518,17
DA:519,17
DA:523,17
DA:524,17
DA:525,17
DA:526,17
DA:527,17
DA:528,17
DA:529,17
DA:530,17
DA:531,17
DA:532,17
DA:533,17
DA:534,17
DA:535,17
DA:538,17
DA:539,17
DA:540,17
DA:541,17
DA:542,17
DA:543,17
DA:544,17
DA:545,17
DA:546,17
DA:547,17
DA:548,17
DA:549,17
DA:550,17
DA:551,17
DA:552,17
DA:553,17
DA:556,17
DA:557,17
DA:562,17
DA:563,17
DA:564,17
DA:565,17
DA:566,17
DA:569,17
DA:570,17
DA:571,17
DA:572,17
DA:573,17
DA:574,17
DA:575,17
DA:576,17
DA:577,17
DA:578,17
DA:579,17
DA:580,17
DA:581,17
DA:582,17
DA:583,17
DA:584,17
DA:585,17
DA:586,17
DA:591,17
DA:592,17
DA:593,17
DA:594,17
DA:595,17
DA:596,17
DA:597,17
DA:602,17
DA:603,17
DA:604,17
DA:605,17
DA:606,17
DA:607,17
DA:608,17
DA:609,17
DA:610,17
DA:611,17
DA:612,17
DA:613,17
DA:614,17
DA:615,17
DA:616,17
DA:617,17
DA:618,17
DA:619,17
DA:620,17
DA:621,17
DA:622,17
DA:623,17
DA:626,17
DA:627,17
DA:628,17
DA:629,17
DA:630,17
DA:631,17
DA:632,17
DA:633,17
DA:634,17
DA:635,17
DA:636,17
DA:637,0
DA:639,17
DA:640,17
DA:643,17
DA:644,17
DA:645,17
DA:646,17
DA:647,17
DA:648,17
DA:649,17
DA:650,17
DA:653,17
DA:654,17
DA:657,17
DA:658,17
DA:661,17
DA:662,17
DA:665,17
DA:666,17
DA:667,17
DA:670,17
DA:671,17
DA:672,17
DA:673,17
DA:676,3417
DA:677,3400
DA:678,3400
DA:679,3400
DA:680,3400
DA:684,85
DA:685,85
DA:686,85
DA:689,0
DA:692,17
BRF:0
BRH:0
LF:499
LH:490
end_of_record
SF:/Users/VD/Vootaa_Projects/vootaa-labs@github/nexus-node/crates/nexus-consensus/src/traits.rs
FN:149,_RNCNvYpNtNtCs9QvvabE0u1j_15nexus_consensus6traits17ValidatorRegistry10reputation0B9_
FN:142,_RNCNvYpNtNtCs9QvvabE0u1j_15nexus_consensus6traits17ValidatorRegistry9is_active0B9_
FN:147,_RNvYpNtNtCs9QvvabE0u1j_15nexus_consensus6traits17ValidatorRegistry10reputationB7_
FN:140,_RNvYpNtNtCs9QvvabE0u1j_15nexus_consensus6traits17ValidatorRegistry9is_activeB7_
FN:196,_RINvNtNtCs6zOrHhYlc8W_15nexus_consensus6traits5tests26__assert_bft_orderer_boundspEB6_
FN:194,_RINvNtNtCs6zOrHhYlc8W_15nexus_consensus6traits5tests29__assert_batch_proposer_boundspEB6_
FN:195,_RINvNtNtCs6zOrHhYlc8W_15nexus_consensus6traits5tests30__assert_certificate_dag_boundspEB6_
FN:197,_RINvNtNtCs6zOrHhYlc8W_15nexus_consensus6traits5tests33__assert_validator_registry_boundspEB6_
FN:147,_RNvYNtNtCs6zOrHhYlc8W_15nexus_consensus9validator9CommitteeNtNtB6_6traits17ValidatorRegistry10reputationB6_
FN:140,_RNvYNtNtCs6zOrHhYlc8W_15nexus_consensus9validator9CommitteeNtNtB6_6traits17ValidatorRegistry9is_activeB6_
FN:149,_RNCNvYNtNtCs6zOrHhYlc8W_15nexus_consensus9validator9CommitteeNtNtB8_6traits17ValidatorRegistry10reputation0B8_
FN:142,_RNCNvYNtNtCs6zOrHhYlc8W_15nexus_consensus9validator9CommitteeNtNtB8_6traits17ValidatorRegistry9is_active0B8_
FN:149,_RNCNvYNtNtNtCs6zOrHhYlc8W_15nexus_consensus6traits5tests12MockRegistryNtB8_17ValidatorRegistry10reputation0Ba_
FN:142,_RNCNvYNtNtNtCs6zOrHhYlc8W_15nexus_consensus6traits5tests12MockRegistryNtB8_17ValidatorRegistry9is_active0Ba_
FN:303,_RNvNtNtCs6zOrHhYlc8W_15nexus_consensus6traits5testss_35is_quorum_mock_always_returns_false
FN:251,_RNvNtNtCs6zOrHhYlc8W_15nexus_consensus6traits5testss_37active_validators_filters_slashed_out
FN:200,_RNvNtNtCs6zOrHhYlc8W_15nexus_consensus6traits5testss_37trait_object_safety_bft_orderer_param
FN:208,_RNvNtNtCs6zOrHhYlc8W_15nexus_consensus6traits5testss_43default_is_active_returns_false_for_unknown
FN:310,_RNvNtNtCs6zOrHhYlc8W_15nexus_consensus6traits5testss_45validator_info_returns_none_for_missing_index
FN:232,_RNvNtNtCs6zOrHhYlc8W_15nexus_consensus6traits5testss_53default_methods_respect_slashed_and_reputation_values
FN:281,_RNvNtNtCs6zOrHhYlc8W_15nexus_consensus6traits5testss_56quorum_threshold_and_total_stake_reflect_validator_count
FN:215,_RNvNtNtCs6zOrHhYlc8W_15nexus_consensus6traits5testss_60default_is_active_returns_true_for_known_unslashed_validator
FN:180,_RNvXNtNtCs6zOrHhYlc8W_15nexus_consensus6traits5testsNtB2_12MockRegistryNtB4_17ValidatorRegistry11total_stake
FN:172,_RNvXNtNtCs6zOrHhYlc8W_15nexus_consensus6traits5testsNtB2_12MockRegistryNtB4_17ValidatorRegistry14validator_info
FN:176,_RNvXNtNtCs6zOrHhYlc8W_15nexus_consensus6traits5testsNtB2_12MockRegistryNtB4_17ValidatorRegistry16quorum_threshold
FN:164,_RNvXNtNtCs6zOrHhYlc8W_15nexus_consensus6traits5testsNtB2_12MockRegistryNtB4_17ValidatorRegistry17active_validators
FN:184,_RNvXNtNtCs6zOrHhYlc8W_15nexus_consensus6traits5testsNtB2_12MockRegistryNtB4_17ValidatorRegistry9is_quorum
FN:173,_RNCNvXNtNtCs6zOrHhYlc8W_15nexus_consensus6traits5testsNtB4_12MockRegistryNtB6_17ValidatorRegistry14validator_info0B8_
FN:167,_RNCNvXNtNtCs6zOrHhYlc8W_15nexus_consensus6traits5testsNtB4_12MockRegistryNtB6_17ValidatorRegistry17active_validators0B8_
FN:147,_RNvYNtNtNtCs6zOrHhYlc8W_15nexus_consensus6traits5tests12MockRegistryNtB6_17ValidatorRegistry10reputationB8_
FN:140,_RNvYNtNtNtCs6zOrHhYlc8W_15nexus_consensus6traits5tests12MockRegistryNtB6_17ValidatorRegistry9is_activeB8_
FNDA:0,_RNCNvYpNtNtCs9QvvabE0u1j_15nexus_consensus6traits17ValidatorRegistry10reputation0B9_
FNDA:0,_RNCNvYpNtNtCs9QvvabE0u1j_15nexus_consensus6traits17ValidatorRegistry9is_active0B9_
FNDA:0,_RNvYpNtNtCs9QvvabE0u1j_15nexus_consensus6traits17ValidatorRegistry10reputationB7_
FNDA:0,_RNvYpNtNtCs9QvvabE0u1j_15nexus_consensus6traits17ValidatorRegistry9is_activeB7_
FNDA:0,_RINvNtNtCs6zOrHhYlc8W_15nexus_consensus6traits5tests26__assert_bft_orderer_boundspEB6_
FNDA:0,_RINvNtNtCs6zOrHhYlc8W_15nexus_consensus6traits5tests29__assert_batch_proposer_boundspEB6_
FNDA:0,_RINvNtNtCs6zOrHhYlc8W_15nexus_consensus6traits5tests30__assert_certificate_dag_boundspEB6_
FNDA:0,_RINvNtNtCs6zOrHhYlc8W_15nexus_consensus6traits5tests33__assert_validator_registry_boundspEB6_
FNDA:17,_RNvYNtNtCs6zOrHhYlc8W_15nexus_consensus9validator9CommitteeNtNtB6_6traits17ValidatorRegistry10reputationB6_
FNDA:34,_RNvYNtNtCs6zOrHhYlc8W_15nexus_consensus9validator9CommitteeNtNtB6_6traits17ValidatorRegistry9is_activeB6_
FNDA:0,_RNCNvYNtNtCs6zOrHhYlc8W_15nexus_consensus9validator9CommitteeNtNtB8_6traits17ValidatorRegistry10reputation0B8_
FNDA:34,_RNCNvYNtNtCs6zOrHhYlc8W_15nexus_consensus9validator9CommitteeNtNtB8_6traits17ValidatorRegistry9is_active0B8_
FNDA:12,_RNCNvYNtNtNtCs6zOrHhYlc8W_15nexus_consensus6traits5tests12MockRegistryNtB8_17ValidatorRegistry10reputation0Ba_
FNDA:24,_RNCNvYNtNtNtCs6zOrHhYlc8W_15nexus_consensus6traits5tests12MockRegistryNtB8_17ValidatorRegistry9is_active0Ba_
FNDA:6,_RNvNtNtCs6zOrHhYlc8W_15nexus_consensus6traits5testss_35is_quorum_mock_always_returns_false
FNDA:6,_RNvNtNtCs6zOrHhYlc8W_15nexus_consensus6traits5testss_37active_validators_filters_slashed_out
FNDA:17,_RNvNtNtCs6zOrHhYlc8W_15nexus_consensus6traits5testss_37trait_object_safety_bft_orderer_param
FNDA:12,_RNvNtNtCs6zOrHhYlc8W_15nexus_consensus6traits5testss_43default_is_active_returns_false_for_unknown
FNDA:6,_RNvNtNtCs6zOrHhYlc8W_15nexus_consensus6traits5testss_45validator_info_returns_none_for_missing_index
FNDA:12,_RNvNtNtCs6zOrHhYlc8W_15nexus_consensus6traits5testss_53default_methods_respect_slashed_and_reputation_values
FNDA:6,_RNvNtNtCs6zOrHhYlc8W_15nexus_consensus6traits5testss_56quorum_threshold_and_total_stake_reflect_validator_count
FNDA:12,_RNvNtNtCs6zOrHhYlc8W_15nexus_consensus6traits5testss_60default_is_active_returns_true_for_known_unslashed_validator
FNDA:6,_RNvXNtNtCs6zOrHhYlc8W_15nexus_consensus6traits5testsNtB2_12MockRegistryNtB4_17ValidatorRegistry11total_stake
FNDA:66,_RNvXNtNtCs6zOrHhYlc8W_15nexus_consensus6traits5testsNtB2_12MockRegistryNtB4_17ValidatorRegistry14validator_info
FNDA:6,_RNvXNtNtCs6zOrHhYlc8W_15nexus_consensus6traits5testsNtB2_12MockRegistryNtB4_17ValidatorRegistry16quorum_threshold
FNDA:6,_RNvXNtNtCs6zOrHhYlc8W_15nexus_consensus6traits5testsNtB2_12MockRegistryNtB4_17ValidatorRegistry17active_validators
FNDA:6,_RNvXNtNtCs6zOrHhYlc8W_15nexus_consensus6traits5testsNtB2_12MockRegistryNtB4_17ValidatorRegistry9is_quorum
FNDA:36,_RNCNvXNtNtCs6zOrHhYlc8W_15nexus_consensus6traits5testsNtB4_12MockRegistryNtB6_17ValidatorRegistry14validator_info0B8_
FNDA:12,_RNCNvXNtNtCs6zOrHhYlc8W_15nexus_consensus6traits5testsNtB4_12MockRegistryNtB6_17ValidatorRegistry17active_validators0B8_
FNDA:24,_RNvYNtNtNtCs6zOrHhYlc8W_15nexus_consensus6traits5tests12MockRegistryNtB6_17ValidatorRegistry10reputationB8_
FNDA:36,_RNvYNtNtNtCs6zOrHhYlc8W_15nexus_consensus6traits5tests12MockRegistryNtB6_17ValidatorRegistry9is_activeB8_
FNF:23
FNH:19
DA:140,70
DA:141,70
DA:142,70
DA:143,70
DA:144,70
DA:147,41
DA:148,41
DA:149,41
DA:150,41
DA:151,41
DA:164,6
DA:165,6
DA:166,6
DA:167,12
DA:168,6
DA:169,6
DA:170,6
DA:172,66
DA:173,66
DA:174,66
DA:176,6
DA:177,6
DA:178,6
DA:180,6
DA:181,6
DA:182,6
DA:184,6
DA:185,6
DA:186,6
DA:194,0
DA:195,0
DA:196,0
DA:197,0
DA:200,17
DA:201,17
DA:202,17
DA:203,17
DA:204,17
DA:208,12
DA:209,12
DA:210,12
DA:211,12
DA:212,12
DA:215,12
DA:216,12
DA:217,12
DA:218,12
DA:219,12
DA:220,12
DA:221,12
DA:222,12
DA:223,12
DA:224,12
DA:225,12
DA:226,12
DA:227,12
DA:228,12
DA:229,12
DA:232,12
DA:233,12
DA:234,12
DA:235,12
DA:236,12
DA:237,12
DA:238,12
DA:239,12
DA:240,12
DA:241,12
DA:242,12
DA:243,12
DA:244,12
DA:245,12
DA:246,12
DA:247,12
DA:248,12
DA:251,6
DA:252,6
DA:253,6
DA:254,6
DA:255,6
DA:256,6
DA:257,6
DA:258,6
DA:259,6
DA:260,6
DA:261,6
DA:262,6
DA:263,6
DA:264,6
DA:265,6
DA:266,6
DA:267,6
DA:268,6
DA:269,6
DA:270,6
DA:271,6
DA:272,6
DA:273,6
DA:274,6
DA:275,6
DA:276,6
DA:277,6
DA:278,6
DA:281,6
DA:282,6
DA:283,24
DA:284,18
DA:285,18
DA:286,18
DA:287,18
DA:288,18
DA:289,18
DA:290,18
DA:291,18
DA:292,18
DA:293,18
DA:294,6
DA:295,6
DA:296,6
DA:297,6
DA:298,6
DA:299,6
DA:300,6
DA:303,6
DA:304,6
DA:305,6
DA:306,6
DA:307,6
DA:310,6
DA:311,6
DA:312,6
DA:313,6
BRF:0
BRH:0
LF:136
LH:132
end_of_record
SF:/Users/VD/Vootaa_Projects/vootaa-labs@github/nexus-node/crates/nexus-consensus/src/types.rs
FN:145,_RNvMNtCs9QvvabE0u1j_15nexus_consensus5typesNtB2_15ValidatorBitset3new
FN:156,_RNvMNtCs9QvvabE0u1j_15nexus_consensus5typesNtB2_15ValidatorBitset3set
FN:175,_RNvMNtCs9QvvabE0u1j_15nexus_consensus5typesNtB2_15ValidatorBitset5count
FN:166,_RNvMNtCs9QvvabE0u1j_15nexus_consensus5typesNtB2_15ValidatorBitset6is_set
FN:180,_RNvMNtCs9QvvabE0u1j_15nexus_consensus5typesNtB2_15ValidatorBitset8capacity
FN:214,_RNvMs_NtCs9QvvabE0u1j_15nexus_consensus5typesNtB4_15ReputationScore3raw
FN:209,_RNvMs_NtCs9QvvabE0u1j_15nexus_consensus5typesNtB4_15ReputationScore6as_f32
FN:203,_RNvMs_NtCs9QvvabE0u1j_15nexus_consensus5typesNtB4_15ReputationScore8from_f32
FN:220,_RNvXs0_NtCs9QvvabE0u1j_15nexus_consensus5typesNtB5_15ReputationScoreNtNtCslNfmTnNkGed_4core7default7Default7default
FN:298,_RNvXs1_NtCs9QvvabE0u1j_15nexus_consensus5typesNtB5_11EpochConfigNtNtCslNfmTnNkGed_4core7default7Default7default
FN:176,_RNCNvMNtCs9QvvabE0u1j_15nexus_consensus5typesNtB4_15ValidatorBitset5count0B6_
FN:145,_RNvMNtCs6zOrHhYlc8W_15nexus_consensus5typesNtB2_15ValidatorBitset3new
FN:156,_RNvMNtCs6zOrHhYlc8W_15nexus_consensus5typesNtB2_15ValidatorBitset3set
FN:175,_RNvMNtCs6zOrHhYlc8W_15nexus_consensus5typesNtB2_15ValidatorBitset5count
FN:166,_RNvMNtCs6zOrHhYlc8W_15nexus_consensus5typesNtB2_15ValidatorBitset6is_set
FN:180,_RNvMNtCs6zOrHhYlc8W_15nexus_consensus5typesNtB2_15ValidatorBitset8capacity
FN:214,_RNvMs_NtCs6zOrHhYlc8W_15nexus_consensus5typesNtB4_15ReputationScore3raw
FN:209,_RNvMs_NtCs6zOrHhYlc8W_15nexus_consensus5typesNtB4_15ReputationScore6as_f32
FN:203,_RNvMs_NtCs6zOrHhYlc8W_15nexus_consensus5typesNtB4_15ReputationScore8from_f32
FN:220,_RNvXs0_NtCs6zOrHhYlc8W_15nexus_consensus5typesNtB5_15ReputationScoreNtNtCslNfmTnNkGed_4core7default7Default7default
FN:298,_RNvXs1_NtCs6zOrHhYlc8W_15nexus_consensus5typesNtB5_11EpochConfigNtNtCslNfmTnNkGed_4core7default7Default7default
FN:369,_RNvNtNtCs6zOrHhYlc8W_15nexus_consensus5types5testss_16reputation_clamp
FN:321,_RNvNtNtCs6zOrHhYlc8W_15nexus_consensus5types5testss_19bitset_new_is_empty
FN:375,_RNvNtNtCs6zOrHhYlc8W_15nexus_consensus5types5testss_19reputation_ordering
FN:407,_RNvNtNtCs6zOrHhYlc8W_15nexus_consensus5types5testss_20batch_status_ordered
FN:389,_RNvNtNtCs6zOrHhYlc8W_15nexus_consensus5types5testss_20batch_status_pending
FN:328,_RNvNtNtCs6zOrHhYlc8W_15nexus_consensus5types5testss_20bitset_set_and_check
FN:362,_RNvNtNtCs6zOrHhYlc8W_15nexus_consensus5types5testss_20reputation_roundtrip
FN:418,_RNvNtNtCs6zOrHhYlc8W_15nexus_consensus5types5testss_21batch_status_executed
FN:395,_RNvNtNtCs6zOrHhYlc8W_15nexus_consensus5types5testss_22batch_status_certified
FN:347,_RNvNtNtCs6zOrHhYlc8W_15nexus_consensus5types5testss_22bitset_large_committee
FN:433,_RNvNtNtCs6zOrHhYlc8W_15nexus_consensus5types5testss_22bitset_serde_roundtrip
FN:382,_RNvNtNtCs6zOrHhYlc8W_15nexus_consensus5types5testss_25reputation_default_is_max
FN:443,_RNvNtNtCs6zOrHhYlc8W_15nexus_consensus5types5testss_26reputation_serde_roundtrip
FN:583,_RNvNtNtCs6zOrHhYlc8W_15nexus_consensus5types5testss_27batch_status_variants_debug
FN:549,_RNvNtNtCs6zOrHhYlc8W_15nexus_consensus5types5testss_27epoch_config_default_values
FN:572,_RNvNtNtCs6zOrHhYlc8W_15nexus_consensus5types5testss_31bitset_double_set_is_idempotent
FN:451,_RNvNtNtCs6zOrHhYlc8W_15nexus_consensus5types5testss_31committed_batch_serde_roundtrip
FN:536,_RNvNtNtCs6zOrHhYlc8W_15nexus_consensus5types5testss_32reputation_raw_returns_inner_u16
FN:339,_RNvNtNtCs6zOrHhYlc8W_15nexus_consensus5types5testss_33bitset_out_of_range_returns_false
FN:465,_RNvNtNtCs6zOrHhYlc8W_15nexus_consensus5types5testss_37shoal_vote_and_anchor_serde_roundtrip
FN:557,_RNvNtNtCs6zOrHhYlc8W_15nexus_consensus5types5testss_43epoch_transition_trigger_all_variants_serde
FN:176,_RNCNvMNtCs6zOrHhYlc8W_15nexus_consensus5typesNtB4_15ValidatorBitset5count0B6_
FNDA:19549,_RNvMNtCs9QvvabE0u1j_15nexus_consensus5typesNtB2_15ValidatorBitset3new
FNDA:16971,_RNvMNtCs9QvvabE0u1j_15nexus_consensus5typesNtB2_15ValidatorBitset3set
FNDA:56,_RNvMNtCs9QvvabE0u1j_15nexus_consensus5typesNtB2_15ValidatorBitset5count
FNDA:28960,_RNvMNtCs9QvvabE0u1j_15nexus_consensus5typesNtB2_15ValidatorBitset6is_set
FNDA:0,_RNvMNtCs9QvvabE0u1j_15nexus_consensus5typesNtB2_15ValidatorBitset8capacity
FNDA:0,_RNvMs_NtCs9QvvabE0u1j_15nexus_consensus5typesNtB4_15ReputationScore3raw
FNDA:1916,_RNvMs_NtCs9QvvabE0u1j_15nexus_consensus5typesNtB4_15ReputationScore6as_f32
FNDA:280,_RNvMs_NtCs9QvvabE0u1j_15nexus_consensus5typesNtB4_15ReputationScore8from_f32
FNDA:34262,_RNvXs0_NtCs9QvvabE0u1j_15nexus_consensus5typesNtB5_15ReputationScoreNtNtCslNfmTnNkGed_4core7default7Default7default
FNDA:0,_RNvXs1_NtCs9QvvabE0u1j_15nexus_consensus5typesNtB5_11EpochConfigNtNtCslNfmTnNkGed_4core7default7Default7default
FNDA:56,_RNCNvMNtCs9QvvabE0u1j_15nexus_consensus5typesNtB4_15ValidatorBitset5count0B6_
FNDA:1934,_RNvMNtCs6zOrHhYlc8W_15nexus_consensus5typesNtB2_15ValidatorBitset3new
FNDA:6089,_RNvMNtCs6zOrHhYlc8W_15nexus_consensus5typesNtB2_15ValidatorBitset3set
FNDA:88,_RNvMNtCs6zOrHhYlc8W_15nexus_consensus5typesNtB2_15ValidatorBitset5count
FNDA:7879,_RNvMNtCs6zOrHhYlc8W_15nexus_consensus5typesNtB2_15ValidatorBitset6is_set
FNDA:17,_RNvMNtCs6zOrHhYlc8W_15nexus_consensus5typesNtB2_15ValidatorBitset8capacity
FNDA:3,_RNvMs_NtCs6zOrHhYlc8W_15nexus_consensus5typesNtB4_15ReputationScore3raw
FNDA:14088,_RNvMs_NtCs6zOrHhYlc8W_15nexus_consensus5typesNtB4_15ReputationScore6as_f32
FNDA:12100,_RNvMs_NtCs6zOrHhYlc8W_15nexus_consensus5typesNtB4_15ReputationScore8from_f32
FNDA:17,_RNvXs0_NtCs6zOrHhYlc8W_15nexus_consensus5typesNtB5_15ReputationScoreNtNtCslNfmTnNkGed_4core7default7Default7default
FNDA:3,_RNvXs1_NtCs6zOrHhYlc8W_15nexus_consensus5typesNtB5_11EpochConfigNtNtCslNfmTnNkGed_4core7default7Default7default
FNDA:10,_RNvNtNtCs6zOrHhYlc8W_15nexus_consensus5types5testss_16reputation_clamp
FNDA:10,_RNvNtNtCs6zOrHhYlc8W_15nexus_consensus5types5testss_19bitset_new_is_empty
FNDA:10,_RNvNtNtCs6zOrHhYlc8W_15nexus_consensus5types5testss_19reputation_ordering
FNDA:10,_RNvNtNtCs6zOrHhYlc8W_15nexus_consensus5types5testss_20batch_status_ordered
FNDA:10,_RNvNtNtCs6zOrHhYlc8W_15nexus_consensus5types5testss_20batch_status_pending
FNDA:10,_RNvNtNtCs6zOrHhYlc8W_15nexus_consensus5types5testss_20bitset_set_and_check
FNDA:10,_RNvNtNtCs6zOrHhYlc8W_15nexus_consensus5types5testss_20reputation_roundtrip
FNDA:10,_RNvNtNtCs6zOrHhYlc8W_15nexus_consensus5types5testss_21batch_status_executed
FNDA:10,_RNvNtNtCs6zOrHhYlc8W_15nexus_consensus5types5testss_22batch_status_certified
FNDA:10,_RNvNtNtCs6zOrHhYlc8W_15nexus_consensus5types5testss_22bitset_large_committee
FNDA:10,_RNvNtNtCs6zOrHhYlc8W_15nexus_consensus5types5testss_22bitset_serde_roundtrip
FNDA:10,_RNvNtNtCs6zOrHhYlc8W_15nexus_consensus5types5testss_25reputation_default_is_max
FNDA:10,_RNvNtNtCs6zOrHhYlc8W_15nexus_consensus5types5testss_26reputation_serde_roundtrip
FNDA:3,_RNvNtNtCs6zOrHhYlc8W_15nexus_consensus5types5testss_27batch_status_variants_debug
FNDA:3,_RNvNtNtCs6zOrHhYlc8W_15nexus_consensus5types5testss_27epoch_config_default_values
FNDA:3,_RNvNtNtCs6zOrHhYlc8W_15nexus_consensus5types5testss_31bitset_double_set_is_idempotent
FNDA:10,_RNvNtNtCs6zOrHhYlc8W_15nexus_consensus5types5testss_31committed_batch_serde_roundtrip
FNDA:3,_RNvNtNtCs6zOrHhYlc8W_15nexus_consensus5types5testss_32reputation_raw_returns_inner_u16
FNDA:10,_RNvNtNtCs6zOrHhYlc8W_15nexus_consensus5types5testss_33bitset_out_of_range_returns_false
FNDA:9,_RNvNtNtCs6zOrHhYlc8W_15nexus_consensus5types5testss_37shoal_vote_and_anchor_serde_roundtrip
FNDA:3,_RNvNtNtCs6zOrHhYlc8W_15nexus_consensus5types5testss_43epoch_transition_trigger_all_variants_serde
FNDA:938,_RNCNvMNtCs6zOrHhYlc8W_15nexus_consensus5typesNtB4_15ValidatorBitset5count0B6_
FNF:32
FNH:32
DA:145,21483
DA:146,21483
DA:147,21483
DA:148,21483
DA:149,21483
DA:150,21483
DA:151,21483
DA:156,23060
DA:157,23060
DA:158,23060
DA:159,34
DA:160,23026
DA:161,23026
DA:162,23026
DA:163,23060
DA:166,36839
DA:167,36839
DA:168,36839
DA:169,17
DA:170,36822
DA:171,36822
DA:172,36839
DA:175,144
DA:176,994
DA:177,144
DA:180,17
DA:181,17
DA:182,17
DA:203,12380
DA:204,12380
DA:205,12380
DA:206,12380
DA:209,16004
DA:210,16004
DA:211,16004
DA:214,3
DA:215,3
DA:216,3
DA:220,34279
DA:221,34279
DA:222,34279
DA:298,3
DA:299,3
DA:300,3
DA:301,3
DA:302,3
DA:303,3
DA:304,3
DA:305,3
DA:306,3
DA:307,3
DA:321,10
DA:322,10
DA:323,10
DA:324,10
DA:325,10
DA:328,10
DA:329,10
DA:330,10
DA:331,10
DA:332,10
DA:333,10
DA:334,10
DA:335,10
DA:336,10
DA:339,10
DA:340,10
DA:341,10
DA:342,10
DA:343,10
DA:344,10
DA:347,10
DA:348,10
DA:349,10
DA:350,3000
DA:351,3000
DA:353,10
DA:354,3000
DA:355,3000
DA:357,10
DA:362,10
DA:363,10
DA:364,10
DA:365,10
DA:366,10
DA:369,10
DA:370,10
DA:371,10
DA:372,10
DA:375,10
DA:376,10
DA:377,10
DA:378,10
DA:379,10
DA:382,10
DA:383,10
DA:384,10
DA:389,10
DA:390,10
DA:391,10
DA:392,10
DA:395,10
DA:396,10
DA:397,10
DA:398,10
DA:399,10
DA:400,10
DA:402,0
DA:404,10
DA:407,10
DA:408,10
DA:409,10
DA:410,10
DA:411,10
DA:412,10
DA:413,0
DA:415,10
DA:418,10
DA:419,10
DA:420,10
DA:421,10
DA:422,10
DA:423,10
DA:424,10
DA:426,0
DA:428,10
DA:433,10
DA:434,10
DA:435,10
DA:436,10
DA:437,10
DA:438,10
DA:439,10
DA:440,10
DA:443,10
DA:444,10
DA:445,10
DA:446,10
DA:447,10
DA:448,10
DA:451,10
DA:452,10
DA:453,10
DA:454,10
DA:455,10
DA:456,10
DA:457,10
DA:458,10
DA:459,10
DA:460,10
DA:461,10
DA:462,10
DA:465,9
DA:466,9
DA:467,9
DA:468,9
DA:469,9
DA:470,9
DA:471,9
DA:472,9
DA:473,9
DA:474,9
DA:475,9
DA:476,9
DA:477,9
DA:478,9
DA:479,9
DA:480,9
DA:481,9
DA:482,9
DA:483,9
DA:485,9
DA:486,9
DA:487,9
DA:488,9
DA:489,9
DA:490,9
DA:491,9
DA:492,9
DA:493,9
DA:494,9
DA:495,9
DA:496,9
DA:497,9
DA:498,9
DA:499,9
DA:500,9
DA:501,9
DA:502,9
DA:503,9
DA:504,9
DA:505,9
DA:506,9
DA:507,9
DA:508,9
DA:509,9
DA:510,9
DA:512,9
DA:513,9
DA:514,9
DA:515,9
DA:516,9
DA:518,9
DA:519,9
DA:520,9
DA:521,9
DA:522,9
DA:523,9
DA:524,9
DA:525,9
DA:526,9
DA:528,9
DA:529,9
DA:530,9
DA:531,9
DA:532,9
DA:533,9
DA:536,3
DA:537,3
DA:538,3
DA:539,3
DA:540,3
DA:541,3
DA:542,3
DA:543,3
DA:544,0
DA:546,3
DA:549,3
DA:550,3
DA:551,3
DA:552,3
DA:553,3
DA:554,3
DA:557,3
DA:558,3
DA:559,3
DA:560,3
DA:561,3
DA:562,3
DA:563,12
DA:564,9
DA:565,9
DA:566,9
DA:567,9
DA:569,3
DA:572,3
DA:573,3
DA:574,3
DA:575,3
DA:577,3
DA:579,3
DA:580,3
DA:583,3
DA:584,3
DA:585,3
DA:586,3
DA:587,3
DA:588,3
DA:589,3
DA:590,3
DA:591,3
DA:592,3
DA:593,3
DA:594,3
BRF:0
BRH:0
LF:265
LH:261
end_of_record
SF:/Users/VD/Vootaa_Projects/vootaa-labs@github/nexus-node/crates/nexus-consensus/src/validator.rs
FN:61,_RNCNvMNtCs9QvvabE0u1j_15nexus_consensus9validatorNtB4_9Committee12active_count0B6_
FN:121,_RNCNvMNtCs9QvvabE0u1j_15nexus_consensus9validatorNtB4_9Committee13compute_stats0B6_
FN:124,_RNCNvMNtCs9QvvabE0u1j_15nexus_consensus9validatorNtB4_9Committee13compute_statss_0B6_
FN:109,_RNCNvMNtCs9QvvabE0u1j_15nexus_consensus9validatorNtB4_9Committee14set_reputation0B6_
FN:81,_RNCNvMNtCs9QvvabE0u1j_15nexus_consensus9validatorNtB4_9Committee5slash0B6_
FN:168,_RNCNvXs_NtCs9QvvabE0u1j_15nexus_consensus9validatorNtB6_9CommitteeNtNtB8_6traits17ValidatorRegistry14validator_info0B8_
FN:162,_RNCNvXs_NtCs9QvvabE0u1j_15nexus_consensus9validatorNtB6_9CommitteeNtNtB8_6traits17ValidatorRegistry17active_validators0B8_
FN:183,_RNCNvXs_NtCs9QvvabE0u1j_15nexus_consensus9validatorNtB6_9CommitteeNtNtB8_6traits17ValidatorRegistry9is_quorum0B8_
FN:184,_RNCNvXs_NtCs9QvvabE0u1j_15nexus_consensus9validatorNtB6_9CommitteeNtNtB8_6traits17ValidatorRegistry9is_quorums_0B8_
FN:65,_RNvMNtCs9QvvabE0u1j_15nexus_consensus9validatorNtB2_9Committee11total_count
FN:60,_RNvMNtCs9QvvabE0u1j_15nexus_consensus9validatorNtB2_9Committee12active_count
FN:120,_RNvMNtCs9QvvabE0u1j_15nexus_consensus9validatorNtB2_9Committee13compute_stats
FN:143,_RNvMNtCs9QvvabE0u1j_15nexus_consensus9validatorNtB2_9Committee13to_persistent
FN:135,_RNvMNtCs9QvvabE0u1j_15nexus_consensus9validatorNtB2_9Committee14all_validators
FN:101,_RNvMNtCs9QvvabE0u1j_15nexus_consensus9validatorNtB2_9Committee14set_reputation
FN:153,_RNvMNtCs9QvvabE0u1j_15nexus_consensus9validatorNtB2_9Committee15from_persistent
FN:44,_RNvMNtCs9QvvabE0u1j_15nexus_consensus9validatorNtB2_9Committee3new
FN:55,_RNvMNtCs9QvvabE0u1j_15nexus_consensus9validatorNtB2_9Committee5epoch
FN:77,_RNvMNtCs9QvvabE0u1j_15nexus_consensus9validatorNtB2_9Committee5slash
FN:175,_RNvXs_NtCs9QvvabE0u1j_15nexus_consensus9validatorNtB4_9CommitteeNtNtB6_6traits17ValidatorRegistry11total_stake
FN:167,_RNvXs_NtCs9QvvabE0u1j_15nexus_consensus9validatorNtB4_9CommitteeNtNtB6_6traits17ValidatorRegistry14validator_info
FN:171,_RNvXs_NtCs9QvvabE0u1j_15nexus_consensus9validatorNtB4_9CommitteeNtNtB6_6traits17ValidatorRegistry16quorum_threshold
FN:159,_RNvXs_NtCs9QvvabE0u1j_15nexus_consensus9validatorNtB4_9CommitteeNtNtB6_6traits17ValidatorRegistry17active_validators
FN:179,_RNvXs_NtCs9QvvabE0u1j_15nexus_consensus9validatorNtB4_9CommitteeNtNtB6_6traits17ValidatorRegistry9is_quorum
FN:143,_RNvMNtCs6zOrHhYlc8W_15nexus_consensus9validatorNtB2_9Committee13to_persistent
FN:153,_RNvMNtCs6zOrHhYlc8W_15nexus_consensus9validatorNtB2_9Committee15from_persistent
FN:65,_RNvMNtCs6zOrHhYlc8W_15nexus_consensus9validatorNtB2_9Committee11total_count
FN:60,_RNvMNtCs6zOrHhYlc8W_15nexus_consensus9validatorNtB2_9Committee12active_count
FN:120,_RNvMNtCs6zOrHhYlc8W_15nexus_consensus9validatorNtB2_9Committee13compute_stats
FN:135,_RNvMNtCs6zOrHhYlc8W_15nexus_consensus9validatorNtB2_9Committee14all_validators
FN:101,_RNvMNtCs6zOrHhYlc8W_15nexus_consensus9validatorNtB2_9Committee14set_reputation
FN:44,_RNvMNtCs6zOrHhYlc8W_15nexus_consensus9validatorNtB2_9Committee3new
FN:55,_RNvMNtCs6zOrHhYlc8W_15nexus_consensus9validatorNtB2_9Committee5epoch
FN:77,_RNvMNtCs6zOrHhYlc8W_15nexus_consensus9validatorNtB2_9Committee5slash
FN:175,_RNvXs_NtCs6zOrHhYlc8W_15nexus_consensus9validatorNtB4_9CommitteeNtNtB6_6traits17ValidatorRegistry11total_stake
FN:167,_RNvXs_NtCs6zOrHhYlc8W_15nexus_consensus9validatorNtB4_9CommitteeNtNtB6_6traits17ValidatorRegistry14validator_info
FN:171,_RNvXs_NtCs6zOrHhYlc8W_15nexus_consensus9validatorNtB4_9CommitteeNtNtB6_6traits17ValidatorRegistry16quorum_threshold
FN:159,_RNvXs_NtCs6zOrHhYlc8W_15nexus_consensus9validatorNtB4_9CommitteeNtNtB6_6traits17ValidatorRegistry17active_validators
FN:179,_RNvXs_NtCs6zOrHhYlc8W_15nexus_consensus9validatorNtB4_9CommitteeNtNtB6_6traits17ValidatorRegistry9is_quorum
FN:196,_RNvNtNtCs6zOrHhYlc8W_15nexus_consensus9validator5tests14make_committee
FN:388,_RNvNtNtCs6zOrHhYlc8W_15nexus_consensus9validator5testss_15epoch_is_stored
FN:231,_RNvNtNtCs6zOrHhYlc8W_15nexus_consensus9validator5testss_21quorum_100_validators
FN:240,_RNvNtNtCs6zOrHhYlc8W_15nexus_consensus9validator5testss_21quorum_201_validators
FN:224,_RNvNtNtCs6zOrHhYlc8W_15nexus_consensus9validator5testss_22quorum_four_validators
FN:216,_RNvNtNtCs6zOrHhYlc8W_15nexus_consensus9validator5testss_23quorum_single_validator
FN:261,_RNvNtNtCs6zOrHhYlc8W_15nexus_consensus9validator5testss_26is_quorum_excludes_slashed
FN:320,_RNvNtNtCs6zOrHhYlc8W_15nexus_consensus9validator5testss_28slash_already_slashed_errors
FN:404,_RNvNtNtCs6zOrHhYlc8W_15nexus_consensus9validator5testss_28stake_overflow_returns_error
FN:394,_RNvNtNtCs6zOrHhYlc8W_15nexus_consensus9validator5testss_28total_count_includes_slashed
FN:249,_RNvNtNtCs6zOrHhYlc8W_15nexus_consensus9validator5testss_30is_quorum_exactly_at_threshold
FN:310,_RNvNtNtCs6zOrHhYlc8W_15nexus_consensus9validator5testss_30slash_unknown_validator_errors
FN:371,_RNvNtNtCs6zOrHhYlc8W_15nexus_consensus9validator5testss_32empty_committee_quorum_never_met
FN:333,_RNvNtNtCs6zOrHhYlc8W_15nexus_consensus9validator5testss_32set_reputation_updates_validator
FN:283,_RNvNtNtCs6zOrHhYlc8W_15nexus_consensus9validator5testss_34active_validators_excludes_slashed
FN:355,_RNvNtNtCs6zOrHhYlc8W_15nexus_consensus9validator5testss_35is_active_returns_false_for_slashed
FN:363,_RNvNtNtCs6zOrHhYlc8W_15nexus_consensus9validator5testss_35reputation_returns_zero_for_unknown
FN:296,_RNvNtNtCs6zOrHhYlc8W_15nexus_consensus9validator5testss_35slash_recalculates_quorum_and_stake
FN:343,_RNvNtNtCs6zOrHhYlc8W_15nexus_consensus9validator5testss_39set_reputation_unknown_validator_errors
FN:382,_RNvNtNtCs6zOrHhYlc8W_15nexus_consensus9validator5testss_39validator_info_returns_none_for_unknown
FN:61,_RNCNvMNtCs6zOrHhYlc8W_15nexus_consensus9validatorNtB4_9Committee12active_count0B6_
FN:121,_RNCNvMNtCs6zOrHhYlc8W_15nexus_consensus9validatorNtB4_9Committee13compute_stats0B6_
FN:124,_RNCNvMNtCs6zOrHhYlc8W_15nexus_consensus9validatorNtB4_9Committee13compute_statss_0B6_
FN:109,_RNCNvMNtCs6zOrHhYlc8W_15nexus_consensus9validatorNtB4_9Committee14set_reputation0B6_
FN:81,_RNCNvMNtCs6zOrHhYlc8W_15nexus_consensus9validatorNtB4_9Committee5slash0B6_
FN:168,_RNCNvXs_NtCs6zOrHhYlc8W_15nexus_consensus9validatorNtB6_9CommitteeNtNtB8_6traits17ValidatorRegistry14validator_info0B8_
FN:162,_RNCNvXs_NtCs6zOrHhYlc8W_15nexus_consensus9validatorNtB6_9CommitteeNtNtB8_6traits17ValidatorRegistry17active_validators0B8_
FN:183,_RNCNvXs_NtCs6zOrHhYlc8W_15nexus_consensus9validatorNtB6_9CommitteeNtNtB8_6traits17ValidatorRegistry9is_quorum0B8_
FN:184,_RNCNvXs_NtCs6zOrHhYlc8W_15nexus_consensus9validatorNtB6_9CommitteeNtNtB8_6traits17ValidatorRegistry9is_quorums_0B8_
FN:198,_RNCNvNtNtCs6zOrHhYlc8W_15nexus_consensus9validator5tests14make_committee0B7_
FN:406,_RNCNvNtNtCs6zOrHhYlc8W_15nexus_consensus9validator5testss_28stake_overflow_returns_error0B7_
FN:290,_RNCNvNtNtCs6zOrHhYlc8W_15nexus_consensus9validator5testss_34active_validators_excludes_slashed0B7_
FNDA:266,_RNCNvMNtCs9QvvabE0u1j_15nexus_consensus9validatorNtB4_9Committee12active_count0B6_
FNDA:62460,_RNCNvMNtCs9QvvabE0u1j_15nexus_consensus9validatorNtB4_9Committee13compute_stats0B6_
FNDA:60024,_RNCNvMNtCs9QvvabE0u1j_15nexus_consensus9validatorNtB4_9Committee13compute_statss_0B6_
FNDA:0,_RNCNvMNtCs9QvvabE0u1j_15nexus_consensus9validatorNtB4_9Committee14set_reputation0B6_
FNDA:4275,_RNCNvMNtCs9QvvabE0u1j_15nexus_consensus9validatorNtB4_9Committee5slash0B6_
FNDA:26642,_RNCNvXs_NtCs9QvvabE0u1j_15nexus_consensus9validatorNtB6_9CommitteeNtNtB8_6traits17ValidatorRegistry14validator_info0B8_
FNDA:31782,_RNCNvXs_NtCs9QvvabE0u1j_15nexus_consensus9validatorNtB6_9CommitteeNtNtB8_6traits17ValidatorRegistry17active_validators0B8_
FNDA:22437,_RNCNvXs_NtCs9QvvabE0u1j_15nexus_consensus9validatorNtB6_9CommitteeNtNtB8_6traits17ValidatorRegistry9is_quorum0B8_
FNDA:19757,_RNCNvXs_NtCs9QvvabE0u1j_15nexus_consensus9validatorNtB6_9CommitteeNtNtB8_6traits17ValidatorRegistry9is_quorums_0B8_
FNDA:0,_RNvMNtCs9QvvabE0u1j_15nexus_consensus9validatorNtB2_9Committee11total_count
FNDA:56,_RNvMNtCs9QvvabE0u1j_15nexus_consensus9validatorNtB2_9Committee12active_count
FNDA:10841,_RNvMNtCs9QvvabE0u1j_15nexus_consensus9validatorNtB2_9Committee13compute_stats
FNDA:3220,_RNvMNtCs9QvvabE0u1j_15nexus_consensus9validatorNtB2_9Committee13to_persistent
FNDA:158,_RNvMNtCs9QvvabE0u1j_15nexus_consensus9validatorNtB2_9Committee14all_validators
FNDA:0,_RNvMNtCs9QvvabE0u1j_15nexus_consensus9validatorNtB2_9Committee14set_reputation
FNDA:798,_RNvMNtCs9QvvabE0u1j_15nexus_consensus9validatorNtB2_9Committee15from_persistent
FNDA:9469,_RNvMNtCs9QvvabE0u1j_15nexus_consensus9validatorNtB2_9Committee3new
FNDA:588,_RNvMNtCs9QvvabE0u1j_15nexus_consensus9validatorNtB2_9Committee5epoch
FNDA:1400,_RNvMNtCs9QvvabE0u1j_15nexus_consensus9validatorNtB2_9Committee5slash
FNDA:1064,_RNvXs_NtCs9QvvabE0u1j_15nexus_consensus9validatorNtB4_9CommitteeNtNtB6_6traits17ValidatorRegistry11total_stake
FNDA:9002,_RNvXs_NtCs9QvvabE0u1j_15nexus_consensus9validatorNtB4_9CommitteeNtNtB6_6traits17ValidatorRegistry14validator_info
FNDA:3040,_RNvXs_NtCs9QvvabE0u1j_15nexus_consensus9validatorNtB4_9CommitteeNtNtB6_6traits17ValidatorRegistry16quorum_threshold
FNDA:5784,_RNvXs_NtCs9QvvabE0u1j_15nexus_consensus9validatorNtB4_9CommitteeNtNtB6_6traits17ValidatorRegistry17active_validators
FNDA:4821,_RNvXs_NtCs9QvvabE0u1j_15nexus_consensus9validatorNtB4_9CommitteeNtNtB6_6traits17ValidatorRegistry9is_quorum
FNDA:0,_RNvMNtCs6zOrHhYlc8W_15nexus_consensus9validatorNtB2_9Committee13to_persistent
FNDA:0,_RNvMNtCs6zOrHhYlc8W_15nexus_consensus9validatorNtB2_9Committee15from_persistent
FNDA:17,_RNvMNtCs6zOrHhYlc8W_15nexus_consensus9validatorNtB2_9Committee11total_count
FNDA:85,_RNvMNtCs6zOrHhYlc8W_15nexus_consensus9validatorNtB2_9Committee12active_count
FNDA:817,_RNvMNtCs6zOrHhYlc8W_15nexus_consensus9validatorNtB2_9Committee13compute_stats
FNDA:72,_RNvMNtCs6zOrHhYlc8W_15nexus_consensus9validatorNtB2_9Committee14all_validators
FNDA:34,_RNvMNtCs6zOrHhYlc8W_15nexus_consensus9validatorNtB2_9Committee14set_reputation
FNDA:715,_RNvMNtCs6zOrHhYlc8W_15nexus_consensus9validatorNtB2_9Committee3new
FNDA:29,_RNvMNtCs6zOrHhYlc8W_15nexus_consensus9validatorNtB2_9Committee5epoch
FNDA:136,_RNvMNtCs6zOrHhYlc8W_15nexus_consensus9validatorNtB2_9Committee5slash
FNDA:51,_RNvXs_NtCs6zOrHhYlc8W_15nexus_consensus9validatorNtB4_9CommitteeNtNtB6_6traits17ValidatorRegistry11total_stake
FNDA:728,_RNvXs_NtCs6zOrHhYlc8W_15nexus_consensus9validatorNtB4_9CommitteeNtNtB6_6traits17ValidatorRegistry14validator_info
FNDA:153,_RNvXs_NtCs6zOrHhYlc8W_15nexus_consensus9validatorNtB4_9CommitteeNtNtB6_6traits17ValidatorRegistry16quorum_threshold
FNDA:307,_RNvXs_NtCs6zOrHhYlc8W_15nexus_consensus9validatorNtB4_9CommitteeNtNtB6_6traits17ValidatorRegistry17active_validators
FNDA:517,_RNvXs_NtCs6zOrHhYlc8W_15nexus_consensus9validatorNtB4_9CommitteeNtNtB6_6traits17ValidatorRegistry9is_quorum
FNDA:289,_RNvNtNtCs6zOrHhYlc8W_15nexus_consensus9validator5tests14make_committee
FNDA:17,_RNvNtNtCs6zOrHhYlc8W_15nexus_consensus9validator5testss_15epoch_is_stored
FNDA:17,_RNvNtNtCs6zOrHhYlc8W_15nexus_consensus9validator5testss_21quorum_100_validators
FNDA:17,_RNvNtNtCs6zOrHhYlc8W_15nexus_consensus9validator5testss_21quorum_201_validators
FNDA:17,_RNvNtNtCs6zOrHhYlc8W_15nexus_consensus9validator5testss_22quorum_four_validators
FNDA:17,_RNvNtNtCs6zOrHhYlc8W_15nexus_consensus9validator5testss_23quorum_single_validator
FNDA:17,_RNvNtNtCs6zOrHhYlc8W_15nexus_consensus9validator5testss_26is_quorum_excludes_slashed
FNDA:17,_RNvNtNtCs6zOrHhYlc8W_15nexus_consensus9validator5testss_28slash_already_slashed_errors
FNDA:17,_RNvNtNtCs6zOrHhYlc8W_15nexus_consensus9validator5testss_28stake_overflow_returns_error
FNDA:17,_RNvNtNtCs6zOrHhYlc8W_15nexus_consensus9validator5testss_28total_count_includes_slashed
FNDA:17,_RNvNtNtCs6zOrHhYlc8W_15nexus_consensus9validator5testss_30is_quorum_exactly_at_threshold
FNDA:17,_RNvNtNtCs6zOrHhYlc8W_15nexus_consensus9validator5testss_30slash_unknown_validator_errors
FNDA:17,_RNvNtNtCs6zOrHhYlc8W_15nexus_consensus9validator5testss_32empty_committee_quorum_never_met
FNDA:17,_RNvNtNtCs6zOrHhYlc8W_15nexus_consensus9validator5testss_32set_reputation_updates_validator
FNDA:17,_RNvNtNtCs6zOrHhYlc8W_15nexus_consensus9validator5testss_34active_validators_excludes_slashed
FNDA:17,_RNvNtNtCs6zOrHhYlc8W_15nexus_consensus9validator5testss_35is_active_returns_false_for_slashed
FNDA:17,_RNvNtNtCs6zOrHhYlc8W_15nexus_consensus9validator5testss_35reputation_returns_zero_for_unknown
FNDA:17,_RNvNtNtCs6zOrHhYlc8W_15nexus_consensus9validator5testss_35slash_recalculates_quorum_and_stake
FNDA:17,_RNvNtNtCs6zOrHhYlc8W_15nexus_consensus9validator5testss_39set_reputation_unknown_validator_errors
FNDA:17,_RNvNtNtCs6zOrHhYlc8W_15nexus_consensus9validator5testss_39validator_info_returns_none_for_unknown
FNDA:1921,_RNCNvMNtCs6zOrHhYlc8W_15nexus_consensus9validatorNtB4_9Committee12active_count0B6_
FNDA:8113,_RNCNvMNtCs6zOrHhYlc8W_15nexus_consensus9validatorNtB4_9Committee13compute_stats0B6_
FNDA:8011,_RNCNvMNtCs6zOrHhYlc8W_15nexus_consensus9validatorNtB4_9Committee13compute_statss_0B6_
FNDA:85,_RNCNvMNtCs6zOrHhYlc8W_15nexus_consensus9validatorNtB4_9Committee14set_reputation0B6_
FNDA:289,_RNCNvMNtCs6zOrHhYlc8W_15nexus_consensus9validatorNtB4_9Committee5slash0B6_
FNDA:1667,_RNCNvXs_NtCs6zOrHhYlc8W_15nexus_consensus9validatorNtB6_9CommitteeNtNtB8_6traits17ValidatorRegistry14validator_info0B8_
FNDA:1262,_RNCNvXs_NtCs6zOrHhYlc8W_15nexus_consensus9validatorNtB6_9CommitteeNtNtB8_6traits17ValidatorRegistry17active_validators0B8_
FNDA:2000,_RNCNvXs_NtCs6zOrHhYlc8W_15nexus_consensus9validatorNtB6_9CommitteeNtNtB8_6traits17ValidatorRegistry9is_quorum0B8_
FNDA:1541,_RNCNvXs_NtCs6zOrHhYlc8W_15nexus_consensus9validatorNtB6_9CommitteeNtNtB8_6traits17ValidatorRegistry9is_quorums_0B8_
FNDA:6052,_RNCNvNtNtCs6zOrHhYlc8W_15nexus_consensus9validator5tests14make_committee0B7_
FNDA:34,_RNCNvNtNtCs6zOrHhYlc8W_15nexus_consensus9validator5testss_28stake_overflow_returns_error0B7_
FNDA:68,_RNCNvNtNtCs6zOrHhYlc8W_15nexus_consensus9validator5testss_34active_validators_excludes_slashed0B7_
FNF:47
FNH:47
DA:44,10184
DA:45,10184
DA:46,10167
DA:47,10167
DA:48,10167
DA:49,10167
DA:50,10167
DA:51,10167
DA:52,10184
DA:55,617
DA:56,617
DA:57,617
DA:60,141
DA:61,2187
DA:62,141
DA:65,17
DA:66,17
DA:67,17
DA:77,1536
DA:78,1536
DA:79,1536
DA:80,1536
DA:81,4564
DA:82,1536
DA:84,1519
DA:85,45
DA:86,1474
DA:87,1474
DA:89,1474
DA:90,1474
DA:91,1474
DA:92,1474
DA:93,1474
DA:94,1536
DA:101,34
DA:102,34
DA:103,34
DA:104,34
DA:105,34
DA:106,34
DA:107,34
DA:108,34
DA:109,85
DA:110,34
DA:111,17
DA:112,17
DA:113,34
DA:120,11658
DA:121,70573
DA:122,11658
DA:123,11658
DA:124,68035
DA:125,11658
DA:126,11641
DA:127,11641
DA:128,11641
DA:131,11641
DA:132,11658
DA:135,230
DA:136,230
DA:137,230
DA:143,3220
DA:144,3220
DA:145,3220
DA:146,3220
DA:147,3220
DA:148,3220
DA:153,798
DA:154,798
DA:155,798
DA:159,6091
DA:160,6091
DA:161,6091
DA:162,33044
DA:163,6091
DA:164,6091
DA:165,6091
DA:167,9730
DA:168,28309
DA:169,9730
DA:171,3193
DA:172,3193
DA:173,3193
DA:175,1115
DA:176,1115
DA:177,1115
DA:179,5338
DA:180,5338
DA:181,5338
DA:182,5338
DA:183,24437
DA:184,21298
DA:185,5338
DA:186,5338
DA:187,5338
DA:196,289
DA:197,289
DA:198,6052
DA:199,6052
DA:200,6052
DA:201,6052
DA:202,6052
DA:203,6052
DA:204,6052
DA:205,6052
DA:206,6052
DA:207,6052
DA:208,6052
DA:209,289
DA:210,289
DA:211,289
DA:216,17
DA:217,17
DA:218,17
DA:219,17
DA:220,17
DA:221,17
DA:224,17
DA:225,17
DA:226,17
DA:227,17
DA:228,17
DA:231,17
DA:232,17
DA:233,17
DA:234,17
DA:235,17
DA:236,17
DA:237,17
DA:240,17
DA:241,17
DA:242,17
DA:243,17
DA:244,17
DA:249,17
DA:250,17
DA:251,17
DA:252,17
DA:253,17
DA:254,17
DA:255,17
DA:256,17
DA:257,17
DA:258,17
DA:261,17
DA:262,17
DA:263,17
DA:264,17
DA:265,17
DA:266,17
DA:267,17
DA:268,17
DA:270,17
DA:271,17
DA:273,17
DA:274,17
DA:276,17
DA:277,17
DA:278,17
DA:283,17
DA:284,17
DA:285,17
DA:287,17
DA:288,17
DA:289,17
DA:290,68
DA:291,17
DA:296,17
DA:297,17
DA:298,17
DA:299,17
DA:300,17
DA:302,17
DA:303,17
DA:304,17
DA:305,17
DA:306,17
DA:307,17
DA:310,17
DA:311,17
DA:312,17
DA:313,17
DA:314,17
DA:317,17
DA:320,17
DA:321,17
DA:322,17
DA:323,17
DA:324,17
DA:325,17
DA:328,17
DA:333,17
DA:334,17
DA:335,17
DA:336,17
DA:337,17
DA:338,17
DA:339,17
DA:340,17
DA:343,17
DA:344,17
DA:345,17
DA:346,17
DA:347,17
DA:350,17
DA:355,17
DA:356,17
DA:357,17
DA:358,17
DA:359,17
DA:360,17
DA:363,17
DA:364,17
DA:365,17
DA:366,17
DA:371,17
DA:372,17
DA:373,17
DA:374,17
DA:375,17
DA:377,17
DA:378,17
DA:379,17
DA:382,17
DA:383,17
DA:384,17
DA:385,17
DA:388,17
DA:389,17
DA:390,17
DA:391,17
DA:394,17
DA:395,17
DA:396,17
DA:397,17
DA:398,17
DA:399,17
DA:404,17
DA:405,17
DA:406,34
DA:407,34
DA:408,34
DA:409,34
DA:410,34
DA:411,34
DA:412,34
DA:413,34
DA:414,34
DA:415,34
DA:416,34
DA:417,17
DA:418,17
DA:419,17
DA:420,17
DA:421,17
DA:422,0
DA:424,17
BRF:0
BRH:0
LF:271
LH:270
end_of_record
SF:/Users/VD/Vootaa_Projects/vootaa-labs@github/nexus-node/crates/nexus-crypto/src/csprng.rs
FN:26,_RNvXNtCs7CUMwCPdTtL_12nexus_crypto6csprngNtB2_5OsRngNtCs3Ukpp9bpRta_9rand_core6TryRng12try_next_u32
FN:32,_RNvXNtCs7CUMwCPdTtL_12nexus_crypto6csprngNtB2_5OsRngNtCs3Ukpp9bpRta_9rand_core6TryRng12try_next_u64
FN:38,_RNvXNtCs7CUMwCPdTtL_12nexus_crypto6csprngNtB2_5OsRngNtCs3Ukpp9bpRta_9rand_core6TryRng14try_fill_bytes
FN:51,_RNvNtNtCsf4fsWjuY0Jk_12nexus_crypto6csprng5testss_28try_next_u32_and_u64_succeed
FN:70,_RNvNtNtCsf4fsWjuY0Jk_12nexus_crypto6csprng5testss_34try_fill_bytes_accepts_empty_slice
FN:59,_RNvNtNtCsf4fsWjuY0Jk_12nexus_crypto6csprng5testss_41try_fill_bytes_populates_requested_buffer
FN:26,_RNvXNtCsf4fsWjuY0Jk_12nexus_crypto6csprngNtB2_5OsRngNtCs3Ukpp9bpRta_9rand_core6TryRng12try_next_u32
FN:32,_RNvXNtCsf4fsWjuY0Jk_12nexus_crypto6csprngNtB2_5OsRngNtCs3Ukpp9bpRta_9rand_core6TryRng12try_next_u64
FN:38,_RNvXNtCsf4fsWjuY0Jk_12nexus_crypto6csprngNtB2_5OsRngNtCs3Ukpp9bpRta_9rand_core6TryRng14try_fill_bytes
FN:66,_RNCNvNtNtCsf4fsWjuY0Jk_12nexus_crypto6csprng5testss_41try_fill_bytes_populates_requested_buffer0B7_
FNDA:0,_RNvXNtCs7CUMwCPdTtL_12nexus_crypto6csprngNtB2_5OsRngNtCs3Ukpp9bpRta_9rand_core6TryRng12try_next_u32
FNDA:0,_RNvXNtCs7CUMwCPdTtL_12nexus_crypto6csprngNtB2_5OsRngNtCs3Ukpp9bpRta_9rand_core6TryRng12try_next_u64
FNDA:23351,_RNvXNtCs7CUMwCPdTtL_12nexus_crypto6csprngNtB2_5OsRngNtCs3Ukpp9bpRta_9rand_core6TryRng14try_fill_bytes
FNDA:12,_RNvNtNtCsf4fsWjuY0Jk_12nexus_crypto6csprng5testss_28try_next_u32_and_u64_succeed
FNDA:12,_RNvNtNtCsf4fsWjuY0Jk_12nexus_crypto6csprng5testss_34try_fill_bytes_accepts_empty_slice
FNDA:12,_RNvNtNtCsf4fsWjuY0Jk_12nexus_crypto6csprng5testss_41try_fill_bytes_populates_requested_buffer
FNDA:12,_RNvXNtCsf4fsWjuY0Jk_12nexus_crypto6csprngNtB2_5OsRngNtCs3Ukpp9bpRta_9rand_core6TryRng12try_next_u32
FNDA:12,_RNvXNtCsf4fsWjuY0Jk_12nexus_crypto6csprngNtB2_5OsRngNtCs3Ukpp9bpRta_9rand_core6TryRng12try_next_u64
FNDA:597,_RNvXNtCsf4fsWjuY0Jk_12nexus_crypto6csprngNtB2_5OsRngNtCs3Ukpp9bpRta_9rand_core6TryRng14try_fill_bytes
FNDA:12,_RNCNvNtNtCsf4fsWjuY0Jk_12nexus_crypto6csprng5testss_41try_fill_bytes_populates_requested_buffer0B7_
FNF:7
FNH:7
DA:26,12
DA:27,12
DA:28,12
DA:29,12
DA:30,12
DA:32,12
DA:33,12
DA:34,12
DA:35,12
DA:36,12
DA:38,23948
DA:39,23948
DA:40,23948
DA:41,23948
DA:51,12
DA:52,12
DA:53,12
DA:54,12
DA:55,12
DA:56,12
DA:59,12
DA:60,12
DA:61,12
DA:62,12
DA:63,12
DA:64,12
DA:65,12
DA:66,12
DA:67,12
DA:70,12
DA:71,12
DA:72,12
DA:73,12
DA:74,12
DA:75,12
DA:76,12
BRF:0
BRH:0
LF:37
LH:37
end_of_record
SF:/Users/VD/Vootaa_Projects/vootaa-labs@github/nexus-node/crates/nexus-crypto/src/falcon.rs
FN:229,_RNCNCNvXs5_NtCs7CUMwCPdTtL_12nexus_crypto6falconNtB9_12FalconSignerNtNtBb_6traits13BatchVerifier12batch_verify00Bb_
FN:39,_RNCNvMNtCs7CUMwCPdTtL_12nexus_crypto6falconNtB4_16FalconSigningKey10from_bytes0B6_
FN:80,_RNCNvMs0_NtCs7CUMwCPdTtL_12nexus_crypto6falconNtB7_15FalconVerifyKey10from_bytes0B9_
FN:120,_RNCNvMs2_NtCs7CUMwCPdTtL_12nexus_crypto6falconNtB7_15FalconSignature10from_bytes0B9_
FN:191,_RNCNvXs4_NtCs7CUMwCPdTtL_12nexus_crypto6falconNtB7_12FalconSignerNtNtB9_6traits6Signer6verify0B9_
FN:201,_RNCNvXs4_NtCs7CUMwCPdTtL_12nexus_crypto6falconNtB7_12FalconSignerNtNtB9_6traits6Signer6verifys0_0B9_
FN:196,_RNCNvXs4_NtCs7CUMwCPdTtL_12nexus_crypto6falconNtB7_12FalconSignerNtNtB9_6traits6Signer6verifys_0B9_
FN:226,_RNCNvXs5_NtCs7CUMwCPdTtL_12nexus_crypto6falconNtB7_12FalconSignerNtNtB9_6traits13BatchVerifier12batch_verify0B9_
FN:36,_RNvMNtCs7CUMwCPdTtL_12nexus_crypto6falconNtB2_16FalconSigningKey10from_bytes
FN:56,_RNvMNtCs7CUMwCPdTtL_12nexus_crypto6falconNtB2_16FalconSigningKey8as_bytes
FN:78,_RNvMs0_NtCs7CUMwCPdTtL_12nexus_crypto6falconNtB5_15FalconVerifyKey10from_bytes
FN:93,_RNvMs0_NtCs7CUMwCPdTtL_12nexus_crypto6falconNtB5_15FalconVerifyKey8as_bytes
FN:119,_RNvMs2_NtCs7CUMwCPdTtL_12nexus_crypto6falconNtB5_15FalconSignature10from_bytes
FN:135,_RNvMs2_NtCs7CUMwCPdTtL_12nexus_crypto6falconNtB5_15FalconSignature8as_bytes
FN:152,_RNvNtCs7CUMwCPdTtL_12nexus_crypto6falcon14domain_message
FN:99,_RNvXs1_NtCs7CUMwCPdTtL_12nexus_crypto6falconNtB5_15FalconVerifyKeyNtNtCslNfmTnNkGed_4core3fmt5Debug3fmt
FN:141,_RNvXs3_NtCs7CUMwCPdTtL_12nexus_crypto6falconNtB5_15FalconSignatureNtNtCslNfmTnNkGed_4core3fmt5Debug3fmt
FN:208,_RNvXs4_NtCs7CUMwCPdTtL_12nexus_crypto6falconNtB5_12FalconSignerNtNtB7_6traits6Signer14signature_size
FN:212,_RNvXs4_NtCs7CUMwCPdTtL_12nexus_crypto6falconNtB5_12FalconSignerNtNtB7_6traits6Signer15verify_key_size
FN:162,_RNvXs4_NtCs7CUMwCPdTtL_12nexus_crypto6falconNtB5_12FalconSignerNtNtB7_6traits6Signer16generate_keypair
FN:173,_RNvXs4_NtCs7CUMwCPdTtL_12nexus_crypto6falconNtB5_12FalconSignerNtNtB7_6traits6Signer4sign
FN:184,_RNvXs4_NtCs7CUMwCPdTtL_12nexus_crypto6falconNtB5_12FalconSignerNtNtB7_6traits6Signer6verify
FN:220,_RNvXs5_NtCs7CUMwCPdTtL_12nexus_crypto6falconNtB5_12FalconSignerNtNtB7_6traits13BatchVerifier12batch_verify
FN:62,_RNvXs_NtCs7CUMwCPdTtL_12nexus_crypto6falconNtB4_16FalconSigningKeyNtNtCslNfmTnNkGed_4core3fmt5Debug3fmt
FN:56,_RNvMNtCsf4fsWjuY0Jk_12nexus_crypto6falconNtB2_16FalconSigningKey8as_bytes
FN:229,_RNCNCNvXs5_NtCsf4fsWjuY0Jk_12nexus_crypto6falconNtB9_12FalconSignerNtNtBb_6traits13BatchVerifier12batch_verify00Bb_
FN:39,_RNCNvMNtCsf4fsWjuY0Jk_12nexus_crypto6falconNtB4_16FalconSigningKey10from_bytes0B6_
FN:80,_RNCNvMs0_NtCsf4fsWjuY0Jk_12nexus_crypto6falconNtB7_15FalconVerifyKey10from_bytes0B9_
FN:120,_RNCNvMs2_NtCsf4fsWjuY0Jk_12nexus_crypto6falconNtB7_15FalconSignature10from_bytes0B9_
FN:191,_RNCNvXs4_NtCsf4fsWjuY0Jk_12nexus_crypto6falconNtB7_12FalconSignerNtNtB9_6traits6Signer6verify0B9_
FN:201,_RNCNvXs4_NtCsf4fsWjuY0Jk_12nexus_crypto6falconNtB7_12FalconSignerNtNtB9_6traits6Signer6verifys0_0B9_
FN:196,_RNCNvXs4_NtCsf4fsWjuY0Jk_12nexus_crypto6falconNtB7_12FalconSignerNtNtB9_6traits6Signer6verifys_0B9_
FN:226,_RNCNvXs5_NtCsf4fsWjuY0Jk_12nexus_crypto6falconNtB7_12FalconSignerNtNtB9_6traits13BatchVerifier12batch_verify0B9_
FN:292,_RNCNvNtNtCsf4fsWjuY0Jk_12nexus_crypto6falcon5testss_22batch_verify_all_valid0B7_
FN:261,_RNvNtNtCsf4fsWjuY0Jk_12nexus_crypto6falcon5testss_15sign_and_verify
FN:282,_RNvNtNtCsf4fsWjuY0Jk_12nexus_crypto6falcon5testss_15wrong_key_fails
FN:251,_RNvNtNtCsf4fsWjuY0Jk_12nexus_crypto6falcon5testss_18keypair_generation
FN:275,_RNvNtNtCsf4fsWjuY0Jk_12nexus_crypto6falcon5testss_18wrong_domain_fails
FN:334,_RNvNtNtCsf4fsWjuY0Jk_12nexus_crypto6falcon5testss_19signature_roundtrip
FN:268,_RNvNtNtCsf4fsWjuY0Jk_12nexus_crypto6falcon5testss_19wrong_message_fails
FN:342,_RNvNtNtCsf4fsWjuY0Jk_12nexus_crypto6falcon5testss_20verify_key_roundtrip
FN:290,_RNvNtNtCsf4fsWjuY0Jk_12nexus_crypto6falcon5testss_22batch_verify_all_valid
FN:303,_RNvNtNtCsf4fsWjuY0Jk_12nexus_crypto6falcon5testss_28batch_verify_detects_invalid
FN:431,_RNvNtNtCsf4fsWjuY0Jk_12nexus_crypto6falcon5testss_30batch_verify_empty_input_is_ok
FN:415,_RNvNtNtCsf4fsWjuY0Jk_12nexus_crypto6falcon5testss_38verify_rejects_corrupt_signature_bytes
FN:349,_RNvNtNtCsf4fsWjuY0Jk_12nexus_crypto6falcon5testss_39debug_formats_expose_only_safe_metadata
FN:398,_RNvNtNtCsf4fsWjuY0Jk_12nexus_crypto6falcon5testss_39verify_rejects_corrupt_public_key_bytes
FN:376,_RNvNtNtCsf4fsWjuY0Jk_12nexus_crypto6falcon5testss_42verify_key_from_bytes_rejects_wrong_length
FN:436,_RNvNtNtCsf4fsWjuY0Jk_12nexus_crypto6falcon5testss_43scheme_size_constants_match_encoded_outputs
FN:387,_RNvNtNtCsf4fsWjuY0Jk_12nexus_crypto6falcon5testss_43signature_from_bytes_rejects_invalid_length
FN:365,_RNvNtNtCsf4fsWjuY0Jk_12nexus_crypto6falcon5testss_43signing_key_from_bytes_rejects_wrong_length
FN:36,_RNvMNtCsf4fsWjuY0Jk_12nexus_crypto6falconNtB2_16FalconSigningKey10from_bytes
FN:78,_RNvMs0_NtCsf4fsWjuY0Jk_12nexus_crypto6falconNtB5_15FalconVerifyKey10from_bytes
FN:93,_RNvMs0_NtCsf4fsWjuY0Jk_12nexus_crypto6falconNtB5_15FalconVerifyKey8as_bytes
FN:119,_RNvMs2_NtCsf4fsWjuY0Jk_12nexus_crypto6falconNtB5_15FalconSignature10from_bytes
FN:135,_RNvMs2_NtCsf4fsWjuY0Jk_12nexus_crypto6falconNtB5_15FalconSignature8as_bytes
FN:152,_RNvNtCsf4fsWjuY0Jk_12nexus_crypto6falcon14domain_message
FN:99,_RNvXs1_NtCsf4fsWjuY0Jk_12nexus_crypto6falconNtB5_15FalconVerifyKeyNtNtCslNfmTnNkGed_4core3fmt5Debug3fmt
FN:141,_RNvXs3_NtCsf4fsWjuY0Jk_12nexus_crypto6falconNtB5_15FalconSignatureNtNtCslNfmTnNkGed_4core3fmt5Debug3fmt
FN:208,_RNvXs4_NtCsf4fsWjuY0Jk_12nexus_crypto6falconNtB5_12FalconSignerNtNtB7_6traits6Signer14signature_size
FN:212,_RNvXs4_NtCsf4fsWjuY0Jk_12nexus_crypto6falconNtB5_12FalconSignerNtNtB7_6traits6Signer15verify_key_size
FN:162,_RNvXs4_NtCsf4fsWjuY0Jk_12nexus_crypto6falconNtB5_12FalconSignerNtNtB7_6traits6Signer16generate_keypair
FN:173,_RNvXs4_NtCsf4fsWjuY0Jk_12nexus_crypto6falconNtB5_12FalconSignerNtNtB7_6traits6Signer4sign
FN:184,_RNvXs4_NtCsf4fsWjuY0Jk_12nexus_crypto6falconNtB5_12FalconSignerNtNtB7_6traits6Signer6verify
FN:220,_RNvXs5_NtCsf4fsWjuY0Jk_12nexus_crypto6falconNtB5_12FalconSignerNtNtB7_6traits13BatchVerifier12batch_verify
FN:62,_RNvXs_NtCsf4fsWjuY0Jk_12nexus_crypto6falconNtB4_16FalconSigningKeyNtNtCslNfmTnNkGed_4core3fmt5Debug3fmt
FNDA:0,_RNCNCNvXs5_NtCs7CUMwCPdTtL_12nexus_crypto6falconNtB9_12FalconSignerNtNtBb_6traits13BatchVerifier12batch_verify00Bb_
FNDA:2,_RNCNvMNtCs7CUMwCPdTtL_12nexus_crypto6falconNtB4_16FalconSigningKey10from_bytes0B6_
FNDA:2,_RNCNvMs0_NtCs7CUMwCPdTtL_12nexus_crypto6falconNtB7_15FalconVerifyKey10from_bytes0B9_
FNDA:0,_RNCNvMs2_NtCs7CUMwCPdTtL_12nexus_crypto6falconNtB7_15FalconSignature10from_bytes0B9_
FNDA:0,_RNCNvXs4_NtCs7CUMwCPdTtL_12nexus_crypto6falconNtB7_12FalconSignerNtNtB9_6traits6Signer6verify0B9_
FNDA:270,_RNCNvXs4_NtCs7CUMwCPdTtL_12nexus_crypto6falconNtB7_12FalconSignerNtNtB9_6traits6Signer6verifys0_0B9_
FNDA:0,_RNCNvXs4_NtCs7CUMwCPdTtL_12nexus_crypto6falconNtB7_12FalconSignerNtNtB9_6traits6Signer6verifys_0B9_
FNDA:0,_RNCNvXs5_NtCs7CUMwCPdTtL_12nexus_crypto6falconNtB7_12FalconSignerNtNtB9_6traits13BatchVerifier12batch_verify0B9_
FNDA:44,_RNvMNtCs7CUMwCPdTtL_12nexus_crypto6falconNtB2_16FalconSigningKey10from_bytes
FNDA:201,_RNvMNtCs7CUMwCPdTtL_12nexus_crypto6falconNtB2_16FalconSigningKey8as_bytes
FNDA:1424,_RNvMs0_NtCs7CUMwCPdTtL_12nexus_crypto6falconNtB5_15FalconVerifyKey10from_bytes
FNDA:5685,_RNvMs0_NtCs7CUMwCPdTtL_12nexus_crypto6falconNtB5_15FalconVerifyKey8as_bytes
FNDA:561,_RNvMs2_NtCs7CUMwCPdTtL_12nexus_crypto6falconNtB5_15FalconSignature10from_bytes
FNDA:549,_RNvMs2_NtCs7CUMwCPdTtL_12nexus_crypto6falconNtB5_15FalconSignature8as_bytes
FNDA:24078,_RNvNtCs7CUMwCPdTtL_12nexus_crypto6falcon14domain_message
FNDA:0,_RNvXs1_NtCs7CUMwCPdTtL_12nexus_crypto6falconNtB5_15FalconVerifyKeyNtNtCslNfmTnNkGed_4core3fmt5Debug3fmt
FNDA:0,_RNvXs3_NtCs7CUMwCPdTtL_12nexus_crypto6falconNtB5_15FalconSignatureNtNtCslNfmTnNkGed_4core3fmt5Debug3fmt
FNDA:0,_RNvXs4_NtCs7CUMwCPdTtL_12nexus_crypto6falconNtB5_12FalconSignerNtNtB7_6traits6Signer14signature_size
FNDA:0,_RNvXs4_NtCs7CUMwCPdTtL_12nexus_crypto6falconNtB5_12FalconSignerNtNtB7_6traits6Signer15verify_key_size
FNDA:57181,_RNvXs4_NtCs7CUMwCPdTtL_12nexus_crypto6falconNtB5_12FalconSignerNtNtB7_6traits6Signer16generate_keypair
FNDA:13990,_RNvXs4_NtCs7CUMwCPdTtL_12nexus_crypto6falconNtB5_12FalconSignerNtNtB7_6traits6Signer4sign
FNDA:10088,_RNvXs4_NtCs7CUMwCPdTtL_12nexus_crypto6falconNtB5_12FalconSignerNtNtB7_6traits6Signer6verify
FNDA:0,_RNvXs5_NtCs7CUMwCPdTtL_12nexus_crypto6falconNtB5_12FalconSignerNtNtB7_6traits13BatchVerifier12batch_verify
FNDA:0,_RNvXs_NtCs7CUMwCPdTtL_12nexus_crypto6falconNtB4_16FalconSigningKeyNtNtCslNfmTnNkGed_4core3fmt5Debug3fmt
FNDA:0,_RNvMNtCsf4fsWjuY0Jk_12nexus_crypto6falconNtB2_16FalconSigningKey8as_bytes
FNDA:14,_RNCNCNvXs5_NtCsf4fsWjuY0Jk_12nexus_crypto6falconNtB9_12FalconSignerNtNtBb_6traits13BatchVerifier12batch_verify00Bb_
FNDA:12,_RNCNvMNtCsf4fsWjuY0Jk_12nexus_crypto6falconNtB4_16FalconSigningKey10from_bytes0B6_
FNDA:12,_RNCNvMs0_NtCsf4fsWjuY0Jk_12nexus_crypto6falconNtB7_15FalconVerifyKey10from_bytes0B9_
FNDA:12,_RNCNvMs2_NtCsf4fsWjuY0Jk_12nexus_crypto6falconNtB7_15FalconSignature10from_bytes0B9_
FNDA:11,_RNCNvXs4_NtCsf4fsWjuY0Jk_12nexus_crypto6falconNtB7_12FalconSignerNtNtB9_6traits6Signer6verify0B9_
FNDA:56,_RNCNvXs4_NtCsf4fsWjuY0Jk_12nexus_crypto6falconNtB7_12FalconSignerNtNtB9_6traits6Signer6verifys0_0B9_
FNDA:11,_RNCNvXs4_NtCsf4fsWjuY0Jk_12nexus_crypto6falconNtB7_12FalconSignerNtNtB9_6traits6Signer6verifys_0B9_
FNDA:84,_RNCNvXs5_NtCsf4fsWjuY0Jk_12nexus_crypto6falconNtB7_12FalconSignerNtNtB9_6traits13BatchVerifier12batch_verify0B9_
FNDA:56,_RNCNvNtNtCsf4fsWjuY0Jk_12nexus_crypto6falcon5testss_22batch_verify_all_valid0B7_
FNDA:14,_RNvNtNtCsf4fsWjuY0Jk_12nexus_crypto6falcon5testss_15sign_and_verify
FNDA:14,_RNvNtNtCsf4fsWjuY0Jk_12nexus_crypto6falcon5testss_15wrong_key_fails
FNDA:14,_RNvNtNtCsf4fsWjuY0Jk_12nexus_crypto6falcon5testss_18keypair_generation
FNDA:14,_RNvNtNtCsf4fsWjuY0Jk_12nexus_crypto6falcon5testss_18wrong_domain_fails
FNDA:14,_RNvNtNtCsf4fsWjuY0Jk_12nexus_crypto6falcon5testss_19signature_roundtrip
FNDA:14,_RNvNtNtCsf4fsWjuY0Jk_12nexus_crypto6falcon5testss_19wrong_message_fails
FNDA:14,_RNvNtNtCsf4fsWjuY0Jk_12nexus_crypto6falcon5testss_20verify_key_roundtrip
FNDA:14,_RNvNtNtCsf4fsWjuY0Jk_12nexus_crypto6falcon5testss_22batch_verify_all_valid
FNDA:14,_RNvNtNtCsf4fsWjuY0Jk_12nexus_crypto6falcon5testss_28batch_verify_detects_invalid
FNDA:10,_RNvNtNtCsf4fsWjuY0Jk_12nexus_crypto6falcon5testss_30batch_verify_empty_input_is_ok
FNDA:10,_RNvNtNtCsf4fsWjuY0Jk_12nexus_crypto6falcon5testss_38verify_rejects_corrupt_signature_bytes
FNDA:10,_RNvNtNtCsf4fsWjuY0Jk_12nexus_crypto6falcon5testss_39debug_formats_expose_only_safe_metadata
FNDA:10,_RNvNtNtCsf4fsWjuY0Jk_12nexus_crypto6falcon5testss_39verify_rejects_corrupt_public_key_bytes
FNDA:10,_RNvNtNtCsf4fsWjuY0Jk_12nexus_crypto6falcon5testss_42verify_key_from_bytes_rejects_wrong_length
FNDA:10,_RNvNtNtCsf4fsWjuY0Jk_12nexus_crypto6falcon5testss_43scheme_size_constants_match_encoded_outputs
FNDA:10,_RNvNtNtCsf4fsWjuY0Jk_12nexus_crypto6falcon5testss_43signature_from_bytes_rejects_invalid_length
FNDA:10,_RNvNtNtCsf4fsWjuY0Jk_12nexus_crypto6falcon5testss_43signing_key_from_bytes_rejects_wrong_length
FNDA:12,_RNvMNtCsf4fsWjuY0Jk_12nexus_crypto6falconNtB2_16FalconSigningKey10from_bytes
FNDA:26,_RNvMs0_NtCsf4fsWjuY0Jk_12nexus_crypto6falconNtB5_15FalconVerifyKey10from_bytes
FNDA:82,_RNvMs0_NtCsf4fsWjuY0Jk_12nexus_crypto6falconNtB5_15FalconVerifyKey8as_bytes
FNDA:26,_RNvMs2_NtCsf4fsWjuY0Jk_12nexus_crypto6falconNtB5_15FalconSignature10from_bytes
FNDA:49,_RNvMs2_NtCsf4fsWjuY0Jk_12nexus_crypto6falconNtB5_15FalconSignature8as_bytes
FNDA:350,_RNvNtCsf4fsWjuY0Jk_12nexus_crypto6falcon14domain_message
FNDA:11,_RNvXs1_NtCsf4fsWjuY0Jk_12nexus_crypto6falconNtB5_15FalconVerifyKeyNtNtCslNfmTnNkGed_4core3fmt5Debug3fmt
FNDA:11,_RNvXs3_NtCsf4fsWjuY0Jk_12nexus_crypto6falconNtB5_15FalconSignatureNtNtCslNfmTnNkGed_4core3fmt5Debug3fmt
FNDA:12,_RNvXs4_NtCsf4fsWjuY0Jk_12nexus_crypto6falconNtB5_12FalconSignerNtNtB7_6traits6Signer14signature_size
FNDA:26,_RNvXs4_NtCsf4fsWjuY0Jk_12nexus_crypto6falconNtB5_12FalconSignerNtNtB7_6traits6Signer15verify_key_size
FNDA:241,_RNvXs4_NtCsf4fsWjuY0Jk_12nexus_crypto6falconNtB5_12FalconSignerNtNtB7_6traits6Signer16generate_keypair
FNDA:174,_RNvXs4_NtCsf4fsWjuY0Jk_12nexus_crypto6falconNtB5_12FalconSignerNtNtB7_6traits6Signer4sign
FNDA:176,_RNvXs4_NtCsf4fsWjuY0Jk_12nexus_crypto6falconNtB5_12FalconSignerNtNtB7_6traits6Signer6verify
FNDA:40,_RNvXs5_NtCsf4fsWjuY0Jk_12nexus_crypto6falconNtB5_12FalconSignerNtNtB7_6traits13BatchVerifier12batch_verify
FNDA:14,_RNvXs_NtCsf4fsWjuY0Jk_12nexus_crypto6falconNtB4_16FalconSigningKeyNtNtCslNfmTnNkGed_4core3fmt5Debug3fmt
FNF:42
FNH:42
DA:36,56
DA:37,56
DA:38,56
DA:39,56
DA:40,14
DA:41,14
DA:42,14
DA:43,14
DA:44,14
DA:45,56
DA:46,42
DA:47,42
DA:48,42
DA:49,56
DA:56,201
DA:57,201
DA:58,201
DA:62,14
DA:63,14
DA:64,14
DA:78,1450
DA:79,1450
DA:80,1450
DA:81,14
DA:82,14
DA:83,14
DA:84,14
DA:85,14
DA:86,1450
DA:87,1436
DA:88,1436
DA:89,1436
DA:90,1450
DA:93,5767
DA:94,5767
DA:95,5767
DA:99,11
DA:100,11
DA:101,11
DA:102,11
DA:119,587
DA:120,587
DA:121,12
DA:122,12
DA:123,12
DA:124,12
DA:125,12
DA:126,12
DA:127,12
DA:128,587
DA:129,575
DA:130,575
DA:131,575
DA:132,587
DA:135,598
DA:136,598
DA:137,598
DA:141,11
DA:142,11
DA:143,11
DA:152,24428
DA:153,24428
DA:154,24428
DA:155,24428
DA:162,57422
DA:163,57422
DA:164,57422
DA:165,57422
DA:166,57422
DA:167,57422
DA:168,57422
DA:169,57422
DA:170,57422
DA:171,57422
DA:173,14164
DA:174,14164
DA:175,14164
DA:176,14164
DA:177,14164
DA:178,14164
DA:179,14164
DA:180,14164
DA:181,14164
DA:182,14164
DA:184,10264
DA:185,10264
DA:186,10264
DA:187,10264
DA:188,10264
DA:189,10264
DA:190,10264
DA:191,10264
DA:192,11
DA:193,11
DA:194,11
DA:195,10264
DA:196,10253
DA:197,11
DA:198,11
DA:199,11
DA:200,10253
DA:201,10242
DA:202,326
DA:203,326
DA:204,326
DA:205,10242
DA:206,10264
DA:208,12
DA:209,12
DA:210,12
DA:212,26
DA:213,26
DA:214,26
DA:220,40
DA:221,40
DA:222,40
DA:223,40
DA:224,40
DA:225,40
DA:226,84
DA:227,84
DA:228,84
DA:229,84
DA:230,84
DA:231,40
DA:232,40
DA:233,40
DA:234,26
DA:236,14
DA:237,14
DA:238,14
DA:239,14
DA:240,14
DA:242,40
DA:251,14
DA:252,14
DA:253,14
DA:254,14
DA:256,14
DA:257,14
DA:258,14
DA:261,14
DA:262,14
DA:263,14
DA:264,14
DA:265,14
DA:268,14
DA:269,14
DA:270,14
DA:271,14
DA:272,14
DA:275,14
DA:276,14
DA:277,14
DA:278,14
DA:279,14
DA:282,14
DA:283,14
DA:284,14
DA:285,14
DA:286,14
DA:287,14
DA:290,14
DA:291,14
DA:292,56
DA:293,56
DA:294,56
DA:295,56
DA:296,56
DA:297,56
DA:298,14
DA:299,14
DA:300,14
DA:303,14
DA:304,14
DA:305,14
DA:306,14
DA:307,14
DA:308,14
DA:309,14
DA:310,14
DA:311,14
DA:312,14
DA:313,14
DA:314,14
DA:315,14
DA:316,14
DA:317,14
DA:318,14
DA:319,14
DA:321,14
DA:322,14
DA:323,14
DA:324,14
DA:325,14
DA:326,14
DA:327,14
DA:329,0
DA:331,14
DA:334,14
DA:335,14
DA:336,14
DA:337,14
DA:338,14
DA:339,14
DA:342,14
DA:343,14
DA:344,14
DA:345,14
DA:346,14
DA:349,10
DA:350,10
DA:351,10
DA:352,10
DA:353,10
DA:354,10
DA:355,10
DA:356,10
DA:357,10
DA:358,10
DA:359,10
DA:360,10
DA:361,10
DA:362,10
DA:365,10
DA:366,10
DA:367,10
DA:368,10
DA:369,10
DA:371,0
DA:373,10
DA:376,10
DA:377,10
DA:378,10
DA:379,10
DA:380,10
DA:382,0
DA:384,10
DA:387,10
DA:388,10
DA:389,10
DA:390,10
DA:391,10
DA:393,0
DA:395,10
DA:398,10
DA:399,10
DA:400,10
DA:401,10
DA:402,10
DA:403,10
DA:404,10
DA:405,10
DA:406,10
DA:407,10
DA:408,10
DA:410,0
DA:412,10
DA:415,10
DA:416,10
DA:417,10
DA:418,10
DA:419,10
DA:420,10
DA:421,10
DA:422,10
DA:423,10
DA:424,10
DA:426,0
DA:428,10
DA:431,10
DA:432,10
DA:433,10
DA:436,10
DA:437,10
DA:438,10
DA:439,10
DA:440,10
DA:441,10
DA:442,10
DA:443,10
BRF:0
BRH:0
LF:298
LH:292
end_of_record
SF:/Users/VD/Vootaa_Projects/vootaa-labs@github/nexus-node/crates/nexus-crypto/src/hasher.rs
FN:28,_RNvMNtCs7CUMwCPdTtL_12nexus_crypto6hasherNtB2_12Blake3Hasher6digestCs9QvvabE0u1j_15nexus_consensus
FN:28,_RNvMNtCs7CUMwCPdTtL_12nexus_crypto6hasherNtB2_12Blake3Hasher6digestCs2iieuJ27lob_13nexus_network
FN:28,_RNvMNtCs7CUMwCPdTtL_12nexus_crypto6hasherNtB2_12Blake3Hasher6digestB4_
FN:77,_RNCNvXs_NtCs7CUMwCPdTtL_12nexus_crypto6hasherNtB6_12Blake3HasherNtNtB8_6traits12CryptoHasher11merkle_root0B8_
FN:61,_RNvXs_NtCs7CUMwCPdTtL_12nexus_crypto6hasherNtB4_12Blake3HasherNtNtB6_6traits12CryptoHasher11merkle_root
FN:45,_RNvXs_NtCs7CUMwCPdTtL_12nexus_crypto6hasherNtB4_12Blake3HasherNtNtB6_6traits12CryptoHasher15new_with_domain
FN:36,_RNvXs_NtCs7CUMwCPdTtL_12nexus_crypto6hasherNtB4_12Blake3HasherNtNtB6_6traits12CryptoHasher4hash
FN:52,_RNvXs_NtCs7CUMwCPdTtL_12nexus_crypto6hasherNtB4_12Blake3HasherNtNtB6_6traits12CryptoHasher6update
FN:57,_RNvXs_NtCs7CUMwCPdTtL_12nexus_crypto6hasherNtB4_12Blake3HasherNtNtB6_6traits12CryptoHasher8finalize
FN:28,_RNvMNtCs7CUMwCPdTtL_12nexus_crypto6hasherNtB2_12Blake3Hasher6digestCsgtRcUsPENq0_12nexus_config
FN:28,_RNvMNtCs7CUMwCPdTtL_12nexus_crypto6hasherNtB2_12Blake3Hasher6digestCs6zOrHhYlc8W_15nexus_consensus
FN:28,_RNvMNtCs7CUMwCPdTtL_12nexus_crypto6hasherNtB2_12Blake3Hasher6digestCsczoQVObes9Y_16nexus_test_utils
FN:148,_RNCNvNtNtCsf4fsWjuY0Jk_12nexus_crypto6hasher5testss_35merkle_root_odd_count_deterministic0B7_
FN:77,_RNCNvXs_NtCsf4fsWjuY0Jk_12nexus_crypto6hasherNtB6_12Blake3HasherNtNtB8_6traits12CryptoHasher11merkle_root0B8_
FN:124,_RNvNtNtCsf4fsWjuY0Jk_12nexus_crypto6hasher5testss_17merkle_root_empty
FN:136,_RNvNtNtCsf4fsWjuY0Jk_12nexus_crypto6hasher5testss_22merkle_root_two_leaves
FN:99,_RNvNtNtCsf4fsWjuY0Jk_12nexus_crypto6hasher5testss_22one_shot_deterministic
FN:130,_RNvNtNtCsf4fsWjuY0Jk_12nexus_crypto6hasher5testss_23merkle_root_single_leaf
FN:113,_RNvNtNtCsf4fsWjuY0Jk_12nexus_crypto6hasher5testss_28incremental_matches_one_shot
FN:155,_RNvNtNtCsf4fsWjuY0Jk_12nexus_crypto6hasher5testss_29empty_data_hashes_to_non_zero
FN:147,_RNvNtNtCsf4fsWjuY0Jk_12nexus_crypto6hasher5testss_35merkle_root_odd_count_deterministic
FN:106,_RNvNtNtCsf4fsWjuY0Jk_12nexus_crypto6hasher5testss_43different_domains_produce_different_digests
FN:28,_RNvMNtCsf4fsWjuY0Jk_12nexus_crypto6hasherNtB2_12Blake3Hasher6digestB4_
FN:61,_RNvXs_NtCsf4fsWjuY0Jk_12nexus_crypto6hasherNtB4_12Blake3HasherNtNtB6_6traits12CryptoHasher11merkle_root
FN:45,_RNvXs_NtCsf4fsWjuY0Jk_12nexus_crypto6hasherNtB4_12Blake3HasherNtNtB6_6traits12CryptoHasher15new_with_domain
FN:36,_RNvXs_NtCsf4fsWjuY0Jk_12nexus_crypto6hasherNtB4_12Blake3HasherNtNtB6_6traits12CryptoHasher4hash
FN:52,_RNvXs_NtCsf4fsWjuY0Jk_12nexus_crypto6hasherNtB4_12Blake3HasherNtNtB6_6traits12CryptoHasher6update
FN:57,_RNvXs_NtCsf4fsWjuY0Jk_12nexus_crypto6hasherNtB4_12Blake3HasherNtNtB6_6traits12CryptoHasher8finalize
FN:28,_RNvMNtCs7CUMwCPdTtL_12nexus_crypto6hasherNtB2_12Blake3Hasher6digestCs88GkVJRILsZ_12nexus_config
FN:28,_RNvMNtCs7CUMwCPdTtL_12nexus_crypto6hasherNtB2_12Blake3Hasher6digestCsdCP7u41pGL2_13nexus_network
FN:28,_RNvMNtCs7CUMwCPdTtL_12nexus_crypto6hasherNtB2_12Blake3Hasher6digestCs6UsFVvCaSVw_10nexus_node
FN:28,_RNvMNtCs7CUMwCPdTtL_12nexus_crypto6hasherNtB2_12Blake3Hasher6digestCs2jSKwtTFQO2_16nexus_test_utils
FN:28,_RNvMNtCs7CUMwCPdTtL_12nexus_crypto6hasherNtB2_12Blake3Hasher6digestCs7gOarukpLvh_10nexus_node
FNDA:14362,_RNvMNtCs7CUMwCPdTtL_12nexus_crypto6hasherNtB2_12Blake3Hasher6digestCs9QvvabE0u1j_15nexus_consensus
FNDA:518,_RNvMNtCs7CUMwCPdTtL_12nexus_crypto6hasherNtB2_12Blake3Hasher6digestCs2iieuJ27lob_13nexus_network
FNDA:0,_RNvMNtCs7CUMwCPdTtL_12nexus_crypto6hasherNtB2_12Blake3Hasher6digestB4_
FNDA:0,_RNCNvXs_NtCs7CUMwCPdTtL_12nexus_crypto6hasherNtB6_12Blake3HasherNtNtB8_6traits12CryptoHasher11merkle_root0B8_
FNDA:0,_RNvXs_NtCs7CUMwCPdTtL_12nexus_crypto6hasherNtB4_12Blake3HasherNtNtB6_6traits12CryptoHasher11merkle_root
FNDA:0,_RNvXs_NtCs7CUMwCPdTtL_12nexus_crypto6hasherNtB4_12Blake3HasherNtNtB6_6traits12CryptoHasher15new_with_domain
FNDA:84892,_RNvXs_NtCs7CUMwCPdTtL_12nexus_crypto6hasherNtB4_12Blake3HasherNtNtB6_6traits12CryptoHasher4hash
FNDA:0,_RNvXs_NtCs7CUMwCPdTtL_12nexus_crypto6hasherNtB4_12Blake3HasherNtNtB6_6traits12CryptoHasher6update
FNDA:0,_RNvXs_NtCs7CUMwCPdTtL_12nexus_crypto6hasherNtB4_12Blake3HasherNtNtB6_6traits12CryptoHasher8finalize
FNDA:68,_RNvMNtCs7CUMwCPdTtL_12nexus_crypto6hasherNtB2_12Blake3Hasher6digestCsgtRcUsPENq0_12nexus_config
FNDA:1152,_RNvMNtCs7CUMwCPdTtL_12nexus_crypto6hasherNtB2_12Blake3Hasher6digestCs6zOrHhYlc8W_15nexus_consensus
FNDA:0,_RNvMNtCs7CUMwCPdTtL_12nexus_crypto6hasherNtB2_12Blake3Hasher6digestCsczoQVObes9Y_16nexus_test_utils
FNDA:70,_RNCNvNtNtCsf4fsWjuY0Jk_12nexus_crypto6hasher5testss_35merkle_root_odd_count_deterministic0B7_
FNDA:196,_RNCNvXs_NtCsf4fsWjuY0Jk_12nexus_crypto6hasherNtB6_12Blake3HasherNtNtB8_6traits12CryptoHasher11merkle_root0B8_
FNDA:14,_RNvNtNtCsf4fsWjuY0Jk_12nexus_crypto6hasher5testss_17merkle_root_empty
FNDA:14,_RNvNtNtCsf4fsWjuY0Jk_12nexus_crypto6hasher5testss_22merkle_root_two_leaves
FNDA:14,_RNvNtNtCsf4fsWjuY0Jk_12nexus_crypto6hasher5testss_22one_shot_deterministic
FNDA:14,_RNvNtNtCsf4fsWjuY0Jk_12nexus_crypto6hasher5testss_23merkle_root_single_leaf
FNDA:14,_RNvNtNtCsf4fsWjuY0Jk_12nexus_crypto6hasher5testss_28incremental_matches_one_shot
FNDA:14,_RNvNtNtCsf4fsWjuY0Jk_12nexus_crypto6hasher5testss_29empty_data_hashes_to_non_zero
FNDA:14,_RNvNtNtCsf4fsWjuY0Jk_12nexus_crypto6hasher5testss_35merkle_root_odd_count_deterministic
FNDA:14,_RNvNtNtCsf4fsWjuY0Jk_12nexus_crypto6hasher5testss_43different_domains_produce_different_digests
FNDA:196,_RNvMNtCsf4fsWjuY0Jk_12nexus_crypto6hasherNtB2_12Blake3Hasher6digestB4_
FNDA:84,_RNvXs_NtCsf4fsWjuY0Jk_12nexus_crypto6hasherNtB4_12Blake3HasherNtNtB6_6traits12CryptoHasher11merkle_root
FNDA:14,_RNvXs_NtCsf4fsWjuY0Jk_12nexus_crypto6hasherNtB4_12Blake3HasherNtNtB6_6traits12CryptoHasher15new_with_domain
FNDA:720,_RNvXs_NtCsf4fsWjuY0Jk_12nexus_crypto6hasherNtB4_12Blake3HasherNtNtB6_6traits12CryptoHasher4hash
FNDA:28,_RNvXs_NtCsf4fsWjuY0Jk_12nexus_crypto6hasherNtB4_12Blake3HasherNtNtB6_6traits12CryptoHasher6update
FNDA:14,_RNvXs_NtCsf4fsWjuY0Jk_12nexus_crypto6hasherNtB4_12Blake3HasherNtNtB6_6traits12CryptoHasher8finalize
FNDA:154,_RNvMNtCs7CUMwCPdTtL_12nexus_crypto6hasherNtB2_12Blake3Hasher6digestCs88GkVJRILsZ_12nexus_config
FNDA:1356,_RNvMNtCs7CUMwCPdTtL_12nexus_crypto6hasherNtB2_12Blake3Hasher6digestCsdCP7u41pGL2_13nexus_network
FNDA:126,_RNvMNtCs7CUMwCPdTtL_12nexus_crypto6hasherNtB2_12Blake3Hasher6digestCs6UsFVvCaSVw_10nexus_node
FNDA:70,_RNvMNtCs7CUMwCPdTtL_12nexus_crypto6hasherNtB2_12Blake3Hasher6digestCs2jSKwtTFQO2_16nexus_test_utils
FNDA:366,_RNvMNtCs7CUMwCPdTtL_12nexus_crypto6hasherNtB2_12Blake3Hasher6digestCs7gOarukpLvh_10nexus_node
FNF:16
FNH:16
DA:28,18368
DA:29,18368
DA:30,18368
DA:36,85612
DA:37,85612
DA:38,85612
DA:39,85612
DA:40,85612
DA:41,85612
DA:42,85612
DA:43,85612
DA:45,14
DA:46,14
DA:47,14
DA:48,14
DA:49,14
DA:50,14
DA:52,28
DA:53,28
DA:54,28
DA:55,28
DA:57,14
DA:58,14
DA:59,14
DA:61,84
DA:64,84
DA:65,14
DA:66,14
DA:69,56
DA:70,168
DA:71,112
DA:72,56
DA:73,56
DA:74,56
DA:75,112
DA:76,112
DA:77,196
DA:78,196
DA:79,196
DA:80,196
DA:81,196
DA:82,196
DA:83,196
DA:84,196
DA:85,112
DA:86,112
DA:87,56
DA:90,84
DA:99,14
DA:100,14
DA:101,14
DA:102,14
DA:103,14
DA:106,14
DA:107,14
DA:108,14
DA:109,14
DA:110,14
DA:113,14
DA:114,14
DA:115,14
DA:116,14
DA:117,14
DA:118,14
DA:119,14
DA:120,14
DA:121,14
DA:124,14
DA:125,14
DA:126,14
DA:127,14
DA:130,14
DA:131,14
DA:132,14
DA:133,14
DA:136,14
DA:137,14
DA:138,14
DA:139,14
DA:140,14
DA:141,14
DA:143,14
DA:144,14
DA:147,14
DA:148,70
DA:149,14
DA:150,14
DA:151,14
DA:152,14
DA:155,14
DA:156,14
DA:157,14
DA:158,14
BRF:0
BRH:0
LF:96
LH:96
end_of_record
SF:/Users/VD/Vootaa_Projects/vootaa-labs@github/nexus-node/crates/nexus-crypto/src/mldsa.rs
FN:38,_RNCNvMNtCs7CUMwCPdTtL_12nexus_crypto5mldsaNtB4_19DilithiumSigningKey10from_bytes0B6_
FN:81,_RNCNvMs0_NtCs7CUMwCPdTtL_12nexus_crypto5mldsaNtB7_18DilithiumVerifyKey10from_bytes0B9_
FN:130,_RNCNvMs2_NtCs7CUMwCPdTtL_12nexus_crypto5mldsaNtB7_18DilithiumSignature10from_bytes0B9_
FN:220,_RNCNvXs5_NtCs7CUMwCPdTtL_12nexus_crypto5mldsaNtB7_15DilithiumSignerNtNtB9_6traits6Signer6verify0B9_
FN:227,_RNCNvXs5_NtCs7CUMwCPdTtL_12nexus_crypto5mldsaNtB7_15DilithiumSignerNtNtB9_6traits6Signer6verifys_0B9_
FN:37,_RNvMNtCs7CUMwCPdTtL_12nexus_crypto5mldsaNtB2_19DilithiumSigningKey10from_bytes
FN:52,_RNvMNtCs7CUMwCPdTtL_12nexus_crypto5mldsaNtB2_19DilithiumSigningKey8as_bytes
FN:57,_RNvMNtCs7CUMwCPdTtL_12nexus_crypto5mldsaNtB2_19DilithiumSigningKey8to_inner
FN:79,_RNvMs0_NtCs7CUMwCPdTtL_12nexus_crypto5mldsaNtB5_18DilithiumVerifyKey10from_bytes
FN:97,_RNvMs0_NtCs7CUMwCPdTtL_12nexus_crypto5mldsaNtB5_18DilithiumVerifyKey8as_bytes
FN:102,_RNvMs0_NtCs7CUMwCPdTtL_12nexus_crypto5mldsaNtB5_18DilithiumVerifyKey8to_inner
FN:128,_RNvMs2_NtCs7CUMwCPdTtL_12nexus_crypto5mldsaNtB5_18DilithiumSignature10from_bytes
FN:144,_RNvMs2_NtCs7CUMwCPdTtL_12nexus_crypto5mldsaNtB5_18DilithiumSignature8as_bytes
FN:171,_RNvMs4_NtCs7CUMwCPdTtL_12nexus_crypto5mldsaNtB5_15DilithiumSigner17keypair_from_seed
FN:161,_RNvNtCs7CUMwCPdTtL_12nexus_crypto5mldsa14domain_message
FN:111,_RNvXs1_NtCs7CUMwCPdTtL_12nexus_crypto5mldsaNtB5_18DilithiumVerifyKeyNtNtCslNfmTnNkGed_4core3fmt5Debug3fmt
FN:150,_RNvXs3_NtCs7CUMwCPdTtL_12nexus_crypto5mldsaNtB5_18DilithiumSignatureNtNtCslNfmTnNkGed_4core3fmt5Debug3fmt
FN:232,_RNvXs5_NtCs7CUMwCPdTtL_12nexus_crypto5mldsaNtB5_15DilithiumSignerNtNtB7_6traits6Signer14signature_size
FN:237,_RNvXs5_NtCs7CUMwCPdTtL_12nexus_crypto5mldsaNtB5_15DilithiumSignerNtNtB7_6traits6Signer15verify_key_size
FN:186,_RNvXs5_NtCs7CUMwCPdTtL_12nexus_crypto5mldsaNtB5_15DilithiumSignerNtNtB7_6traits6Signer16generate_keypair
FN:202,_RNvXs5_NtCs7CUMwCPdTtL_12nexus_crypto5mldsaNtB5_15DilithiumSignerNtNtB7_6traits6Signer4sign
FN:211,_RNvXs5_NtCs7CUMwCPdTtL_12nexus_crypto5mldsaNtB5_15DilithiumSignerNtNtB7_6traits6Signer6verify
FN:63,_RNvXs_NtCs7CUMwCPdTtL_12nexus_crypto5mldsaNtB4_19DilithiumSigningKeyNtNtCslNfmTnNkGed_4core3fmt5Debug3fmt
FN:37,_RNvMNtCsf4fsWjuY0Jk_12nexus_crypto5mldsaNtB2_19DilithiumSigningKey10from_bytes
FN:52,_RNvMNtCsf4fsWjuY0Jk_12nexus_crypto5mldsaNtB2_19DilithiumSigningKey8as_bytes
FN:57,_RNvMNtCsf4fsWjuY0Jk_12nexus_crypto5mldsaNtB2_19DilithiumSigningKey8to_inner
FN:79,_RNvMs0_NtCsf4fsWjuY0Jk_12nexus_crypto5mldsaNtB5_18DilithiumVerifyKey10from_bytes
FN:97,_RNvMs0_NtCsf4fsWjuY0Jk_12nexus_crypto5mldsaNtB5_18DilithiumVerifyKey8as_bytes
FN:102,_RNvMs0_NtCsf4fsWjuY0Jk_12nexus_crypto5mldsaNtB5_18DilithiumVerifyKey8to_inner
FN:128,_RNvMs2_NtCsf4fsWjuY0Jk_12nexus_crypto5mldsaNtB5_18DilithiumSignature10from_bytes
FN:144,_RNvMs2_NtCsf4fsWjuY0Jk_12nexus_crypto5mldsaNtB5_18DilithiumSignature8as_bytes
FN:171,_RNvMs4_NtCsf4fsWjuY0Jk_12nexus_crypto5mldsaNtB5_15DilithiumSigner17keypair_from_seed
FN:161,_RNvNtCsf4fsWjuY0Jk_12nexus_crypto5mldsa14domain_message
FN:111,_RNvXs1_NtCsf4fsWjuY0Jk_12nexus_crypto5mldsaNtB5_18DilithiumVerifyKeyNtNtCslNfmTnNkGed_4core3fmt5Debug3fmt
FN:150,_RNvXs3_NtCsf4fsWjuY0Jk_12nexus_crypto5mldsaNtB5_18DilithiumSignatureNtNtCslNfmTnNkGed_4core3fmt5Debug3fmt
FN:232,_RNvXs5_NtCsf4fsWjuY0Jk_12nexus_crypto5mldsaNtB5_15DilithiumSignerNtNtB7_6traits6Signer14signature_size
FN:237,_RNvXs5_NtCsf4fsWjuY0Jk_12nexus_crypto5mldsaNtB5_15DilithiumSignerNtNtB7_6traits6Signer15verify_key_size
FN:186,_RNvXs5_NtCsf4fsWjuY0Jk_12nexus_crypto5mldsaNtB5_15DilithiumSignerNtNtB7_6traits6Signer16generate_keypair
FN:202,_RNvXs5_NtCsf4fsWjuY0Jk_12nexus_crypto5mldsaNtB5_15DilithiumSignerNtNtB7_6traits6Signer4sign
FN:211,_RNvXs5_NtCsf4fsWjuY0Jk_12nexus_crypto5mldsaNtB5_15DilithiumSignerNtNtB7_6traits6Signer6verify
FN:63,_RNvXs_NtCsf4fsWjuY0Jk_12nexus_crypto5mldsaNtB4_19DilithiumSigningKeyNtNtCslNfmTnNkGed_4core3fmt5Debug3fmt
FN:258,_RNvNtNtCsf4fsWjuY0Jk_12nexus_crypto5mldsa5testss_15sign_and_verify
FN:279,_RNvNtNtCsf4fsWjuY0Jk_12nexus_crypto5mldsa5testss_15wrong_key_fails
FN:249,_RNvNtNtCsf4fsWjuY0Jk_12nexus_crypto5mldsa5testss_18keypair_generation
FN:272,_RNvNtNtCsf4fsWjuY0Jk_12nexus_crypto5mldsa5testss_18wrong_domain_fails
FN:287,_RNvNtNtCsf4fsWjuY0Jk_12nexus_crypto5mldsa5testss_19signature_roundtrip
FN:265,_RNvNtNtCsf4fsWjuY0Jk_12nexus_crypto5mldsa5testss_19wrong_message_fails
FN:295,_RNvNtNtCsf4fsWjuY0Jk_12nexus_crypto5mldsa5testss_20verify_key_roundtrip
FN:367,_RNvNtNtCsf4fsWjuY0Jk_12nexus_crypto5mldsa5testss_34keypair_from_seed_is_deterministic
FN:351,_RNvNtNtCsf4fsWjuY0Jk_12nexus_crypto5mldsa5testss_38verify_rejects_corrupt_signature_bytes
FN:302,_RNvNtNtCsf4fsWjuY0Jk_12nexus_crypto5mldsa5testss_39debug_formats_expose_only_safe_metadata
FN:340,_RNvNtNtCsf4fsWjuY0Jk_12nexus_crypto5mldsa5testss_42signature_from_bytes_rejects_corrupt_bytes
FN:329,_RNvNtNtCsf4fsWjuY0Jk_12nexus_crypto5mldsa5testss_42verify_key_from_bytes_rejects_wrong_length
FN:377,_RNvNtNtCsf4fsWjuY0Jk_12nexus_crypto5mldsa5testss_43scheme_size_constants_match_encoded_outputs
FN:318,_RNvNtNtCsf4fsWjuY0Jk_12nexus_crypto5mldsa5testss_43signing_key_from_bytes_rejects_wrong_length
FN:38,_RNCNvMNtCsf4fsWjuY0Jk_12nexus_crypto5mldsaNtB4_19DilithiumSigningKey10from_bytes0B6_
FN:81,_RNCNvMs0_NtCsf4fsWjuY0Jk_12nexus_crypto5mldsaNtB7_18DilithiumVerifyKey10from_bytes0B9_
FN:130,_RNCNvMs2_NtCsf4fsWjuY0Jk_12nexus_crypto5mldsaNtB7_18DilithiumSignature10from_bytes0B9_
FN:220,_RNCNvXs5_NtCsf4fsWjuY0Jk_12nexus_crypto5mldsaNtB7_15DilithiumSignerNtNtB9_6traits6Signer6verify0B9_
FN:227,_RNCNvXs5_NtCsf4fsWjuY0Jk_12nexus_crypto5mldsaNtB7_15DilithiumSignerNtNtB9_6traits6Signer6verifys_0B9_
FNDA:0,_RNCNvMNtCs7CUMwCPdTtL_12nexus_crypto5mldsaNtB4_19DilithiumSigningKey10from_bytes0B6_
FNDA:0,_RNCNvMs0_NtCs7CUMwCPdTtL_12nexus_crypto5mldsaNtB7_18DilithiumVerifyKey10from_bytes0B9_
FNDA:0,_RNCNvMs2_NtCs7CUMwCPdTtL_12nexus_crypto5mldsaNtB7_18DilithiumSignature10from_bytes0B9_
FNDA:0,_RNCNvXs5_NtCs7CUMwCPdTtL_12nexus_crypto5mldsaNtB7_15DilithiumSignerNtNtB9_6traits6Signer6verify0B9_
FNDA:174,_RNCNvXs5_NtCs7CUMwCPdTtL_12nexus_crypto5mldsaNtB7_15DilithiumSignerNtNtB9_6traits6Signer6verifys_0B9_
FNDA:18,_RNvMNtCs7CUMwCPdTtL_12nexus_crypto5mldsaNtB2_19DilithiumSigningKey10from_bytes
FNDA:68,_RNvMNtCs7CUMwCPdTtL_12nexus_crypto5mldsaNtB2_19DilithiumSigningKey8as_bytes
FNDA:15244,_RNvMNtCs7CUMwCPdTtL_12nexus_crypto5mldsaNtB2_19DilithiumSigningKey8to_inner
FNDA:504,_RNvMs0_NtCs7CUMwCPdTtL_12nexus_crypto5mldsaNtB5_18DilithiumVerifyKey10from_bytes
FNDA:30108,_RNvMs0_NtCs7CUMwCPdTtL_12nexus_crypto5mldsaNtB5_18DilithiumVerifyKey8as_bytes
FNDA:20188,_RNvMs0_NtCs7CUMwCPdTtL_12nexus_crypto5mldsaNtB5_18DilithiumVerifyKey8to_inner
FNDA:490,_RNvMs2_NtCs7CUMwCPdTtL_12nexus_crypto5mldsaNtB5_18DilithiumSignature10from_bytes
FNDA:560,_RNvMs2_NtCs7CUMwCPdTtL_12nexus_crypto5mldsaNtB5_18DilithiumSignature8as_bytes
FNDA:7,_RNvMs4_NtCs7CUMwCPdTtL_12nexus_crypto5mldsaNtB5_15DilithiumSigner17keypair_from_seed
FNDA:35432,_RNvNtCs7CUMwCPdTtL_12nexus_crypto5mldsa14domain_message
FNDA:0,_RNvXs1_NtCs7CUMwCPdTtL_12nexus_crypto5mldsaNtB5_18DilithiumVerifyKeyNtNtCslNfmTnNkGed_4core3fmt5Debug3fmt
FNDA:0,_RNvXs3_NtCs7CUMwCPdTtL_12nexus_crypto5mldsaNtB5_18DilithiumSignatureNtNtCslNfmTnNkGed_4core3fmt5Debug3fmt
FNDA:0,_RNvXs5_NtCs7CUMwCPdTtL_12nexus_crypto5mldsaNtB5_15DilithiumSignerNtNtB7_6traits6Signer14signature_size
FNDA:0,_RNvXs5_NtCs7CUMwCPdTtL_12nexus_crypto5mldsaNtB5_15DilithiumSignerNtNtB7_6traits6Signer15verify_key_size
FNDA:16451,_RNvXs5_NtCs7CUMwCPdTtL_12nexus_crypto5mldsaNtB5_15DilithiumSignerNtNtB7_6traits6Signer16generate_keypair
FNDA:15244,_RNvXs5_NtCs7CUMwCPdTtL_12nexus_crypto5mldsaNtB5_15DilithiumSignerNtNtB7_6traits6Signer4sign
FNDA:20188,_RNvXs5_NtCs7CUMwCPdTtL_12nexus_crypto5mldsaNtB5_15DilithiumSignerNtNtB7_6traits6Signer6verify
FNDA:0,_RNvXs_NtCs7CUMwCPdTtL_12nexus_crypto5mldsaNtB4_19DilithiumSigningKeyNtNtCslNfmTnNkGed_4core3fmt5Debug3fmt
FNDA:12,_RNvMNtCsf4fsWjuY0Jk_12nexus_crypto5mldsaNtB2_19DilithiumSigningKey10from_bytes
FNDA:38,_RNvMNtCsf4fsWjuY0Jk_12nexus_crypto5mldsaNtB2_19DilithiumSigningKey8as_bytes
FNDA:93,_RNvMNtCsf4fsWjuY0Jk_12nexus_crypto5mldsaNtB2_19DilithiumSigningKey8to_inner
FNDA:26,_RNvMs0_NtCsf4fsWjuY0Jk_12nexus_crypto5mldsaNtB5_18DilithiumVerifyKey10from_bytes
FNDA:92,_RNvMs0_NtCsf4fsWjuY0Jk_12nexus_crypto5mldsaNtB5_18DilithiumVerifyKey8as_bytes
FNDA:81,_RNvMs0_NtCsf4fsWjuY0Jk_12nexus_crypto5mldsaNtB5_18DilithiumVerifyKey8to_inner
FNDA:26,_RNvMs2_NtCsf4fsWjuY0Jk_12nexus_crypto5mldsaNtB5_18DilithiumSignature10from_bytes
FNDA:37,_RNvMs2_NtCsf4fsWjuY0Jk_12nexus_crypto5mldsaNtB5_18DilithiumSignature8as_bytes
FNDA:24,_RNvMs4_NtCsf4fsWjuY0Jk_12nexus_crypto5mldsaNtB5_15DilithiumSigner17keypair_from_seed
FNDA:174,_RNvNtCsf4fsWjuY0Jk_12nexus_crypto5mldsa14domain_message
FNDA:11,_RNvXs1_NtCsf4fsWjuY0Jk_12nexus_crypto5mldsaNtB5_18DilithiumVerifyKeyNtNtCslNfmTnNkGed_4core3fmt5Debug3fmt
FNDA:11,_RNvXs3_NtCsf4fsWjuY0Jk_12nexus_crypto5mldsaNtB5_18DilithiumSignatureNtNtCslNfmTnNkGed_4core3fmt5Debug3fmt
FNDA:12,_RNvXs5_NtCsf4fsWjuY0Jk_12nexus_crypto5mldsaNtB5_15DilithiumSignerNtNtB7_6traits6Signer14signature_size
FNDA:26,_RNvXs5_NtCsf4fsWjuY0Jk_12nexus_crypto5mldsaNtB5_15DilithiumSignerNtNtB7_6traits6Signer15verify_key_size
FNDA:146,_RNvXs5_NtCsf4fsWjuY0Jk_12nexus_crypto5mldsaNtB5_15DilithiumSignerNtNtB7_6traits6Signer16generate_keypair
FNDA:93,_RNvXs5_NtCsf4fsWjuY0Jk_12nexus_crypto5mldsaNtB5_15DilithiumSignerNtNtB7_6traits6Signer4sign
FNDA:81,_RNvXs5_NtCsf4fsWjuY0Jk_12nexus_crypto5mldsaNtB5_15DilithiumSignerNtNtB7_6traits6Signer6verify
FNDA:14,_RNvXs_NtCsf4fsWjuY0Jk_12nexus_crypto5mldsaNtB4_19DilithiumSigningKeyNtNtCslNfmTnNkGed_4core3fmt5Debug3fmt
FNDA:14,_RNvNtNtCsf4fsWjuY0Jk_12nexus_crypto5mldsa5testss_15sign_and_verify
FNDA:14,_RNvNtNtCsf4fsWjuY0Jk_12nexus_crypto5mldsa5testss_15wrong_key_fails
FNDA:14,_RNvNtNtCsf4fsWjuY0Jk_12nexus_crypto5mldsa5testss_18keypair_generation
FNDA:14,_RNvNtNtCsf4fsWjuY0Jk_12nexus_crypto5mldsa5testss_18wrong_domain_fails
FNDA:14,_RNvNtNtCsf4fsWjuY0Jk_12nexus_crypto5mldsa5testss_19signature_roundtrip
FNDA:14,_RNvNtNtCsf4fsWjuY0Jk_12nexus_crypto5mldsa5testss_19wrong_message_fails
FNDA:14,_RNvNtNtCsf4fsWjuY0Jk_12nexus_crypto5mldsa5testss_20verify_key_roundtrip
FNDA:10,_RNvNtNtCsf4fsWjuY0Jk_12nexus_crypto5mldsa5testss_34keypair_from_seed_is_deterministic
FNDA:10,_RNvNtNtCsf4fsWjuY0Jk_12nexus_crypto5mldsa5testss_38verify_rejects_corrupt_signature_bytes
FNDA:10,_RNvNtNtCsf4fsWjuY0Jk_12nexus_crypto5mldsa5testss_39debug_formats_expose_only_safe_metadata
FNDA:10,_RNvNtNtCsf4fsWjuY0Jk_12nexus_crypto5mldsa5testss_42signature_from_bytes_rejects_corrupt_bytes
FNDA:10,_RNvNtNtCsf4fsWjuY0Jk_12nexus_crypto5mldsa5testss_42verify_key_from_bytes_rejects_wrong_length
FNDA:10,_RNvNtNtCsf4fsWjuY0Jk_12nexus_crypto5mldsa5testss_43scheme_size_constants_match_encoded_outputs
FNDA:10,_RNvNtNtCsf4fsWjuY0Jk_12nexus_crypto5mldsa5testss_43signing_key_from_bytes_rejects_wrong_length
FNDA:12,_RNCNvMNtCsf4fsWjuY0Jk_12nexus_crypto5mldsaNtB4_19DilithiumSigningKey10from_bytes0B6_
FNDA:12,_RNCNvMs0_NtCsf4fsWjuY0Jk_12nexus_crypto5mldsaNtB7_18DilithiumVerifyKey10from_bytes0B9_
FNDA:12,_RNCNvMs2_NtCsf4fsWjuY0Jk_12nexus_crypto5mldsaNtB7_18DilithiumSignature10from_bytes0B9_
FNDA:11,_RNCNvXs5_NtCsf4fsWjuY0Jk_12nexus_crypto5mldsaNtB7_15DilithiumSignerNtNtB9_6traits6Signer6verify0B9_
FNDA:42,_RNCNvXs5_NtCsf4fsWjuY0Jk_12nexus_crypto5mldsaNtB7_15DilithiumSignerNtNtB9_6traits6Signer6verifys_0B9_
FNF:37
FNH:37
DA:37,30
DA:38,30
DA:39,12
DA:40,12
DA:41,12
DA:42,12
DA:43,30
DA:44,18
DA:45,30
DA:52,106
DA:53,106
DA:54,106
DA:57,15337
DA:58,15337
DA:59,15337
DA:63,14
DA:64,14
DA:65,14
DA:79,530
DA:81,530
DA:82,12
DA:83,12
DA:84,12
DA:85,12
DA:86,12
DA:87,12
DA:88,530
DA:90,518
DA:91,518
DA:92,518
DA:93,518
DA:94,530
DA:97,30200
DA:98,30200
DA:99,30200
DA:102,20269
DA:103,20269
DA:104,20269
DA:105,20269
DA:106,20269
DA:107,20269
DA:111,11
DA:112,11
DA:113,11
DA:114,11
DA:128,516
DA:130,516
DA:131,12
DA:132,12
DA:133,12
DA:134,12
DA:135,12
DA:136,12
DA:137,516
DA:138,504
DA:139,504
DA:140,504
DA:141,516
DA:144,597
DA:145,597
DA:146,597
DA:150,11
DA:151,11
DA:152,11
DA:161,35606
DA:162,35606
DA:163,35606
DA:164,35606
DA:171,31
DA:172,31
DA:173,31
DA:174,31
DA:175,31
DA:176,31
DA:177,31
DA:178,31
DA:186,16597
DA:189,16597
DA:190,16597
DA:191,16597
DA:192,16597
DA:193,16597
DA:194,16597
DA:195,16597
DA:196,16597
DA:197,16597
DA:198,16597
DA:199,16597
DA:200,16597
DA:202,15337
DA:203,15337
DA:204,15337
DA:205,15337
DA:206,15337
DA:207,15337
DA:208,15337
DA:209,15337
DA:211,20269
DA:212,20269
DA:213,20269
DA:214,20269
DA:215,20269
DA:216,20269
DA:217,20269
DA:218,20269
DA:219,20258
DA:220,20269
DA:221,11
DA:222,11
DA:223,11
DA:224,20269
DA:225,20258
DA:226,20258
DA:227,20258
DA:228,216
DA:229,20258
DA:230,20269
DA:232,12
DA:233,12
DA:234,12
DA:235,12
DA:237,26
DA:238,26
DA:239,26
DA:240,26
DA:249,14
DA:250,14
DA:251,14
DA:252,14
DA:253,14
DA:254,14
DA:255,14
DA:258,14
DA:259,14
DA:260,14
DA:261,14
DA:262,14
DA:265,14
DA:266,14
DA:267,14
DA:268,14
DA:269,14
DA:272,14
DA:273,14
DA:274,14
DA:275,14
DA:276,14
DA:279,14
DA:280,14
DA:281,14
DA:282,14
DA:283,14
DA:284,14
DA:287,14
DA:288,14
DA:289,14
DA:290,14
DA:291,14
DA:292,14
DA:295,14
DA:296,14
DA:297,14
DA:298,14
DA:299,14
DA:302,10
DA:303,10
DA:304,10
DA:305,10
DA:306,10
DA:307,10
DA:308,10
DA:309,10
DA:310,10
DA:311,10
DA:312,10
DA:313,10
DA:314,10
DA:315,10
DA:318,10
DA:319,10
DA:320,10
DA:321,10
DA:322,10
DA:324,0
DA:326,10
DA:329,10
DA:330,10
DA:331,10
DA:332,10
DA:333,10
DA:335,0
DA:337,10
DA:340,10
DA:341,10
DA:342,10
DA:343,10
DA:344,10
DA:346,0
DA:348,10
DA:351,10
DA:352,10
DA:353,10
DA:354,10
DA:355,10
DA:356,10
DA:357,10
DA:358,10
DA:359,10
DA:360,10
DA:362,0
DA:364,10
DA:367,10
DA:368,10
DA:369,10
DA:370,10
DA:371,10
DA:372,10
DA:373,10
DA:374,10
DA:377,10
DA:378,10
DA:379,10
DA:380,10
DA:381,10
DA:382,10
DA:383,10
BRF:0
BRH:0
LF:236
LH:232
end_of_record
SF:/Users/VD/Vootaa_Projects/vootaa-labs@github/nexus-node/crates/nexus-crypto/src/mlkem.rs
FN:36,_RNCNvMNtCs7CUMwCPdTtL_12nexus_crypto5mlkemNtB4_14KyberEncapsKey10from_bytes0B6_
FN:45,_RNCNvMNtCs7CUMwCPdTtL_12nexus_crypto5mlkemNtB4_14KyberEncapsKey10from_bytess_0B6_
FN:89,_RNCNvMs0_NtCs7CUMwCPdTtL_12nexus_crypto5mlkemNtB7_14KyberDecapsKey10from_bytes0B9_
FN:132,_RNCNvMs2_NtCs7CUMwCPdTtL_12nexus_crypto5mlkemNtB7_15KyberCiphertext10from_bytes0B9_
FN:240,_RNCNvXs7_NtCs7CUMwCPdTtL_12nexus_crypto5mlkemNtB7_8KyberKemNtNtB9_6traits25KeyEncapsulationMechanism11decapsulate0B9_
FN:33,_RNvMNtCs7CUMwCPdTtL_12nexus_crypto5mlkemNtB2_14KyberEncapsKey10from_bytes
FN:54,_RNvMNtCs7CUMwCPdTtL_12nexus_crypto5mlkemNtB2_14KyberEncapsKey8as_bytes
FN:59,_RNvMNtCs7CUMwCPdTtL_12nexus_crypto5mlkemNtB2_14KyberEncapsKey8to_inner
FN:88,_RNvMs0_NtCs7CUMwCPdTtL_12nexus_crypto5mlkemNtB5_14KyberDecapsKey10from_bytes
FN:103,_RNvMs0_NtCs7CUMwCPdTtL_12nexus_crypto5mlkemNtB5_14KyberDecapsKey8as_bytes
FN:108,_RNvMs0_NtCs7CUMwCPdTtL_12nexus_crypto5mlkemNtB5_14KyberDecapsKey8to_inner
FN:130,_RNvMs2_NtCs7CUMwCPdTtL_12nexus_crypto5mlkemNtB5_15KyberCiphertext10from_bytes
FN:146,_RNvMs2_NtCs7CUMwCPdTtL_12nexus_crypto5mlkemNtB5_15KyberCiphertext8as_bytes
FN:180,_RNvMs6_NtCs7CUMwCPdTtL_12nexus_crypto5mlkemNtB5_17KyberSharedSecret10derive_key
FN:114,_RNvXs1_NtCs7CUMwCPdTtL_12nexus_crypto5mlkemNtB5_14KyberDecapsKeyNtNtCslNfmTnNkGed_4core3fmt5Debug3fmt
FN:152,_RNvXs3_NtCs7CUMwCPdTtL_12nexus_crypto5mlkemNtB5_15KyberCiphertextNtNtCslNfmTnNkGed_4core3fmt5Debug3fmt
FN:164,_RNvXs4_NtCs7CUMwCPdTtL_12nexus_crypto5mlkemNtB5_17KyberSharedSecretINtNtCslNfmTnNkGed_4core7convert5AsRefShE6as_ref
FN:170,_RNvXs5_NtCs7CUMwCPdTtL_12nexus_crypto5mlkemNtB5_17KyberSharedSecretNtNtCslNfmTnNkGed_4core3fmt5Debug3fmt
FN:234,_RNvXs7_NtCs7CUMwCPdTtL_12nexus_crypto5mlkemNtB5_8KyberKemNtNtB7_6traits25KeyEncapsulationMechanism11decapsulate
FN:218,_RNvXs7_NtCs7CUMwCPdTtL_12nexus_crypto5mlkemNtB5_8KyberKemNtNtB7_6traits25KeyEncapsulationMechanism11encapsulate
FN:253,_RNvXs7_NtCs7CUMwCPdTtL_12nexus_crypto5mlkemNtB5_8KyberKemNtNtB7_6traits25KeyEncapsulationMechanism15ciphertext_size
FN:196,_RNvXs7_NtCs7CUMwCPdTtL_12nexus_crypto5mlkemNtB5_8KyberKemNtNtB7_6traits25KeyEncapsulationMechanism16generate_keypair
FN:258,_RNvXs7_NtCs7CUMwCPdTtL_12nexus_crypto5mlkemNtB5_8KyberKemNtNtB7_6traits25KeyEncapsulationMechanism18shared_secret_size
FN:69,_RNvXs_NtCs7CUMwCPdTtL_12nexus_crypto5mlkemNtB4_14KyberEncapsKeyNtNtCslNfmTnNkGed_4core3fmt5Debug3fmt
FN:268,_RNvNtNtCsf4fsWjuY0Jk_12nexus_crypto5mlkem5testss_18keypair_generation
FN:297,_RNvNtNtCsf4fsWjuY0Jk_12nexus_crypto5mlkem5testss_18shared_secret_size
FN:304,_RNvNtNtCsf4fsWjuY0Jk_12nexus_crypto5mlkem5testss_20ciphertext_roundtrip
FN:356,_RNvNtNtCsf4fsWjuY0Jk_12nexus_crypto5mlkem5testss_20encaps_key_roundtrip
FN:313,_RNvNtNtCsf4fsWjuY0Jk_12nexus_crypto5mlkem5testss_27derive_key_is_deterministic
FN:325,_RNvNtNtCsf4fsWjuY0Jk_12nexus_crypto5mlkem5testss_29derive_key_different_contexts
FN:278,_RNvNtNtCsf4fsWjuY0Jk_12nexus_crypto5mlkem5testss_33encapsulate_decapsulate_roundtrip
FN:286,_RNvNtNtCsf4fsWjuY0Jk_12nexus_crypto5mlkem5testss_35wrong_key_produces_different_secret
FN:336,_RNvNtNtCsf4fsWjuY0Jk_12nexus_crypto5mlkem5testss_39debug_formats_expose_only_safe_metadata
FN:385,_RNvNtNtCsf4fsWjuY0Jk_12nexus_crypto5mlkem5testss_42ciphertext_from_bytes_rejects_wrong_length
FN:374,_RNvNtNtCsf4fsWjuY0Jk_12nexus_crypto5mlkem5testss_42decaps_key_from_bytes_rejects_wrong_length
FN:363,_RNvNtNtCsf4fsWjuY0Jk_12nexus_crypto5mlkem5testss_42encaps_key_from_bytes_rejects_wrong_length
FN:412,_RNvNtNtCsf4fsWjuY0Jk_12nexus_crypto5mlkem5testss_43key_material_sizes_match_declared_constants
FN:396,_RNvNtNtCsf4fsWjuY0Jk_12nexus_crypto5mlkem5testss_44decapsulate_rejects_corrupt_ciphertext_bytes
FN:36,_RNCNvMNtCsf4fsWjuY0Jk_12nexus_crypto5mlkemNtB4_14KyberEncapsKey10from_bytes0B6_
FN:45,_RNCNvMNtCsf4fsWjuY0Jk_12nexus_crypto5mlkemNtB4_14KyberEncapsKey10from_bytess_0B6_
FN:89,_RNCNvMs0_NtCsf4fsWjuY0Jk_12nexus_crypto5mlkemNtB7_14KyberDecapsKey10from_bytes0B9_
FN:132,_RNCNvMs2_NtCsf4fsWjuY0Jk_12nexus_crypto5mlkemNtB7_15KyberCiphertext10from_bytes0B9_
FN:240,_RNCNvXs7_NtCsf4fsWjuY0Jk_12nexus_crypto5mlkemNtB7_8KyberKemNtNtB9_6traits25KeyEncapsulationMechanism11decapsulate0B9_
FN:33,_RNvMNtCsf4fsWjuY0Jk_12nexus_crypto5mlkemNtB2_14KyberEncapsKey10from_bytes
FN:54,_RNvMNtCsf4fsWjuY0Jk_12nexus_crypto5mlkemNtB2_14KyberEncapsKey8as_bytes
FN:59,_RNvMNtCsf4fsWjuY0Jk_12nexus_crypto5mlkemNtB2_14KyberEncapsKey8to_inner
FN:88,_RNvMs0_NtCsf4fsWjuY0Jk_12nexus_crypto5mlkemNtB5_14KyberDecapsKey10from_bytes
FN:103,_RNvMs0_NtCsf4fsWjuY0Jk_12nexus_crypto5mlkemNtB5_14KyberDecapsKey8as_bytes
FN:108,_RNvMs0_NtCsf4fsWjuY0Jk_12nexus_crypto5mlkemNtB5_14KyberDecapsKey8to_inner
FN:130,_RNvMs2_NtCsf4fsWjuY0Jk_12nexus_crypto5mlkemNtB5_15KyberCiphertext10from_bytes
FN:146,_RNvMs2_NtCsf4fsWjuY0Jk_12nexus_crypto5mlkemNtB5_15KyberCiphertext8as_bytes
FN:180,_RNvMs6_NtCsf4fsWjuY0Jk_12nexus_crypto5mlkemNtB5_17KyberSharedSecret10derive_key
FN:114,_RNvXs1_NtCsf4fsWjuY0Jk_12nexus_crypto5mlkemNtB5_14KyberDecapsKeyNtNtCslNfmTnNkGed_4core3fmt5Debug3fmt
FN:152,_RNvXs3_NtCsf4fsWjuY0Jk_12nexus_crypto5mlkemNtB5_15KyberCiphertextNtNtCslNfmTnNkGed_4core3fmt5Debug3fmt
FN:164,_RNvXs4_NtCsf4fsWjuY0Jk_12nexus_crypto5mlkemNtB5_17KyberSharedSecretINtNtCslNfmTnNkGed_4core7convert5AsRefShE6as_ref
FN:170,_RNvXs5_NtCsf4fsWjuY0Jk_12nexus_crypto5mlkemNtB5_17KyberSharedSecretNtNtCslNfmTnNkGed_4core3fmt5Debug3fmt
FN:234,_RNvXs7_NtCsf4fsWjuY0Jk_12nexus_crypto5mlkemNtB5_8KyberKemNtNtB7_6traits25KeyEncapsulationMechanism11decapsulate
FN:218,_RNvXs7_NtCsf4fsWjuY0Jk_12nexus_crypto5mlkemNtB5_8KyberKemNtNtB7_6traits25KeyEncapsulationMechanism11encapsulate
FN:253,_RNvXs7_NtCsf4fsWjuY0Jk_12nexus_crypto5mlkemNtB5_8KyberKemNtNtB7_6traits25KeyEncapsulationMechanism15ciphertext_size
FN:196,_RNvXs7_NtCsf4fsWjuY0Jk_12nexus_crypto5mlkemNtB5_8KyberKemNtNtB7_6traits25KeyEncapsulationMechanism16generate_keypair
FN:258,_RNvXs7_NtCsf4fsWjuY0Jk_12nexus_crypto5mlkemNtB5_8KyberKemNtNtB7_6traits25KeyEncapsulationMechanism18shared_secret_size
FN:69,_RNvXs_NtCsf4fsWjuY0Jk_12nexus_crypto5mlkemNtB4_14KyberEncapsKeyNtNtCslNfmTnNkGed_4core3fmt5Debug3fmt
FNDA:0,_RNCNvMNtCs7CUMwCPdTtL_12nexus_crypto5mlkemNtB4_14KyberEncapsKey10from_bytes0B6_
FNDA:0,_RNCNvMNtCs7CUMwCPdTtL_12nexus_crypto5mlkemNtB4_14KyberEncapsKey10from_bytess_0B6_
FNDA:0,_RNCNvMs0_NtCs7CUMwCPdTtL_12nexus_crypto5mlkemNtB7_14KyberDecapsKey10from_bytes0B9_
FNDA:0,_RNCNvMs2_NtCs7CUMwCPdTtL_12nexus_crypto5mlkemNtB7_15KyberCiphertext10from_bytes0B9_
FNDA:0,_RNCNvXs7_NtCs7CUMwCPdTtL_12nexus_crypto5mlkemNtB7_8KyberKemNtNtB9_6traits25KeyEncapsulationMechanism11decapsulate0B9_
FNDA:14,_RNvMNtCs7CUMwCPdTtL_12nexus_crypto5mlkemNtB2_14KyberEncapsKey10from_bytes
FNDA:3429,_RNvMNtCs7CUMwCPdTtL_12nexus_crypto5mlkemNtB2_14KyberEncapsKey8as_bytes
FNDA:14,_RNvMNtCs7CUMwCPdTtL_12nexus_crypto5mlkemNtB2_14KyberEncapsKey8to_inner
FNDA:14,_RNvMs0_NtCs7CUMwCPdTtL_12nexus_crypto5mlkemNtB5_14KyberDecapsKey10from_bytes
FNDA:57,_RNvMs0_NtCs7CUMwCPdTtL_12nexus_crypto5mlkemNtB5_14KyberDecapsKey8as_bytes
FNDA:14,_RNvMs0_NtCs7CUMwCPdTtL_12nexus_crypto5mlkemNtB5_14KyberDecapsKey8to_inner
FNDA:0,_RNvMs2_NtCs7CUMwCPdTtL_12nexus_crypto5mlkemNtB5_15KyberCiphertext10from_bytes
FNDA:0,_RNvMs2_NtCs7CUMwCPdTtL_12nexus_crypto5mlkemNtB5_15KyberCiphertext8as_bytes
FNDA:0,_RNvMs6_NtCs7CUMwCPdTtL_12nexus_crypto5mlkemNtB5_17KyberSharedSecret10derive_key
FNDA:0,_RNvXs1_NtCs7CUMwCPdTtL_12nexus_crypto5mlkemNtB5_14KyberDecapsKeyNtNtCslNfmTnNkGed_4core3fmt5Debug3fmt
FNDA:0,_RNvXs3_NtCs7CUMwCPdTtL_12nexus_crypto5mlkemNtB5_15KyberCiphertextNtNtCslNfmTnNkGed_4core3fmt5Debug3fmt
FNDA:28,_RNvXs4_NtCs7CUMwCPdTtL_12nexus_crypto5mlkemNtB5_17KyberSharedSecretINtNtCslNfmTnNkGed_4core7convert5AsRefShE6as_ref
FNDA:0,_RNvXs5_NtCs7CUMwCPdTtL_12nexus_crypto5mlkemNtB5_17KyberSharedSecretNtNtCslNfmTnNkGed_4core3fmt5Debug3fmt
FNDA:14,_RNvXs7_NtCs7CUMwCPdTtL_12nexus_crypto5mlkemNtB5_8KyberKemNtNtB7_6traits25KeyEncapsulationMechanism11decapsulate
FNDA:14,_RNvXs7_NtCs7CUMwCPdTtL_12nexus_crypto5mlkemNtB5_8KyberKemNtNtB7_6traits25KeyEncapsulationMechanism11encapsulate
FNDA:0,_RNvXs7_NtCs7CUMwCPdTtL_12nexus_crypto5mlkemNtB5_8KyberKemNtNtB7_6traits25KeyEncapsulationMechanism15ciphertext_size
FNDA:3443,_RNvXs7_NtCs7CUMwCPdTtL_12nexus_crypto5mlkemNtB5_8KyberKemNtNtB7_6traits25KeyEncapsulationMechanism16generate_keypair
FNDA:0,_RNvXs7_NtCs7CUMwCPdTtL_12nexus_crypto5mlkemNtB5_8KyberKemNtNtB7_6traits25KeyEncapsulationMechanism18shared_secret_size
FNDA:0,_RNvXs_NtCs7CUMwCPdTtL_12nexus_crypto5mlkemNtB4_14KyberEncapsKeyNtNtCslNfmTnNkGed_4core3fmt5Debug3fmt
FNDA:14,_RNvNtNtCsf4fsWjuY0Jk_12nexus_crypto5mlkem5testss_18keypair_generation
FNDA:14,_RNvNtNtCsf4fsWjuY0Jk_12nexus_crypto5mlkem5testss_18shared_secret_size
FNDA:14,_RNvNtNtCsf4fsWjuY0Jk_12nexus_crypto5mlkem5testss_20ciphertext_roundtrip
FNDA:10,_RNvNtNtCsf4fsWjuY0Jk_12nexus_crypto5mlkem5testss_20encaps_key_roundtrip
FNDA:14,_RNvNtNtCsf4fsWjuY0Jk_12nexus_crypto5mlkem5testss_27derive_key_is_deterministic
FNDA:14,_RNvNtNtCsf4fsWjuY0Jk_12nexus_crypto5mlkem5testss_29derive_key_different_contexts
FNDA:14,_RNvNtNtCsf4fsWjuY0Jk_12nexus_crypto5mlkem5testss_33encapsulate_decapsulate_roundtrip
FNDA:14,_RNvNtNtCsf4fsWjuY0Jk_12nexus_crypto5mlkem5testss_35wrong_key_produces_different_secret
FNDA:10,_RNvNtNtCsf4fsWjuY0Jk_12nexus_crypto5mlkem5testss_39debug_formats_expose_only_safe_metadata
FNDA:10,_RNvNtNtCsf4fsWjuY0Jk_12nexus_crypto5mlkem5testss_42ciphertext_from_bytes_rejects_wrong_length
FNDA:10,_RNvNtNtCsf4fsWjuY0Jk_12nexus_crypto5mlkem5testss_42decaps_key_from_bytes_rejects_wrong_length
FNDA:10,_RNvNtNtCsf4fsWjuY0Jk_12nexus_crypto5mlkem5testss_42encaps_key_from_bytes_rejects_wrong_length
FNDA:10,_RNvNtNtCsf4fsWjuY0Jk_12nexus_crypto5mlkem5testss_43key_material_sizes_match_declared_constants
FNDA:10,_RNvNtNtCsf4fsWjuY0Jk_12nexus_crypto5mlkem5testss_44decapsulate_rejects_corrupt_ciphertext_bytes
FNDA:12,_RNCNvMNtCsf4fsWjuY0Jk_12nexus_crypto5mlkemNtB4_14KyberEncapsKey10from_bytes0B6_
FNDA:0,_RNCNvMNtCsf4fsWjuY0Jk_12nexus_crypto5mlkemNtB4_14KyberEncapsKey10from_bytess_0B6_
FNDA:12,_RNCNvMs0_NtCsf4fsWjuY0Jk_12nexus_crypto5mlkemNtB7_14KyberDecapsKey10from_bytes0B9_
FNDA:12,_RNCNvMs2_NtCsf4fsWjuY0Jk_12nexus_crypto5mlkemNtB7_15KyberCiphertext10from_bytes0B9_
FNDA:11,_RNCNvXs7_NtCsf4fsWjuY0Jk_12nexus_crypto5mlkemNtB7_8KyberKemNtNtB9_6traits25KeyEncapsulationMechanism11decapsulate0B9_
FNDA:26,_RNvMNtCsf4fsWjuY0Jk_12nexus_crypto5mlkemNtB2_14KyberEncapsKey10from_bytes
FNDA:56,_RNvMNtCsf4fsWjuY0Jk_12nexus_crypto5mlkemNtB2_14KyberEncapsKey8as_bytes
FNDA:107,_RNvMNtCsf4fsWjuY0Jk_12nexus_crypto5mlkemNtB2_14KyberEncapsKey8to_inner
FNDA:12,_RNvMs0_NtCsf4fsWjuY0Jk_12nexus_crypto5mlkemNtB5_14KyberDecapsKey10from_bytes
FNDA:26,_RNvMs0_NtCsf4fsWjuY0Jk_12nexus_crypto5mlkemNtB5_14KyberDecapsKey8as_bytes
FNDA:109,_RNvMs0_NtCsf4fsWjuY0Jk_12nexus_crypto5mlkemNtB5_14KyberDecapsKey8to_inner
FNDA:26,_RNvMs2_NtCsf4fsWjuY0Jk_12nexus_crypto5mlkemNtB5_15KyberCiphertext10from_bytes
FNDA:37,_RNvMs2_NtCsf4fsWjuY0Jk_12nexus_crypto5mlkemNtB5_15KyberCiphertext8as_bytes
FNDA:56,_RNvMs6_NtCsf4fsWjuY0Jk_12nexus_crypto5mlkemNtB5_17KyberSharedSecret10derive_key
FNDA:25,_RNvXs1_NtCsf4fsWjuY0Jk_12nexus_crypto5mlkemNtB5_14KyberDecapsKeyNtNtCslNfmTnNkGed_4core3fmt5Debug3fmt
FNDA:11,_RNvXs3_NtCsf4fsWjuY0Jk_12nexus_crypto5mlkemNtB5_15KyberCiphertextNtNtCslNfmTnNkGed_4core3fmt5Debug3fmt
FNDA:110,_RNvXs4_NtCsf4fsWjuY0Jk_12nexus_crypto5mlkemNtB5_17KyberSharedSecretINtNtCslNfmTnNkGed_4core7convert5AsRefShE6as_ref
FNDA:11,_RNvXs5_NtCsf4fsWjuY0Jk_12nexus_crypto5mlkemNtB5_17KyberSharedSecretNtNtCslNfmTnNkGed_4core3fmt5Debug3fmt
FNDA:109,_RNvXs7_NtCsf4fsWjuY0Jk_12nexus_crypto5mlkemNtB5_8KyberKemNtNtB7_6traits25KeyEncapsulationMechanism11decapsulate
FNDA:107,_RNvXs7_NtCsf4fsWjuY0Jk_12nexus_crypto5mlkemNtB5_8KyberKemNtNtB7_6traits25KeyEncapsulationMechanism11encapsulate
FNDA:12,_RNvXs7_NtCsf4fsWjuY0Jk_12nexus_crypto5mlkemNtB5_8KyberKemNtNtB7_6traits25KeyEncapsulationMechanism15ciphertext_size
FNDA:160,_RNvXs7_NtCsf4fsWjuY0Jk_12nexus_crypto5mlkemNtB5_8KyberKemNtNtB7_6traits25KeyEncapsulationMechanism16generate_keypair
FNDA:26,_RNvXs7_NtCsf4fsWjuY0Jk_12nexus_crypto5mlkemNtB5_8KyberKemNtNtB7_6traits25KeyEncapsulationMechanism18shared_secret_size
FNDA:11,_RNvXs_NtCsf4fsWjuY0Jk_12nexus_crypto5mlkemNtB4_14KyberEncapsKeyNtNtCslNfmTnNkGed_4core3fmt5Debug3fmt
FNF:38
FNH:37
DA:33,40
DA:35,28
DA:36,40
DA:37,12
DA:38,12
DA:39,12
DA:40,12
DA:41,12
DA:42,12
DA:43,40
DA:45,28
DA:46,0
DA:47,28
DA:48,28
DA:49,28
DA:50,28
DA:51,40
DA:54,3485
DA:55,3485
DA:56,3485
DA:59,121
DA:60,121
DA:61,121
DA:62,121
DA:63,121
DA:64,121
DA:65,121
DA:69,11
DA:70,11
DA:71,11
DA:72,11
DA:88,26
DA:89,26
DA:90,12
DA:91,12
DA:92,12
DA:93,12
DA:94,26
DA:95,14
DA:96,26
DA:103,83
DA:104,83
DA:105,83
DA:108,123
DA:109,123
DA:110,123
DA:114,25
DA:115,25
DA:116,25
DA:130,26
DA:131,26
DA:132,26
DA:133,12
DA:134,12
DA:135,12
DA:136,12
DA:137,12
DA:138,12
DA:139,26
DA:140,14
DA:141,14
DA:142,14
DA:143,26
DA:146,37
DA:147,37
DA:148,37
DA:152,11
DA:153,11
DA:154,11
DA:164,138
DA:165,138
DA:166,138
DA:170,11
DA:171,11
DA:172,11
DA:180,56
DA:181,56
DA:182,56
DA:196,3603
DA:199,3603
DA:200,3603
DA:201,3603
DA:202,3603
DA:203,3603
DA:204,3603
DA:205,3603
DA:206,3603
DA:207,3603
DA:208,3603
DA:209,3603
DA:210,3603
DA:211,3603
DA:212,3603
DA:213,3603
DA:214,3603
DA:215,3603
DA:216,3603
DA:218,121
DA:219,121
DA:220,121
DA:221,121
DA:222,121
DA:223,121
DA:224,121
DA:225,121
DA:226,121
DA:227,121
DA:228,121
DA:229,121
DA:230,121
DA:231,121
DA:232,121
DA:234,123
DA:235,123
DA:236,123
DA:237,123
DA:238,123
DA:239,112
DA:240,123
DA:241,11
DA:242,11
DA:243,11
DA:244,123
DA:245,112
DA:246,112
DA:247,112
DA:248,112
DA:249,112
DA:250,112
DA:251,123
DA:253,12
DA:254,12
DA:255,12
DA:256,12
DA:258,26
DA:259,26
DA:260,26
DA:268,14
DA:269,14
DA:270,14
DA:271,14
DA:273,14
DA:274,14
DA:275,14
DA:278,14
DA:279,14
DA:280,14
DA:281,14
DA:282,14
DA:283,14
DA:286,14
DA:287,14
DA:288,14
DA:289,14
DA:290,14
DA:291,14
DA:292,14
DA:293,14
DA:294,14
DA:297,14
DA:298,14
DA:299,14
DA:300,14
DA:301,14
DA:304,14
DA:305,14
DA:306,14
DA:307,14
DA:308,14
DA:309,14
DA:310,14
DA:313,14
DA:314,14
DA:315,14
DA:316,14
DA:317,14
DA:318,14
DA:319,14
DA:320,14
DA:321,14
DA:322,14
DA:325,14
DA:326,14
DA:327,14
DA:328,14
DA:329,14
DA:330,14
DA:331,14
DA:332,14
DA:333,14
DA:336,10
DA:337,10
DA:338,10
DA:339,10
DA:340,10
DA:341,10
DA:342,10
DA:343,10
DA:344,10
DA:345,10
DA:346,10
DA:347,10
DA:348,10
DA:349,10
DA:350,10
DA:351,10
DA:352,10
DA:353,10
DA:356,10
DA:357,10
DA:358,10
DA:359,10
DA:360,10
DA:363,10
DA:364,10
DA:365,10
DA:366,10
DA:367,10
DA:369,0
DA:371,10
DA:374,10
DA:375,10
DA:376,10
DA:377,10
DA:378,10
DA:380,0
DA:382,10
DA:385,10
DA:386,10
DA:387,10
DA:388,10
DA:389,10
DA:391,0
DA:393,10
DA:396,10
DA:397,10
DA:398,10
DA:399,10
DA:400,10
DA:401,10
DA:402,10
DA:403,10
DA:404,10
DA:405,10
DA:407,0
DA:409,10
DA:412,10
DA:413,10
DA:414,10
DA:415,10
DA:416,10
DA:417,10
DA:418,10
DA:419,10
BRF:0
BRH:0
LF:264
LH:257
end_of_record
SF:/Users/VD/Vootaa_Projects/vootaa-labs@github/nexus-node/crates/nexus-execution/src/block_stm/adaptive.rs
FN:59,_RNvMNtNtCsh7qRzkv9eQQ_15nexus_execution9block_stm8adaptiveNtB2_19AdaptiveParallelism17recommend_workers
FN:48,_RNvMNtNtCsh7qRzkv9eQQ_15nexus_execution9block_stm8adaptiveNtB2_19AdaptiveParallelism20record_conflict_rate
FN:36,_RNvMNtNtCsh7qRzkv9eQQ_15nexus_execution9block_stm8adaptiveNtB2_19AdaptiveParallelism3new
FN:108,_RNvNtNtNtCs6aoit5jAd69_15nexus_execution9block_stm8adaptive5testss_14min_one_worker
FN:174,_RNvNtNtNtCs6aoit5jAd69_15nexus_execution9block_stm8adaptive5testss_17clamps_input_rate
FN:115,_RNvNtNtNtCs6aoit5jAd69_15nexus_execution9block_stm8adaptive5testss_23low_conflict_full_speed
FN:133,_RNvNtNtNtCs6aoit5jAd69_15nexus_execution9block_stm8adaptive5testss_24high_conflict_reduces_50
FN:124,_RNvNtNtNtCs6aoit5jAd69_15nexus_execution9block_stm8adaptive5testss_26medium_conflict_reduces_75
FN:168,_RNvNtNtNtCs6aoit5jAd69_15nexus_execution9block_stm8adaptive5testss_27average_conflict_rate_empty
FN:151,_RNvNtNtNtCs6aoit5jAd69_15nexus_execution9block_stm8adaptive5testss_28sliding_window_evicts_oldest
FN:101,_RNvNtNtNtCs6aoit5jAd69_15nexus_execution9block_stm8adaptive5testss_29new_controller_recommends_max
FN:142,_RNvNtNtNtCs6aoit5jAd69_15nexus_execution9block_stm8adaptive5testss_29very_high_conflict_reduces_25
FN:81,_RNvMNtNtCs6aoit5jAd69_15nexus_execution9block_stm8adaptiveNtB2_19AdaptiveParallelism11max_workers
FN:59,_RNvMNtNtCs6aoit5jAd69_15nexus_execution9block_stm8adaptiveNtB2_19AdaptiveParallelism17recommend_workers
FN:48,_RNvMNtNtCs6aoit5jAd69_15nexus_execution9block_stm8adaptiveNtB2_19AdaptiveParallelism20record_conflict_rate
FN:87,_RNvMNtNtCs6aoit5jAd69_15nexus_execution9block_stm8adaptiveNtB2_19AdaptiveParallelism21average_conflict_rate
FN:36,_RNvMNtNtCs6aoit5jAd69_15nexus_execution9block_stm8adaptiveNtB2_19AdaptiveParallelism3new
FNDA:6139,_RNvMNtNtCsh7qRzkv9eQQ_15nexus_execution9block_stm8adaptiveNtB2_19AdaptiveParallelism17recommend_workers
FNDA:6139,_RNvMNtNtCsh7qRzkv9eQQ_15nexus_execution9block_stm8adaptiveNtB2_19AdaptiveParallelism20record_conflict_rate
FNDA:7038,_RNvMNtNtCsh7qRzkv9eQQ_15nexus_execution9block_stm8adaptiveNtB2_19AdaptiveParallelism3new
FNDA:14,_RNvNtNtNtCs6aoit5jAd69_15nexus_execution9block_stm8adaptive5testss_14min_one_worker
FNDA:14,_RNvNtNtNtCs6aoit5jAd69_15nexus_execution9block_stm8adaptive5testss_17clamps_input_rate
FNDA:14,_RNvNtNtNtCs6aoit5jAd69_15nexus_execution9block_stm8adaptive5testss_23low_conflict_full_speed
FNDA:14,_RNvNtNtNtCs6aoit5jAd69_15nexus_execution9block_stm8adaptive5testss_24high_conflict_reduces_50
FNDA:14,_RNvNtNtNtCs6aoit5jAd69_15nexus_execution9block_stm8adaptive5testss_26medium_conflict_reduces_75
FNDA:14,_RNvNtNtNtCs6aoit5jAd69_15nexus_execution9block_stm8adaptive5testss_27average_conflict_rate_empty
FNDA:14,_RNvNtNtNtCs6aoit5jAd69_15nexus_execution9block_stm8adaptive5testss_28sliding_window_evicts_oldest
FNDA:14,_RNvNtNtNtCs6aoit5jAd69_15nexus_execution9block_stm8adaptive5testss_29new_controller_recommends_max
FNDA:14,_RNvNtNtNtCs6aoit5jAd69_15nexus_execution9block_stm8adaptive5testss_29very_high_conflict_reduces_25
FNDA:28,_RNvMNtNtCs6aoit5jAd69_15nexus_execution9block_stm8adaptiveNtB2_19AdaptiveParallelism11max_workers
FNDA:1087,_RNvMNtNtCs6aoit5jAd69_15nexus_execution9block_stm8adaptiveNtB2_19AdaptiveParallelism17recommend_workers
FNDA:1437,_RNvMNtNtCs6aoit5jAd69_15nexus_execution9block_stm8adaptiveNtB2_19AdaptiveParallelism20record_conflict_rate
FNDA:42,_RNvMNtNtCs6aoit5jAd69_15nexus_execution9block_stm8adaptiveNtB2_19AdaptiveParallelism21average_conflict_rate
FNDA:1260,_RNvMNtNtCs6aoit5jAd69_15nexus_execution9block_stm8adaptiveNtB2_19AdaptiveParallelism3new
FNF:14
FNH:14
DA:36,8298
DA:37,8298
DA:38,8298
DA:39,8298
DA:40,8298
DA:41,8298
DA:42,8298
DA:48,7576
DA:49,7576
DA:50,112
DA:51,7464
DA:52,7576
DA:53,7576
DA:59,7226
DA:60,7226
DA:61,7072
DA:62,154
DA:63,154
DA:64,154
DA:66,154
DA:67,56
DA:68,98
DA:69,14
DA:70,84
DA:71,28
DA:73,56
DA:76,154
DA:77,7226
DA:81,28
DA:82,28
DA:83,28
DA:87,42
DA:88,42
DA:89,14
DA:91,28
DA:93,42
DA:101,14
DA:102,14
DA:103,14
DA:104,14
DA:105,14
DA:108,14
DA:109,14
DA:110,14
DA:111,14
DA:112,14
DA:115,14
DA:116,14
DA:117,14
DA:118,14
DA:119,14
DA:120,14
DA:121,14
DA:124,14
DA:125,14
DA:126,70
DA:127,56
DA:128,56
DA:129,14
DA:130,14
DA:133,14
DA:134,14
DA:135,70
DA:136,56
DA:137,56
DA:138,14
DA:139,14
DA:142,14
DA:143,14
DA:144,70
DA:145,56
DA:146,56
DA:147,14
DA:148,14
DA:151,14
DA:152,14
DA:154,126
DA:155,112
DA:156,112
DA:157,14
DA:160,126
DA:161,112
DA:162,112
DA:163,14
DA:164,14
DA:165,14
DA:168,14
DA:169,14
DA:170,14
DA:171,14
DA:174,14
DA:175,14
DA:176,14
DA:177,14
DA:178,14
DA:179,14
BRF:0
BRH:0
LF:96
LH:96
end_of_record
SF:/Users/VD/Vootaa_Projects/vootaa-labs@github/nexus-node/crates/nexus-execution/src/block_stm/executor.rs
FN:1017,_RNCNvNtNtCsh7qRzkv9eQQ_15nexus_execution9block_stm8executor13parse_balance0B7_
FN:741,_RNCNvNtNtCsh7qRzkv9eQQ_15nexus_execution9block_stm8executor17execute_htlc_lock0B7_
FN:274,_RNCNvNtNtCsh7qRzkv9eQQ_15nexus_execution9block_stm8executor17execute_single_tx0B7_
FN:564,_RNCNvNtNtCsh7qRzkv9eQQ_15nexus_execution9block_stm8executor17execute_single_txs_0B7_
FN:787,_RNCNvNtNtCsh7qRzkv9eQQ_15nexus_execution9block_stm8executor18execute_htlc_claim0B7_
FN:850,_RNCNvNtNtCsh7qRzkv9eQQ_15nexus_execution9block_stm8executor18execute_htlc_claims_0B7_
FN:894,_RNCNvNtNtCsh7qRzkv9eQQ_15nexus_execution9block_stm8executor19execute_htlc_refund0B7_
FN:994,_RNCNvNtNtCsh7qRzkv9eQQ_15nexus_execution9block_stm8executor19execute_htlc_refunds0_0B7_
FN:957,_RNCNvNtNtCsh7qRzkv9eQQ_15nexus_execution9block_stm8executor19execute_htlc_refunds_0B7_
FN:111,_RNvMNtNtCsh7qRzkv9eQQ_15nexus_execution9block_stm8executorNtB2_16OverlayStateView10into_reads
FN:102,_RNvMNtNtCsh7qRzkv9eQQ_15nexus_execution9block_stm8executorNtB2_16OverlayStateView3new
FN:1015,_RNvNtNtCsh7qRzkv9eQQ_15nexus_execution9block_stm8executor13parse_balance
FN:661,_RNvNtNtCsh7qRzkv9eQQ_15nexus_execution9block_stm8executor14htlc_state_key
FN:192,_RNvNtNtCsh7qRzkv9eQQ_15nexus_execution9block_stm8executor16rejection_record
FN:671,_RNvNtNtCsh7qRzkv9eQQ_15nexus_execution9block_stm8executor17execute_htlc_lock
FN:247,_RNvNtNtCsh7qRzkv9eQQ_15nexus_execution9block_stm8executor17execute_single_tx
FN:764,_RNvNtNtCsh7qRzkv9eQQ_15nexus_execution9block_stm8executor18execute_htlc_claim
FN:871,_RNvNtNtCsh7qRzkv9eQQ_15nexus_execution9block_stm8executor19execute_htlc_refund
FN:146,_RNvNtNtCsh7qRzkv9eQQ_15nexus_execution9block_stm8executor19validate_tx_preexec
FN:208,_RNvNtNtCsh7qRzkv9eQQ_15nexus_execution9block_stm8executor20move_error_to_record
FN:117,_RNvXs_NtNtCsh7qRzkv9eQQ_15nexus_execution9block_stm8executorNtB4_16OverlayStateViewNtNtB8_6traits9StateView3get
FN:1835,_RNvNtNtNtCs6aoit5jAd69_15nexus_execution9block_stm8executor21gas_calibration_testss_25gas_constants_are_nonzero
FN:1880,_RNvNtNtNtCs6aoit5jAd69_15nexus_execution9block_stm8executor21gas_calibration_testss_28anchor_is_cheapest_operation
FN:1845,_RNvNtNtNtCs6aoit5jAd69_15nexus_execution9block_stm8executor21gas_calibration_testss_38gas_constants_within_calibrated_bounds
FN:1862,_RNvNtNtNtCs6aoit5jAd69_15nexus_execution9block_stm8executor21gas_calibration_testss_38htlc_operations_cost_at_least_transfer
FN:1819,_RNCNvNtNtNtCs6aoit5jAd69_15nexus_execution9block_stm8executor5testss_52execute_htlc_lock_insufficient_balance_returns_abort0B9_
FN:1767,_RNCNvNtNtNtCs6aoit5jAd69_15nexus_execution9block_stm8executor5testss_54execute_htlc_lock_debits_sender_and_writes_lock_record0B9_
FN:1776,_RNCNvNtNtNtCs6aoit5jAd69_15nexus_execution9block_stm8executor5testss_54execute_htlc_lock_debits_sender_and_writes_lock_records_0B9_
FN:1303,_RNCNvNtNtNtCs6aoit5jAd69_15nexus_execution9block_stm8executor5testss_66execute_single_tx_provenance_anchor_writes_serialized_anchor_entry0B9_
FN:1388,_RNCNvNtNtNtCs6aoit5jAd69_15nexus_execution9block_stm8executor5testss_67execute_htlc_claim_success_credits_recipient_and_marks_lock_claimed0B9_
FN:1394,_RNCNvNtNtNtCs6aoit5jAd69_15nexus_execution9block_stm8executor5testss_67execute_htlc_claim_success_credits_recipient_and_marks_lock_claimeds_0B9_
FN:111,_RNvMNtNtCs6aoit5jAd69_15nexus_execution9block_stm8executorNtB2_16OverlayStateView10into_reads
FN:102,_RNvMNtNtCs6aoit5jAd69_15nexus_execution9block_stm8executorNtB2_16OverlayStateView3new
FN:1015,_RNvNtNtCs6aoit5jAd69_15nexus_execution9block_stm8executor13parse_balance
FN:661,_RNvNtNtCs6aoit5jAd69_15nexus_execution9block_stm8executor14htlc_state_key
FN:192,_RNvNtNtCs6aoit5jAd69_15nexus_execution9block_stm8executor16rejection_record
FN:671,_RNvNtNtCs6aoit5jAd69_15nexus_execution9block_stm8executor17execute_htlc_lock
FN:247,_RNvNtNtCs6aoit5jAd69_15nexus_execution9block_stm8executor17execute_single_tx
FN:764,_RNvNtNtCs6aoit5jAd69_15nexus_execution9block_stm8executor18execute_htlc_claim
FN:871,_RNvNtNtCs6aoit5jAd69_15nexus_execution9block_stm8executor19execute_htlc_refund
FN:146,_RNvNtNtCs6aoit5jAd69_15nexus_execution9block_stm8executor19validate_tx_preexec
FN:208,_RNvNtNtCs6aoit5jAd69_15nexus_execution9block_stm8executor20move_error_to_record
FN:117,_RNvXs_NtNtCs6aoit5jAd69_15nexus_execution9block_stm8executorNtB4_16OverlayStateViewNtNtB8_6traits9StateView3get
FN:1017,_RNCNvNtNtCs6aoit5jAd69_15nexus_execution9block_stm8executor13parse_balance0B7_
FN:741,_RNCNvNtNtCs6aoit5jAd69_15nexus_execution9block_stm8executor17execute_htlc_lock0B7_
FN:274,_RNCNvNtNtCs6aoit5jAd69_15nexus_execution9block_stm8executor17execute_single_tx0B7_
FN:564,_RNCNvNtNtCs6aoit5jAd69_15nexus_execution9block_stm8executor17execute_single_txs_0B7_
FN:787,_RNCNvNtNtCs6aoit5jAd69_15nexus_execution9block_stm8executor18execute_htlc_claim0B7_
FN:850,_RNCNvNtNtCs6aoit5jAd69_15nexus_execution9block_stm8executor18execute_htlc_claims_0B7_
FN:894,_RNCNvNtNtCs6aoit5jAd69_15nexus_execution9block_stm8executor19execute_htlc_refund0B7_
FN:994,_RNCNvNtNtCs6aoit5jAd69_15nexus_execution9block_stm8executor19execute_htlc_refunds0_0B7_
FN:957,_RNCNvNtNtCs6aoit5jAd69_15nexus_execution9block_stm8executor19execute_htlc_refunds_0B7_
FN:1038,_RNvMNtNtNtCs6aoit5jAd69_15nexus_execution9block_stm8executor5testsNtB2_8MemState3new
FN:1044,_RNvMNtNtNtCs6aoit5jAd69_15nexus_execution9block_stm8executor5testsNtB2_8MemState7set_raw
FN:1048,_RNvMNtNtNtCs6aoit5jAd69_15nexus_execution9block_stm8executor5testsNtB2_8MemState7set_u64
FN:1066,_RNvMs0_NtNtNtCs6aoit5jAd69_15nexus_execution9block_stm8executor5testsNtB5_11TestAccount6random
FN:1080,_RNvMs1_NtNtNtCs6aoit5jAd69_15nexus_execution9block_stm8executor5testsNtB5_6MockVm7success
FN:1599,_RNvMs3_NtNtNtCs6aoit5jAd69_15nexus_execution9block_stm8executor5testsNtB5_17MockVmWithExecute7success
FN:1148,_RNvNtNtNtCs6aoit5jAd69_15nexus_execution9block_stm8executor5tests14make_signed_tx
FN:1173,_RNvNtNtNtCs6aoit5jAd69_15nexus_execution9block_stm8executor5tests16make_lock_record
FN:1503,_RNvNtNtNtCs6aoit5jAd69_15nexus_execution9block_stm8executor5testss_41validate_tx_preexec_rejects_bad_signature
FN:1571,_RNvNtNtNtCs6aoit5jAd69_15nexus_execution9block_stm8executor5testss_42validate_tx_preexec_rejects_wrong_chain_id
FN:1485,_RNvNtNtNtCs6aoit5jAd69_15nexus_execution9block_stm8executor5testss_43validate_tx_preexec_rejects_digest_mismatch
FN:1470,_RNvNtNtNtCs6aoit5jAd69_15nexus_execution9block_stm8executor5testss_44validate_tx_preexec_passes_valid_transaction
FN:1553,_RNvNtNtNtCs6aoit5jAd69_15nexus_execution9block_stm8executor5testss_47validate_tx_preexec_rejects_expired_transaction
FN:1313,_RNvNtNtNtCs6aoit5jAd69_15nexus_execution9block_stm8executor5testss_49execute_htlc_claim_handles_terminal_lock_statuses
FN:1458,_RNvNtNtNtCs6aoit5jAd69_15nexus_execution9block_stm8executor5testss_50parse_balance_tolerates_missing_or_malformed_bytes
FN:1522,_RNvNtNtNtCs6aoit5jAd69_15nexus_execution9block_stm8executor5testss_50validate_tx_preexec_rejects_sender_pubkey_mismatch
FN:1788,_RNvNtNtNtCs6aoit5jAd69_15nexus_execution9block_stm8executor5testss_52execute_htlc_lock_insufficient_balance_returns_abort
FN:1736,_RNvNtNtNtCs6aoit5jAd69_15nexus_execution9block_stm8executor5testss_54execute_htlc_lock_debits_sender_and_writes_lock_record
FN:1401,_RNvNtNtNtCs6aoit5jAd69_15nexus_execution9block_stm8executor5testss_60execute_htlc_refund_rejects_unauthorized_and_too_early_paths
FN:1669,_RNvNtNtNtCs6aoit5jAd69_15nexus_execution9block_stm8executor5testss_64execute_single_tx_move_call_delegates_to_vm_and_merges_write_set
FN:1279,_RNvNtNtNtCs6aoit5jAd69_15nexus_execution9block_stm8executor5testss_66execute_single_tx_provenance_anchor_writes_serialized_anchor_entry
FN:1350,_RNvNtNtNtCs6aoit5jAd69_15nexus_execution9block_stm8executor5testss_67execute_htlc_claim_success_credits_recipient_and_marks_lock_claimed
FN:1242,_RNvNtNtNtCs6aoit5jAd69_15nexus_execution9block_stm8executor5testss_67execute_single_tx_move_script_delegates_to_vm_and_merges_write_sets
FN:1708,_RNvNtNtNtCs6aoit5jAd69_15nexus_execution9block_stm8executor5testss_67execute_single_tx_move_upgrade_calls_publish_under_contract_address
FN:1196,_RNvNtNtNtCs6aoit5jAd69_15nexus_execution9block_stm8executor5testss_68move_error_to_record_maps_supported_errors_and_propagates_fatal_ones
FN:1134,_RNvXs2_NtNtNtCs6aoit5jAd69_15nexus_execution9block_stm8executor5testsNtB5_6MockVmNtNtBb_12move_adapter6MoveVm14execute_script
FN:1123,_RNvXs2_NtNtNtCs6aoit5jAd69_15nexus_execution9block_stm8executor5testsNtB5_6MockVmNtNtBb_12move_adapter6MoveVm15publish_modules
FN:1110,_RNvXs2_NtNtNtCs6aoit5jAd69_15nexus_execution9block_stm8executor5testsNtB5_6MockVmNtNtBb_12move_adapter6MoveVm16execute_function
FN:1654,_RNvXs4_NtNtNtCs6aoit5jAd69_15nexus_execution9block_stm8executor5testsNtB5_17MockVmWithExecuteNtNtBb_12move_adapter6MoveVm14execute_script
FN:1643,_RNvXs4_NtNtNtCs6aoit5jAd69_15nexus_execution9block_stm8executor5testsNtB5_17MockVmWithExecuteNtNtBb_12move_adapter6MoveVm15publish_modules
FN:1629,_RNvXs4_NtNtNtCs6aoit5jAd69_15nexus_execution9block_stm8executor5testsNtB5_17MockVmWithExecuteNtNtBb_12move_adapter6MoveVm16execute_function
FN:1054,_RNvXs_NtNtNtCs6aoit5jAd69_15nexus_execution9block_stm8executor5testsNtB4_8MemStateNtNtBa_6traits9StateView3get
FNDA:17127,_RNCNvNtNtCsh7qRzkv9eQQ_15nexus_execution9block_stm8executor13parse_balance0B7_
FNDA:0,_RNCNvNtNtCsh7qRzkv9eQQ_15nexus_execution9block_stm8executor17execute_htlc_lock0B7_
FNDA:3282,_RNCNvNtNtCsh7qRzkv9eQQ_15nexus_execution9block_stm8executor17execute_single_tx0B7_
FNDA:0,_RNCNvNtNtCsh7qRzkv9eQQ_15nexus_execution9block_stm8executor17execute_single_txs_0B7_
FNDA:0,_RNCNvNtNtCsh7qRzkv9eQQ_15nexus_execution9block_stm8executor18execute_htlc_claim0B7_
FNDA:0,_RNCNvNtNtCsh7qRzkv9eQQ_15nexus_execution9block_stm8executor18execute_htlc_claims_0B7_
FNDA:0,_RNCNvNtNtCsh7qRzkv9eQQ_15nexus_execution9block_stm8executor19execute_htlc_refund0B7_
FNDA:0,_RNCNvNtNtCsh7qRzkv9eQQ_15nexus_execution9block_stm8executor19execute_htlc_refunds0_0B7_
FNDA:84,_RNCNvNtNtCsh7qRzkv9eQQ_15nexus_execution9block_stm8executor19execute_htlc_refunds_0B7_
FNDA:34,_RNvMNtNtCsh7qRzkv9eQQ_15nexus_execution9block_stm8executorNtB2_16OverlayStateView10into_reads
FNDA:34,_RNvMNtNtCsh7qRzkv9eQQ_15nexus_execution9block_stm8executorNtB2_16OverlayStateView3new
FNDA:24480,_RNvNtNtCsh7qRzkv9eQQ_15nexus_execution9block_stm8executor13parse_balance
FNDA:742,_RNvNtNtCsh7qRzkv9eQQ_15nexus_execution9block_stm8executor14htlc_state_key
FNDA:56,_RNvNtNtCsh7qRzkv9eQQ_15nexus_execution9block_stm8executor16rejection_record
FNDA:546,_RNvNtNtCsh7qRzkv9eQQ_15nexus_execution9block_stm8executor17execute_htlc_lock
FNDA:16319,_RNvNtNtCsh7qRzkv9eQQ_15nexus_execution9block_stm8executor17execute_single_tx
FNDA:126,_RNvNtNtCsh7qRzkv9eQQ_15nexus_execution9block_stm8executor18execute_htlc_claim
FNDA:84,_RNvNtNtCsh7qRzkv9eQQ_15nexus_execution9block_stm8executor19execute_htlc_refund
FNDA:11467,_RNvNtNtCsh7qRzkv9eQQ_15nexus_execution9block_stm8executor19validate_tx_preexec
FNDA:17,_RNvNtNtCsh7qRzkv9eQQ_15nexus_execution9block_stm8executor20move_error_to_record
FNDA:0,_RNvXs_NtNtCsh7qRzkv9eQQ_15nexus_execution9block_stm8executorNtB4_16OverlayStateViewNtNtB8_6traits9StateView3get
FNDA:4,_RNvNtNtNtCs6aoit5jAd69_15nexus_execution9block_stm8executor21gas_calibration_testss_25gas_constants_are_nonzero
FNDA:4,_RNvNtNtNtCs6aoit5jAd69_15nexus_execution9block_stm8executor21gas_calibration_testss_28anchor_is_cheapest_operation
FNDA:4,_RNvNtNtNtCs6aoit5jAd69_15nexus_execution9block_stm8executor21gas_calibration_testss_38gas_constants_within_calibrated_bounds
FNDA:4,_RNvNtNtNtCs6aoit5jAd69_15nexus_execution9block_stm8executor21gas_calibration_testss_38htlc_operations_cost_at_least_transfer
FNDA:4,_RNCNvNtNtNtCs6aoit5jAd69_15nexus_execution9block_stm8executor5testss_52execute_htlc_lock_insufficient_balance_returns_abort0B9_
FNDA:8,_RNCNvNtNtNtCs6aoit5jAd69_15nexus_execution9block_stm8executor5testss_54execute_htlc_lock_debits_sender_and_writes_lock_record0B9_
FNDA:12,_RNCNvNtNtNtCs6aoit5jAd69_15nexus_execution9block_stm8executor5testss_54execute_htlc_lock_debits_sender_and_writes_lock_records_0B9_
FNDA:16,_RNCNvNtNtNtCs6aoit5jAd69_15nexus_execution9block_stm8executor5testss_66execute_single_tx_provenance_anchor_writes_serialized_anchor_entry0B9_
FNDA:8,_RNCNvNtNtNtCs6aoit5jAd69_15nexus_execution9block_stm8executor5testss_67execute_htlc_claim_success_credits_recipient_and_marks_lock_claimed0B9_
FNDA:16,_RNCNvNtNtNtCs6aoit5jAd69_15nexus_execution9block_stm8executor5testss_67execute_htlc_claim_success_credits_recipient_and_marks_lock_claimeds_0B9_
FNDA:21,_RNvMNtNtCs6aoit5jAd69_15nexus_execution9block_stm8executorNtB2_16OverlayStateView10into_reads
FNDA:21,_RNvMNtNtCs6aoit5jAd69_15nexus_execution9block_stm8executorNtB2_16OverlayStateView3new
FNDA:14137,_RNvNtNtCs6aoit5jAd69_15nexus_execution9block_stm8executor13parse_balance
FNDA:87,_RNvNtNtCs6aoit5jAd69_15nexus_execution9block_stm8executor14htlc_state_key
FNDA:86,_RNvNtNtCs6aoit5jAd69_15nexus_execution9block_stm8executor16rejection_record
FNDA:12,_RNvNtNtCs6aoit5jAd69_15nexus_execution9block_stm8executor17execute_htlc_lock
FNDA:8279,_RNvNtNtCs6aoit5jAd69_15nexus_execution9block_stm8executor17execute_single_tx
FNDA:27,_RNvNtNtCs6aoit5jAd69_15nexus_execution9block_stm8executor18execute_htlc_claim
FNDA:18,_RNvNtNtCs6aoit5jAd69_15nexus_execution9block_stm8executor19execute_htlc_refund
FNDA:6039,_RNvNtNtCs6aoit5jAd69_15nexus_execution9block_stm8executor19validate_tx_preexec
FNDA:36,_RNvNtNtCs6aoit5jAd69_15nexus_execution9block_stm8executor20move_error_to_record
FNDA:0,_RNvXs_NtNtCs6aoit5jAd69_15nexus_execution9block_stm8executorNtB4_16OverlayStateViewNtNtB8_6traits9StateView3get
FNDA:11343,_RNCNvNtNtCs6aoit5jAd69_15nexus_execution9block_stm8executor13parse_balance0B7_
FNDA:0,_RNCNvNtNtCs6aoit5jAd69_15nexus_execution9block_stm8executor17execute_htlc_lock0B7_
FNDA:1980,_RNCNvNtNtCs6aoit5jAd69_15nexus_execution9block_stm8executor17execute_single_tx0B7_
FNDA:0,_RNCNvNtNtCs6aoit5jAd69_15nexus_execution9block_stm8executor17execute_single_txs_0B7_
FNDA:0,_RNCNvNtNtCs6aoit5jAd69_15nexus_execution9block_stm8executor18execute_htlc_claim0B7_
FNDA:0,_RNCNvNtNtCs6aoit5jAd69_15nexus_execution9block_stm8executor18execute_htlc_claims_0B7_
FNDA:0,_RNCNvNtNtCs6aoit5jAd69_15nexus_execution9block_stm8executor19execute_htlc_refund0B7_
FNDA:0,_RNCNvNtNtCs6aoit5jAd69_15nexus_execution9block_stm8executor19execute_htlc_refunds0_0B7_
FNDA:9,_RNCNvNtNtCs6aoit5jAd69_15nexus_execution9block_stm8executor19execute_htlc_refunds_0B7_
FNDA:87,_RNvMNtNtNtCs6aoit5jAd69_15nexus_execution9block_stm8executor5testsNtB2_8MemState3new
FNDA:111,_RNvMNtNtNtCs6aoit5jAd69_15nexus_execution9block_stm8executor5testsNtB2_8MemState7set_raw
FNDA:66,_RNvMNtNtNtCs6aoit5jAd69_15nexus_execution9block_stm8executor5testsNtB2_8MemState7set_u64
FNDA:84,_RNvMs0_NtNtNtCs6aoit5jAd69_15nexus_execution9block_stm8executor5testsNtB5_11TestAccount6random
FNDA:9,_RNvMs1_NtNtNtCs6aoit5jAd69_15nexus_execution9block_stm8executor5testsNtB5_6MockVm7success
FNDA:12,_RNvMs3_NtNtNtCs6aoit5jAd69_15nexus_execution9block_stm8executor5testsNtB5_17MockVmWithExecute7success
FNDA:72,_RNvNtNtNtCs6aoit5jAd69_15nexus_execution9block_stm8executor5tests14make_signed_tx
FNDA:36,_RNvNtNtNtCs6aoit5jAd69_15nexus_execution9block_stm8executor5tests16make_lock_record
FNDA:6,_RNvNtNtNtCs6aoit5jAd69_15nexus_execution9block_stm8executor5testss_41validate_tx_preexec_rejects_bad_signature
FNDA:4,_RNvNtNtNtCs6aoit5jAd69_15nexus_execution9block_stm8executor5testss_42validate_tx_preexec_rejects_wrong_chain_id
FNDA:6,_RNvNtNtNtCs6aoit5jAd69_15nexus_execution9block_stm8executor5testss_43validate_tx_preexec_rejects_digest_mismatch
FNDA:6,_RNvNtNtNtCs6aoit5jAd69_15nexus_execution9block_stm8executor5testss_44validate_tx_preexec_passes_valid_transaction
FNDA:4,_RNvNtNtNtCs6aoit5jAd69_15nexus_execution9block_stm8executor5testss_47validate_tx_preexec_rejects_expired_transaction
FNDA:8,_RNvNtNtNtCs6aoit5jAd69_15nexus_execution9block_stm8executor5testss_49execute_htlc_claim_handles_terminal_lock_statuses
FNDA:8,_RNvNtNtNtCs6aoit5jAd69_15nexus_execution9block_stm8executor5testss_50parse_balance_tolerates_missing_or_malformed_bytes
FNDA:4,_RNvNtNtNtCs6aoit5jAd69_15nexus_execution9block_stm8executor5testss_50validate_tx_preexec_rejects_sender_pubkey_mismatch
FNDA:4,_RNvNtNtNtCs6aoit5jAd69_15nexus_execution9block_stm8executor5testss_52execute_htlc_lock_insufficient_balance_returns_abort
FNDA:4,_RNvNtNtNtCs6aoit5jAd69_15nexus_execution9block_stm8executor5testss_54execute_htlc_lock_debits_sender_and_writes_lock_record
FNDA:8,_RNvNtNtNtCs6aoit5jAd69_15nexus_execution9block_stm8executor5testss_60execute_htlc_refund_rejects_unauthorized_and_too_early_paths
FNDA:4,_RNvNtNtNtCs6aoit5jAd69_15nexus_execution9block_stm8executor5testss_64execute_single_tx_move_call_delegates_to_vm_and_merges_write_set
FNDA:8,_RNvNtNtNtCs6aoit5jAd69_15nexus_execution9block_stm8executor5testss_66execute_single_tx_provenance_anchor_writes_serialized_anchor_entry
FNDA:8,_RNvNtNtNtCs6aoit5jAd69_15nexus_execution9block_stm8executor5testss_67execute_htlc_claim_success_credits_recipient_and_marks_lock_claimed
FNDA:8,_RNvNtNtNtCs6aoit5jAd69_15nexus_execution9block_stm8executor5testss_67execute_single_tx_move_script_delegates_to_vm_and_merges_write_sets
FNDA:4,_RNvNtNtNtCs6aoit5jAd69_15nexus_execution9block_stm8executor5testss_67execute_single_tx_move_upgrade_calls_publish_under_contract_address
FNDA:8,_RNvNtNtNtCs6aoit5jAd69_15nexus_execution9block_stm8executor5testss_68move_error_to_record_maps_supported_errors_and_propagates_fatal_ones
FNDA:9,_RNvXs2_NtNtNtCs6aoit5jAd69_15nexus_execution9block_stm8executor5testsNtB5_6MockVmNtNtBb_12move_adapter6MoveVm14execute_script
FNDA:0,_RNvXs2_NtNtNtCs6aoit5jAd69_15nexus_execution9block_stm8executor5testsNtB5_6MockVmNtNtBb_12move_adapter6MoveVm15publish_modules
FNDA:0,_RNvXs2_NtNtNtCs6aoit5jAd69_15nexus_execution9block_stm8executor5testsNtB5_6MockVmNtNtBb_12move_adapter6MoveVm16execute_function
FNDA:0,_RNvXs4_NtNtNtCs6aoit5jAd69_15nexus_execution9block_stm8executor5testsNtB5_17MockVmWithExecuteNtNtBb_12move_adapter6MoveVm14execute_script
FNDA:6,_RNvXs4_NtNtNtCs6aoit5jAd69_15nexus_execution9block_stm8executor5testsNtB5_17MockVmWithExecuteNtNtBb_12move_adapter6MoveVm15publish_modules
FNDA:6,_RNvXs4_NtNtNtCs6aoit5jAd69_15nexus_execution9block_stm8executor5testsNtB5_17MockVmWithExecuteNtNtBb_12move_adapter6MoveVm16execute_function
FNDA:117,_RNvXs_NtNtNtCs6aoit5jAd69_15nexus_execution9block_stm8executor5testsNtB4_8MemStateNtNtBa_6traits9StateView3get
FNF:63
FNH:53
DA:102,55
DA:103,55
DA:104,55
DA:105,55
DA:106,55
DA:107,55
DA:108,55
DA:111,55
DA:112,55
DA:113,55
DA:117,0
DA:118,0
DA:119,0
DA:120,0
DA:121,0
DA:122,0
DA:123,0
DA:124,0
DA:125,0
DA:146,17506
DA:147,17506
DA:148,17506
DA:149,17506
DA:150,17506
DA:152,17506
DA:153,17506
DA:154,0
DA:156,17506
DA:157,6
DA:158,17500
DA:159,17500
DA:160,17500
DA:161,17500
DA:162,17500
DA:163,17500
DA:164,17500
DA:165,17500
DA:166,17500
DA:167,17500
DA:169,34
DA:170,17466
DA:171,17466
DA:172,17466
DA:173,17466
DA:174,17466
DA:175,62
DA:176,17404
DA:177,17404
DA:178,17404
DA:179,17404
DA:180,20
DA:181,17384
DA:182,17384
DA:183,17384
DA:184,17384
DA:185,20
DA:186,17364
DA:187,17364
DA:188,17364
DA:189,17506
DA:192,142
DA:193,142
DA:194,142
DA:195,142
DA:196,142
DA:197,142
DA:198,142
DA:199,142
DA:200,142
DA:208,53
DA:209,53
DA:210,53
DA:211,53
DA:212,53
DA:213,9
DA:214,9
DA:215,9
DA:216,9
DA:217,9
DA:218,26
DA:219,26
DA:220,26
DA:221,26
DA:222,0
DA:223,0
DA:224,0
DA:225,0
DA:226,0
DA:227,0
DA:229,9
DA:231,44
DA:232,44
DA:233,44
DA:234,44
DA:235,44
DA:236,44
DA:237,44
DA:238,53
DA:247,24598
DA:248,24598
DA:249,24598
DA:250,24598
DA:251,24598
DA:252,24598
DA:253,24598
DA:254,24598
DA:255,24598
DA:256,24598
DA:257,24598
DA:258,24598
DA:259,24598
DA:260,24598
DA:261,24598
DA:262,24598
DA:263,24598
DA:264,24598
DA:265,24598
DA:266,24598
DA:267,24598
DA:268,24598
DA:269,24598
DA:270,24598
DA:271,24598
DA:272,24598
DA:273,24598
DA:274,24598
DA:275,24598
DA:276,24598
DA:277,24598
DA:278,24598
DA:279,4552
DA:280,4552
DA:281,4552
DA:282,4552
DA:283,4552
DA:284,4552
DA:285,4552
DA:286,4552
DA:287,4552
DA:288,4552
DA:289,20046
DA:290,20046
DA:291,20046
DA:292,20046
DA:293,20046
DA:294,20046
DA:295,20046
DA:296,20046
DA:297,20046
DA:298,20046
DA:299,20046
DA:300,20046
DA:301,20046
DA:302,20046
DA:303,20046
DA:304,20046
DA:305,20046
DA:306,20046
DA:307,20046
DA:308,20046
DA:310,19214
DA:313,19214
DA:314,19214
DA:315,19214
DA:316,19214
DA:317,19214
DA:318,19214
DA:319,19214
DA:320,19214
DA:321,19214
DA:322,19214
DA:323,541
DA:324,541
DA:325,541
DA:326,541
DA:327,541
DA:328,541
DA:329,541
DA:330,541
DA:331,541
DA:332,541
DA:333,18673
DA:334,18673
DA:335,18673
DA:336,18673
DA:337,18673
DA:338,18673
DA:339,18673
DA:340,18673
DA:341,18673
DA:342,18673
DA:343,18673
DA:344,18673
DA:345,18673
DA:346,18673
DA:347,18673
DA:348,18673
DA:349,18673
DA:350,18673
DA:351,18673
DA:352,18673
DA:353,18673
DA:354,18673
DA:355,18673
DA:356,18673
DA:357,18673
DA:358,18673
DA:359,18673
DA:360,18673
DA:361,18673
DA:362,18673
DA:363,18673
DA:364,18673
DA:365,18673
DA:366,18673
DA:367,18673
DA:368,18673
DA:369,18673
DA:370,18673
DA:373,23
DA:374,23
DA:375,23
DA:376,23
DA:377,23
DA:378,23
DA:379,23
DA:380,23
DA:381,23
DA:382,23
DA:383,23
DA:384,23
DA:385,23
DA:386,23
DA:387,23
DA:388,23
DA:389,23
DA:390,23
DA:391,23
DA:392,23
DA:393,23
DA:394,23
DA:395,23
DA:397,23
DA:398,23
DA:399,0
DA:403,29
DA:404,6
DA:405,6
DA:406,6
DA:407,6
DA:408,6
DA:409,6
DA:410,6
DA:411,6
DA:413,23
DA:414,23
DA:415,23
DA:416,23
DA:417,23
DA:418,23
DA:419,23
DA:420,23
DA:423,17
DA:424,17
DA:425,17
DA:426,17
DA:427,17
DA:428,17
DA:429,17
DA:430,17
DA:431,17
DA:432,17
DA:433,17
DA:434,17
DA:435,17
DA:436,17
DA:437,17
DA:438,17
DA:440,17
DA:441,0
DA:442,17
DA:446,0
DA:447,0
DA:448,0
DA:449,0
DA:450,0
DA:451,0
DA:452,0
DA:453,0
DA:454,0
DA:456,0
DA:457,0
DA:458,0
DA:459,0
DA:460,0
DA:461,0
DA:462,0
DA:463,0
DA:467,6
DA:468,6
DA:469,6
DA:470,6
DA:471,6
DA:472,6
DA:473,6
DA:474,6
DA:475,6
DA:476,6
DA:477,6
DA:478,6
DA:479,6
DA:480,6
DA:481,6
DA:482,6
DA:483,6
DA:484,0
DA:486,6
DA:487,0
DA:488,0
DA:489,0
DA:490,0
DA:491,0
DA:492,0
DA:493,0
DA:494,0
DA:495,6
DA:496,6
DA:497,6
DA:498,6
DA:499,6
DA:500,6
DA:501,6
DA:502,6
DA:506,9
DA:507,9
DA:508,9
DA:509,9
DA:510,9
DA:511,9
DA:512,9
DA:513,9
DA:514,9
DA:515,9
DA:516,9
DA:517,9
DA:518,9
DA:519,9
DA:520,9
DA:521,9
DA:522,9
DA:523,9
DA:524,9
DA:525,9
DA:526,0
DA:528,18
DA:529,9
DA:530,9
DA:531,9
DA:532,9
DA:533,9
DA:534,9
DA:535,9
DA:536,9
DA:537,9
DA:538,9
DA:539,9
DA:540,9
DA:541,9
DA:542,9
DA:543,9
DA:544,9
DA:548,9
DA:549,9
DA:550,9
DA:551,9
DA:552,9
DA:553,9
DA:554,9
DA:555,9
DA:556,9
DA:557,9
DA:558,9
DA:559,9
DA:560,9
DA:561,9
DA:562,9
DA:563,9
DA:564,9
DA:565,0
DA:566,0
DA:567,0
DA:568,9
DA:570,9
DA:571,9
DA:572,9
DA:573,9
DA:574,9
DA:575,9
DA:576,9
DA:577,9
DA:578,9
DA:579,9
DA:580,9
DA:581,9
DA:582,9
DA:583,9
DA:584,9
DA:585,9
DA:586,9
DA:587,9
DA:588,9
DA:593,558
DA:594,558
DA:595,558
DA:596,558
DA:597,558
DA:598,558
DA:599,558
DA:600,558
DA:601,558
DA:602,558
DA:603,558
DA:604,558
DA:605,558
DA:606,558
DA:607,558
DA:608,558
DA:609,558
DA:610,558
DA:611,558
DA:612,558
DA:613,558
DA:614,558
DA:619,126
DA:620,126
DA:621,126
DA:622,126
DA:623,126
DA:624,126
DA:625,126
DA:626,126
DA:627,126
DA:628,126
DA:629,126
DA:633,84
DA:634,84
DA:635,84
DA:636,84
DA:637,84
DA:638,84
DA:639,84
DA:640,84
DA:641,84
DA:644,24598
DA:661,829
DA:662,829
DA:663,829
DA:664,829
DA:665,829
DA:666,829
DA:667,829
DA:668,829
DA:671,558
DA:672,558
DA:673,558
DA:674,558
DA:675,558
DA:676,558
DA:677,558
DA:678,558
DA:679,558
DA:680,558
DA:681,558
DA:682,558
DA:683,558
DA:684,558
DA:685,558
DA:688,558
DA:689,558
DA:690,558
DA:691,558
DA:692,558
DA:693,558
DA:694,558
DA:695,558
DA:696,558
DA:697,558
DA:698,20
DA:699,20
DA:700,20
DA:701,20
DA:702,20
DA:703,20
DA:704,20
DA:705,20
DA:706,20
DA:707,20
DA:708,538
DA:709,538
DA:710,538
DA:711,538
DA:712,538
DA:713,538
DA:714,538
DA:715,538
DA:716,538
DA:717,538
DA:718,538
DA:719,538
DA:720,538
DA:721,538
DA:722,538
DA:723,538
DA:724,538
DA:725,538
DA:726,538
DA:727,538
DA:728,538
DA:729,538
DA:730,538
DA:731,538
DA:732,538
DA:733,538
DA:734,538
DA:735,538
DA:736,538
DA:737,538
DA:738,538
DA:739,538
DA:741,538
DA:742,0
DA:743,538
DA:745,538
DA:746,538
DA:747,538
DA:748,538
DA:749,538
DA:750,538
DA:751,538
DA:752,538
DA:753,538
DA:754,538
DA:755,538
DA:756,538
DA:757,538
DA:758,538
DA:759,538
DA:760,538
DA:761,558
DA:764,153
DA:765,153
DA:766,153
DA:767,153
DA:768,153
DA:769,153
DA:770,153
DA:771,153
DA:772,153
DA:774,153
DA:775,125
DA:777,28
DA:778,28
DA:779,28
DA:780,28
DA:781,28
DA:782,28
DA:783,28
DA:787,125
DA:788,0
DA:789,125
DA:792,125
DA:793,93
DA:795,23
DA:796,23
DA:797,23
DA:798,23
DA:799,23
DA:800,23
DA:801,23
DA:804,9
DA:805,9
DA:806,9
DA:807,9
DA:808,9
DA:809,9
DA:810,9
DA:815,93
DA:816,93
DA:817,28
DA:818,28
DA:819,28
DA:820,28
DA:821,28
DA:822,28
DA:823,28
DA:824,65
DA:825,65
DA:826,65
DA:827,65
DA:828,65
DA:829,65
DA:830,65
DA:831,65
DA:832,65
DA:833,65
DA:834,65
DA:835,65
DA:836,65
DA:837,65
DA:838,65
DA:839,65
DA:840,65
DA:841,65
DA:842,65
DA:843,65
DA:844,65
DA:845,65
DA:846,65
DA:847,65
DA:848,65
DA:849,65
DA:850,65
DA:851,0
DA:852,65
DA:853,65
DA:854,65
DA:855,65
DA:856,65
DA:857,65
DA:858,65
DA:859,65
DA:860,65
DA:861,65
DA:862,65
DA:863,65
DA:864,65
DA:865,65
DA:866,65
DA:867,65
DA:868,153
DA:871,102
DA:872,102
DA:873,102
DA:874,102
DA:875,102
DA:876,102
DA:877,102
DA:878,102
DA:879,102
DA:881,102
DA:882,102
DA:884,0
DA:885,0
DA:886,0
DA:887,0
DA:888,0
DA:889,0
DA:890,0
DA:894,102
DA:895,0
DA:896,102
DA:899,102
DA:900,102
DA:902,0
DA:903,0
DA:904,0
DA:905,0
DA:906,0
DA:907,0
DA:908,0
DA:911,0
DA:912,0
DA:913,0
DA:914,0
DA:915,0
DA:916,0
DA:917,0
DA:922,102
DA:923,9
DA:924,9
DA:925,9
DA:926,9
DA:927,9
DA:928,9
DA:929,9
DA:930,9
DA:931,9
DA:932,9
DA:933,93
DA:934,93
DA:935,93
DA:936,93
DA:937,93
DA:938,93
DA:939,93
DA:940,93
DA:941,93
DA:942,93
DA:943,93
DA:944,93
DA:945,93
DA:946,93
DA:947,93
DA:948,93
DA:949,93
DA:950,93
DA:951,93
DA:952,93
DA:953,93
DA:954,93
DA:955,93
DA:956,93
DA:957,93
DA:958,93
DA:959,93
DA:960,93
DA:961,93
DA:962,37
DA:963,37
DA:964,37
DA:965,37
DA:966,37
DA:967,37
DA:968,37
DA:969,56
DA:970,56
DA:971,56
DA:972,56
DA:973,56
DA:974,56
DA:975,56
DA:976,56
DA:977,56
DA:978,56
DA:979,56
DA:980,56
DA:981,56
DA:982,56
DA:983,56
DA:984,56
DA:985,56
DA:986,56
DA:987,56
DA:988,56
DA:989,56
DA:990,56
DA:991,56
DA:992,56
DA:993,56
DA:994,56
DA:995,0
DA:996,56
DA:997,56
DA:998,56
DA:999,56
DA:1000,56
DA:1001,56
DA:1002,56
DA:1003,56
DA:1004,56
DA:1005,56
DA:1006,56
DA:1007,56
DA:1008,56
DA:1009,56
DA:1010,56
DA:1011,56
DA:1012,102
DA:1015,38617
DA:1016,38617
DA:1017,38617
DA:1018,38617
DA:1019,38617
DA:1020,38617
DA:1038,87
DA:1039,87
DA:1040,87
DA:1041,87
DA:1042,87
DA:1044,111
DA:1045,111
DA:1046,111
DA:1048,66
DA:1049,66
DA:1050,66
DA:1054,117
DA:1055,117
DA:1056,117
DA:1066,84
DA:1067,84
DA:1068,84
DA:1069,84
DA:1070,84
DA:1080,9
DA:1081,9
DA:1082,9
DA:1083,9
DA:1084,9
DA:1085,9
DA:1086,9
DA:1087,9
DA:1088,9
DA:1089,9
DA:1090,9
DA:1091,9
DA:1092,9
DA:1093,9
DA:1094,9
DA:1095,9
DA:1096,9
DA:1097,9
DA:1098,9
DA:1099,9
DA:1100,9
DA:1101,9
DA:1102,9
DA:1103,9
DA:1104,9
DA:1105,9
DA:1106,9
DA:1110,0
DA:1111,0
DA:1112,0
DA:1113,0
DA:1114,0
DA:1115,0
DA:1116,0
DA:1117,0
DA:1118,0
DA:1119,0
DA:1120,0
DA:1123,0
DA:1124,0
DA:1125,0
DA:1126,0
DA:1127,0
DA:1128,0
DA:1129,0
DA:1130,0
DA:1131,0
DA:1132,0
DA:1134,9
DA:1135,9
DA:1136,9
DA:1137,9
DA:1138,9
DA:1139,9
DA:1140,9
DA:1141,9
DA:1142,9
DA:1143,9
DA:1144,9
DA:1145,9
DA:1148,72
DA:1149,72
DA:1150,72
DA:1151,72
DA:1152,72
DA:1153,72
DA:1154,72
DA:1155,72
DA:1156,72
DA:1157,72
DA:1158,72
DA:1159,72
DA:1160,72
DA:1161,72
DA:1162,72
DA:1163,72
DA:1164,72
DA:1165,72
DA:1166,72
DA:1167,72
DA:1168,72
DA:1169,72
DA:1170,72
DA:1171,72
DA:1173,36
DA:1174,36
DA:1175,36
DA:1176,36
DA:1177,36
DA:1178,36
DA:1179,36
DA:1180,36
DA:1181,36
DA:1182,36
DA:1183,36
DA:1184,36
DA:1185,36
DA:1186,36
DA:1187,36
DA:1188,36
DA:1189,36
DA:1190,36
DA:1191,36
DA:1192,36
DA:1193,36
DA:1196,8
DA:1197,8
DA:1198,8
DA:1199,8
DA:1200,8
DA:1201,8
DA:1202,8
DA:1203,8
DA:1204,8
DA:1205,8
DA:1206,8
DA:1207,8
DA:1208,8
DA:1209,8
DA:1210,8
DA:1211,8
DA:1212,8
DA:1215,8
DA:1217,8
DA:1218,8
DA:1219,8
DA:1220,8
DA:1221,8
DA:1222,8
DA:1224,8
DA:1225,8
DA:1226,8
DA:1227,8
DA:1228,8
DA:1229,8
DA:1230,8
DA:1231,8
DA:1232,8
DA:1233,8
DA:1236,8
DA:1237,8
DA:1238,8
DA:1239,8
DA:1242,8
DA:1243,8
DA:1244,8
DA:1245,8
DA:1246,8
DA:1247,8
DA:1248,8
DA:1249,8
DA:1250,8
DA:1251,8
DA:1252,8
DA:1253,8
DA:1254,8
DA:1255,8
DA:1256,8
DA:1257,8
DA:1258,8
DA:1259,8
DA:1260,8
DA:1261,8
DA:1262,8
DA:1263,8
DA:1264,8
DA:1265,8
DA:1266,8
DA:1267,8
DA:1268,8
DA:1269,8
DA:1270,8
DA:1271,8
DA:1272,8
DA:1273,8
DA:1274,8
DA:1275,8
DA:1276,8
DA:1279,8
DA:1280,8
DA:1281,8
DA:1282,8
DA:1283,8
DA:1284,8
DA:1285,8
DA:1286,8
DA:1287,8
DA:1288,8
DA:1289,8
DA:1290,8
DA:1291,8
DA:1292,8
DA:1293,8
DA:1294,8
DA:1295,8
DA:1296,8
DA:1297,8
DA:1298,8
DA:1299,8
DA:1300,8
DA:1301,8
DA:1302,8
DA:1303,16
DA:1304,8
DA:1305,8
DA:1306,8
DA:1307,8
DA:1308,8
DA:1309,8
DA:1310,8
DA:1313,8
DA:1314,8
DA:1315,16
DA:1316,8
DA:1317,8
DA:1319,16
DA:1320,16
DA:1321,16
DA:1322,16
DA:1323,16
DA:1324,16
DA:1325,16
DA:1326,16
DA:1327,16
DA:1328,16
DA:1329,16
DA:1330,16
DA:1331,16
DA:1332,16
DA:1333,16
DA:1334,16
DA:1335,16
DA:1336,16
DA:1337,16
DA:1338,16
DA:1339,16
DA:1340,16
DA:1341,16
DA:1342,16
DA:1343,16
DA:1344,16
DA:1345,16
DA:1347,8
DA:1350,8
DA:1351,8
DA:1352,8
DA:1353,8
DA:1354,8
DA:1355,8
DA:1356,8
DA:1357,8
DA:1358,8
DA:1359,8
DA:1360,8
DA:1361,8
DA:1362,8
DA:1363,8
DA:1364,8
DA:1365,8
DA:1366,8
DA:1367,8
DA:1368,8
DA:1369,8
DA:1370,8
DA:1371,8
DA:1372,8
DA:1373,8
DA:1374,8
DA:1375,8
DA:1376,8
DA:1377,8
DA:1378,8
DA:1379,8
DA:1380,8
DA:1381,8
DA:1382,8
DA:1383,8
DA:1384,8
DA:1385,8
DA:1386,8
DA:1387,8
DA:1388,8
DA:1389,8
DA:1390,8
DA:1391,8
DA:1392,8
DA:1393,8
DA:1394,16
DA:1395,8
DA:1396,8
DA:1397,8
DA:1398,8
DA:1401,8
DA:1402,8
DA:1403,8
DA:1404,8
DA:1405,8
DA:1406,8
DA:1407,8
DA:1408,8
DA:1409,8
DA:1410,8
DA:1411,8
DA:1412,8
DA:1413,8
DA:1414,8
DA:1415,8
DA:1416,8
DA:1417,8
DA:1418,8
DA:1419,8
DA:1420,8
DA:1421,8
DA:1422,8
DA:1423,8
DA:1424,8
DA:1425,8
DA:1426,8
DA:1427,8
DA:1428,8
DA:1429,8
DA:1430,8
DA:1431,8
DA:1432,8
DA:1433,8
DA:1434,8
DA:1435,8
DA:1438,8
DA:1439,8
DA:1440,8
DA:1441,8
DA:1442,8
DA:1443,8
DA:1444,8
DA:1445,8
DA:1446,8
DA:1447,8
DA:1448,8
DA:1449,8
DA:1450,8
DA:1451,8
DA:1452,8
DA:1453,8
DA:1454,8
DA:1455,8
DA:1458,8
DA:1459,8
DA:1460,8
DA:1461,8
DA:1462,8
DA:1463,8
DA:1470,6
DA:1471,6
DA:1472,6
DA:1473,6
DA:1474,6
DA:1475,6
DA:1476,6
DA:1477,6
DA:1478,6
DA:1479,6
DA:1480,6
DA:1481,6
DA:1482,6
DA:1485,6
DA:1486,6
DA:1487,6
DA:1488,6
DA:1489,6
DA:1490,6
DA:1491,6
DA:1492,6
DA:1493,6
DA:1494,6
DA:1495,6
DA:1496,6
DA:1497,6
DA:1498,6
DA:1499,6
DA:1500,6
DA:1503,6
DA:1504,6
DA:1505,6
DA:1506,6
DA:1507,6
DA:1508,6
DA:1509,6
DA:1510,6
DA:1511,6
DA:1512,6
DA:1513,6
DA:1514,6
DA:1515,6
DA:1516,6
DA:1517,6
DA:1518,6
DA:1519,6
DA:1522,4
DA:1523,4
DA:1524,4
DA:1525,4
DA:1526,4
DA:1527,4
DA:1528,4
DA:1529,4
DA:1530,4
DA:1531,4
DA:1532,4
DA:1533,4
DA:1534,4
DA:1535,4
DA:1536,4
DA:1537,4
DA:1538,4
DA:1539,4
DA:1540,4
DA:1541,4
DA:1542,4
DA:1543,4
DA:1544,4
DA:1545,4
DA:1546,4
DA:1547,4
DA:1548,4
DA:1549,4
DA:1550,4
DA:1553,4
DA:1554,4
DA:1555,4
DA:1556,4
DA:1557,4
DA:1558,4
DA:1559,4
DA:1560,4
DA:1561,4
DA:1562,4
DA:1563,4
DA:1564,4
DA:1565,4
DA:1566,4
DA:1567,4
DA:1568,4
DA:1571,4
DA:1572,4
DA:1573,4
DA:1574,4
DA:1575,4
DA:1576,4
DA:1577,4
DA:1578,4
DA:1579,4
DA:1580,4
DA:1581,4
DA:1582,4
DA:1583,4
DA:1584,4
DA:1585,4
DA:1586,4
DA:1599,12
DA:1600,12
DA:1601,12
DA:1602,12
DA:1603,12
DA:1604,12
DA:1605,12
DA:1606,12
DA:1607,12
DA:1608,12
DA:1609,12
DA:1610,12
DA:1611,12
DA:1612,12
DA:1613,12
DA:1614,12
DA:1615,12
DA:1616,12
DA:1617,12
DA:1618,12
DA:1619,12
DA:1620,12
DA:1621,12
DA:1622,12
DA:1623,12
DA:1624,12
DA:1625,12
DA:1629,6
DA:1630,6
DA:1631,6
DA:1632,6
DA:1633,6
DA:1634,6
DA:1635,6
DA:1636,6
DA:1637,6
DA:1638,6
DA:1639,6
DA:1640,6
DA:1641,6
DA:1643,6
DA:1644,6
DA:1645,6
DA:1646,6
DA:1647,6
DA:1648,6
DA:1649,6
DA:1650,6
DA:1651,6
DA:1652,6
DA:1654,0
DA:1655,0
DA:1656,0
DA:1657,0
DA:1658,0
DA:1659,0
DA:1660,0
DA:1661,0
DA:1662,0
DA:1663,0
DA:1664,0
DA:1665,0
DA:1669,4
DA:1670,4
DA:1671,4
DA:1672,4
DA:1673,4
DA:1674,4
DA:1675,4
DA:1676,4
DA:1677,4
DA:1678,4
DA:1679,4
DA:1680,4
DA:1681,4
DA:1682,4
DA:1683,4
DA:1684,4
DA:1685,4
DA:1686,4
DA:1687,4
DA:1688,4
DA:1689,4
DA:1690,4
DA:1691,4
DA:1692,4
DA:1693,4
DA:1694,4
DA:1696,4
DA:1697,4
DA:1698,4
DA:1699,4
DA:1701,4
DA:1702,4
DA:1703,4
DA:1704,4
DA:1705,4
DA:1708,4
DA:1709,4
DA:1710,4
DA:1711,4
DA:1712,4
DA:1713,4
DA:1714,4
DA:1715,4
DA:1716,4
DA:1717,4
DA:1718,4
DA:1719,4
DA:1720,4
DA:1721,4
DA:1722,4
DA:1723,4
DA:1724,4
DA:1725,4
DA:1726,4
DA:1727,4
DA:1728,4
DA:1729,4
DA:1730,4
DA:1731,4
DA:1732,4
DA:1733,4
DA:1736,4
DA:1737,4
DA:1738,4
DA:1739,4
DA:1740,4
DA:1741,4
DA:1742,4
DA:1743,4
DA:1744,4
DA:1745,4
DA:1746,4
DA:1747,4
DA:1748,4
DA:1749,4
DA:1750,4
DA:1751,4
DA:1752,4
DA:1753,4
DA:1754,4
DA:1755,4
DA:1756,4
DA:1757,4
DA:1758,4
DA:1759,4
DA:1760,4
DA:1761,4
DA:1764,4
DA:1765,4
DA:1766,4
DA:1767,8
DA:1768,4
DA:1769,4
DA:1770,4
DA:1773,4
DA:1774,4
DA:1775,4
DA:1776,12
DA:1777,4
DA:1778,4
DA:1779,4
DA:1780,4
DA:1781,4
DA:1782,4
DA:1783,4
DA:1784,4
DA:1785,4
DA:1788,4
DA:1789,4
DA:1790,4
DA:1791,4
DA:1792,4
DA:1793,4
DA:1794,4
DA:1795,4
DA:1796,4
DA:1797,4
DA:1798,4
DA:1799,4
DA:1800,4
DA:1801,4
DA:1802,4
DA:1803,4
DA:1804,4
DA:1805,4
DA:1806,4
DA:1807,4
DA:1808,4
DA:1809,4
DA:1810,4
DA:1811,4
DA:1812,4
DA:1814,4
DA:1816,4
DA:1817,4
DA:1818,4
DA:1819,4
DA:1820,4
DA:1835,4
DA:1836,4
DA:1837,4
DA:1838,4
DA:1839,4
DA:1840,4
DA:1841,4
DA:1845,4
DA:1846,20
DA:1847,4
DA:1848,4
DA:1849,4
DA:1850,4
DA:1851,4
DA:1853,20
DA:1854,20
DA:1855,0
DA:1858,4
DA:1862,4
DA:1863,4
DA:1864,4
DA:1865,4
DA:1866,0
DA:1868,4
DA:1869,4
DA:1870,0
DA:1872,4
DA:1873,4
DA:1874,0
DA:1876,4
DA:1880,4
DA:1881,4
DA:1882,4
DA:1883,4
DA:1884,4
DA:1885,0
DA:1887,4
BRF:0
BRH:0
LF:1509
LH:1330
end_of_record
SF:/Users/VD/Vootaa_Projects/vootaa-labs@github/nexus-node/crates/nexus-execution/src/block_stm/mod.rs
FN:494,_RNvMNtCsh7qRzkv9eQQ_15nexus_execution9block_stmNtB2_16BlockStmExecutor10query_view
FN:126,_RNvMNtCsh7qRzkv9eQQ_15nexus_execution9block_stmNtB2_16BlockStmExecutor11with_config
FN:152,_RNvMNtCsh7qRzkv9eQQ_15nexus_execution9block_stmNtB2_16BlockStmExecutor12set_chain_id
FN:410,_RNvMNtCsh7qRzkv9eQQ_15nexus_execution9block_stmNtB2_16BlockStmExecutor14execute_serial
FN:159,_RNvMNtCsh7qRzkv9eQQ_15nexus_execution9block_stmNtB2_16BlockStmExecutor14set_state_view
FN:108,_RNvMNtCsh7qRzkv9eQQ_15nexus_execution9block_stmNtB2_16BlockStmExecutor3new
FN:181,_RNvMNtCsh7qRzkv9eQQ_15nexus_execution9block_stmNtB2_16BlockStmExecutor7execute
FN:485,_RNvMNtCsh7qRzkv9eQQ_15nexus_execution9block_stmNtB2_16BlockStmExecutor8shard_id
FN:147,_RNvMNtCsh7qRzkv9eQQ_15nexus_execution9block_stmNtB2_16BlockStmExecutor9set_epoch
FN:540,_RNvNtCsh7qRzkv9eQQ_15nexus_execution9block_stm18compute_state_root
FN:513,_RNvXs_NtCsh7qRzkv9eQQ_15nexus_execution9block_stmNtB4_16BlockStmExecutorNtNtB6_6traits19TransactionExecutor13execute_block
FN:235,_RNCNCNvMNtCsh7qRzkv9eQQ_15nexus_execution9block_stmNtB6_16BlockStmExecutor7executes0_00B8_
FN:453,_RNCNvMNtCsh7qRzkv9eQQ_15nexus_execution9block_stmNtB4_16BlockStmExecutor14execute_serial0B6_
FN:110,_RNCNvMNtCsh7qRzkv9eQQ_15nexus_execution9block_stmNtB4_16BlockStmExecutor3new0B6_
FN:205,_RNCNvMNtCsh7qRzkv9eQQ_15nexus_execution9block_stmNtB4_16BlockStmExecutor7execute0B6_
FN:231,_RNCNvMNtCsh7qRzkv9eQQ_15nexus_execution9block_stmNtB4_16BlockStmExecutor7executes0_0B6_
FN:301,_RNCNvMNtCsh7qRzkv9eQQ_15nexus_execution9block_stmNtB4_16BlockStmExecutor7executes1_0B6_
FN:328,_RNCNvMNtCsh7qRzkv9eQQ_15nexus_execution9block_stmNtB4_16BlockStmExecutor7executes2_0B6_
FN:387,_RNCNvMNtCsh7qRzkv9eQQ_15nexus_execution9block_stmNtB4_16BlockStmExecutor7executes3_0B6_
FN:206,_RNCNvMNtCsh7qRzkv9eQQ_15nexus_execution9block_stmNtB4_16BlockStmExecutor7executes_0B6_
FN:518,_RNCNvXs_NtCsh7qRzkv9eQQ_15nexus_execution9block_stmNtB6_16BlockStmExecutorNtNtB8_6traits19TransactionExecutor13execute_block0B8_
FN:494,_RNvMNtCs6aoit5jAd69_15nexus_execution9block_stmNtB2_16BlockStmExecutor10query_view
FN:595,_RNvMNtNtCs6aoit5jAd69_15nexus_execution9block_stm5testsNtB2_12MemStateView11set_balance
FN:589,_RNvMNtNtCs6aoit5jAd69_15nexus_execution9block_stm5testsNtB2_12MemStateView3new
FN:615,_RNvMs0_NtNtCs6aoit5jAd69_15nexus_execution9block_stm5testsNtB5_11TestAccount6random
FN:627,_RNvNtNtCs6aoit5jAd69_15nexus_execution9block_stm5tests13make_transfer
FN:623,_RNvNtNtCs6aoit5jAd69_15nexus_execution9block_stm5tests14recipient_addr
FN:660,_RNvNtNtCs6aoit5jAd69_15nexus_execution9block_stm5testss_11empty_block
FN:856,_RNvNtNtCs6aoit5jAd69_15nexus_execution9block_stm5testss_17shard_id_accessor
FN:738,_RNvNtNtCs6aoit5jAd69_15nexus_execution9block_stm5testss_23receipts_preserve_order
FN:669,_RNvNtNtCs6aoit5jAd69_15nexus_execution9block_stm5testss_23single_transfer_success
FN:862,_RNvNtNtCs6aoit5jAd69_15nexus_execution9block_stm5testss_23with_config_constructor
FN:798,_RNvNtNtCs6aoit5jAd69_15nexus_execution9block_stm5testss_24compute_state_root_empty
FN:760,_RNvNtNtCs6aoit5jAd69_15nexus_execution9block_stm5testss_24state_root_deterministic
FN:684,_RNvNtNtCs6aoit5jAd69_15nexus_execution9block_stm5testss_29transfer_insufficient_balance
FN:722,_RNvNtNtCs6aoit5jAd69_15nexus_execution9block_stm5testss_30conflicting_transfers_resolved
FN:870,_RNvNtNtCs6aoit5jAd69_15nexus_execution9block_stm5testss_32adaptive_parallelism_integration
FN:773,_RNvNtNtCs6aoit5jAd69_15nexus_execution9block_stm5testss_32trait_impl_works_with_state_view
FN:702,_RNvNtNtCs6aoit5jAd69_15nexus_execution9block_stm5testss_33independent_transfers_no_conflict
FN:907,_RNvNtNtCs6aoit5jAd69_15nexus_execution9block_stm5testss_33many_independent_txs_no_conflicts
FN:890,_RNvNtNtCs6aoit5jAd69_15nexus_execution9block_stm5testss_35shared_mvhashmap_resolves_conflicts
FN:805,_RNvNtNtCs6aoit5jAd69_15nexus_execution9block_stm5testss_36compute_state_root_changes_with_data
FN:786,_RNvNtNtCs6aoit5jAd69_15nexus_execution9block_stm5testss_37trait_impl_rejects_missing_state_view
FN:1166,_RNvNtNtCs6aoit5jAd69_15nexus_execution9block_stm5testss_38execution_should_reject_wrong_chain_id
FN:1032,_RNvNtNtCs6aoit5jAd69_15nexus_execution9block_stm5testss_39state_root_deduplicates_same_key_writes
FN:1086,_RNvNtNtCs6aoit5jAd69_15nexus_execution9block_stm5testss_42execution_should_reject_sender_pk_mismatch
FN:1144,_RNvNtNtCs6aoit5jAd69_15nexus_execution9block_stm5testss_43execution_should_reject_expired_transaction
FN:972,_RNvNtNtCs6aoit5jAd69_15nexus_execution9block_stm5testss_45block_stm_parallel_matches_serial_independent
FN:931,_RNvNtNtCs6aoit5jAd69_15nexus_execution9block_stm5testss_46block_stm_parallel_must_match_serial_reference
FN:1115,_RNvNtNtCs6aoit5jAd69_15nexus_execution9block_stm5testss_48execution_should_reject_replayed_sequence_number
FN:1062,_RNvNtNtCs6aoit5jAd69_15nexus_execution9block_stm5testss_49execution_should_reject_forged_signed_transaction
FN:997,_RNvNtNtCs6aoit5jAd69_15nexus_execution9block_stm5testss_56state_root_must_be_independent_of_change_iteration_order
FN:602,_RNvXs_NtNtCs6aoit5jAd69_15nexus_execution9block_stm5testsNtB4_12MemStateViewNtNtB8_6traits9StateView3get
FN:1353,_RNCNCNvNtNtCs6aoit5jAd69_15nexus_execution9block_stm14property_testss_18state_root_is_pures_00B9_
FN:1377,_RNCNCNvNtNtCs6aoit5jAd69_15nexus_execution9block_stm14property_testss_28state_root_order_independents_00B9_
FN:1287,_RNCNCNvNtNtCs6aoit5jAd69_15nexus_execution9block_stm14property_testss_33parallel_matches_serial_any_batchs_00B9_
FN:1294,_RNCNCNvNtNtCs6aoit5jAd69_15nexus_execution9block_stm14property_testss_33parallel_matches_serial_any_batchs_0s_0B9_
FN:1324,_RNCNCNvNtNtCs6aoit5jAd69_15nexus_execution9block_stm14property_testss_35parallel_matches_serial_conflictings_00B9_
FN:745,_RNCNvNtNtCs6aoit5jAd69_15nexus_execution9block_stm5testss_23receipts_preserve_order0B7_
FN:748,_RNCNvNtNtCs6aoit5jAd69_15nexus_execution9block_stm5testss_23receipts_preserve_orders_0B7_
FN:879,_RNCNvNtNtCs6aoit5jAd69_15nexus_execution9block_stm5testss_32adaptive_parallelism_integration0B7_
FN:911,_RNCNvNtNtCs6aoit5jAd69_15nexus_execution9block_stm5testss_33many_independent_txs_no_conflicts0B7_
FN:918,_RNCNvNtNtCs6aoit5jAd69_15nexus_execution9block_stm5testss_33many_independent_txs_no_conflictss_0B7_
FN:976,_RNCNvNtNtCs6aoit5jAd69_15nexus_execution9block_stm5testss_45block_stm_parallel_matches_serial_independent0B7_
FN:983,_RNCNvNtNtCs6aoit5jAd69_15nexus_execution9block_stm5testss_45block_stm_parallel_matches_serial_independents_0B7_
FN:235,_RNCNCNvMNtCs6aoit5jAd69_15nexus_execution9block_stmNtB6_16BlockStmExecutor7executes0_00B8_
FN:453,_RNCNvMNtCs6aoit5jAd69_15nexus_execution9block_stmNtB4_16BlockStmExecutor14execute_serial0B6_
FN:110,_RNCNvMNtCs6aoit5jAd69_15nexus_execution9block_stmNtB4_16BlockStmExecutor3new0B6_
FN:205,_RNCNvMNtCs6aoit5jAd69_15nexus_execution9block_stmNtB4_16BlockStmExecutor7execute0B6_
FN:231,_RNCNvMNtCs6aoit5jAd69_15nexus_execution9block_stmNtB4_16BlockStmExecutor7executes0_0B6_
FN:301,_RNCNvMNtCs6aoit5jAd69_15nexus_execution9block_stmNtB4_16BlockStmExecutor7executes1_0B6_
FN:328,_RNCNvMNtCs6aoit5jAd69_15nexus_execution9block_stmNtB4_16BlockStmExecutor7executes2_0B6_
FN:387,_RNCNvMNtCs6aoit5jAd69_15nexus_execution9block_stmNtB4_16BlockStmExecutor7executes3_0B6_
FN:206,_RNCNvMNtCs6aoit5jAd69_15nexus_execution9block_stmNtB4_16BlockStmExecutor7executes_0B6_
FN:518,_RNCNvXs_NtCs6aoit5jAd69_15nexus_execution9block_stmNtB6_16BlockStmExecutorNtNtB8_6traits19TransactionExecutor13execute_block0B8_
FN:1209,_RNvMNtNtCs6aoit5jAd69_15nexus_execution9block_stm14property_testsNtB2_12MemStateView11set_balance
FN:1203,_RNvMNtNtCs6aoit5jAd69_15nexus_execution9block_stm14property_testsNtB2_12MemStateView3new
FN:1232,_RNvMs0_NtNtCs6aoit5jAd69_15nexus_execution9block_stm14property_testsNtB5_11TestAccount6random
FN:1239,_RNvNtNtCs6aoit5jAd69_15nexus_execution9block_stm14property_tests13make_transfer
FN:1339,_RNvNtNtCs6aoit5jAd69_15nexus_execution9block_stm14property_tests23test_compute_state_root
FN:1216,_RNvXs_NtNtCs6aoit5jAd69_15nexus_execution9block_stm14property_testsNtB4_12MemStateViewNtNtB8_6traits9StateView3get
FN:126,_RNvMNtCs6aoit5jAd69_15nexus_execution9block_stmNtB2_16BlockStmExecutor11with_config
FN:152,_RNvMNtCs6aoit5jAd69_15nexus_execution9block_stmNtB2_16BlockStmExecutor12set_chain_id
FN:410,_RNvMNtCs6aoit5jAd69_15nexus_execution9block_stmNtB2_16BlockStmExecutor14execute_serial
FN:159,_RNvMNtCs6aoit5jAd69_15nexus_execution9block_stmNtB2_16BlockStmExecutor14set_state_view
FN:108,_RNvMNtCs6aoit5jAd69_15nexus_execution9block_stmNtB2_16BlockStmExecutor3new
FN:181,_RNvMNtCs6aoit5jAd69_15nexus_execution9block_stmNtB2_16BlockStmExecutor7execute
FN:485,_RNvMNtCs6aoit5jAd69_15nexus_execution9block_stmNtB2_16BlockStmExecutor8shard_id
FN:147,_RNvMNtCs6aoit5jAd69_15nexus_execution9block_stmNtB2_16BlockStmExecutor9set_epoch
FN:540,_RNvNtCs6aoit5jAd69_15nexus_execution9block_stm18compute_state_root
FN:513,_RNvXs_NtCs6aoit5jAd69_15nexus_execution9block_stmNtB4_16BlockStmExecutorNtNtB6_6traits19TransactionExecutor13execute_block
FNDA:17,_RNvMNtCsh7qRzkv9eQQ_15nexus_execution9block_stmNtB2_16BlockStmExecutor10query_view
FNDA:404,_RNvMNtCsh7qRzkv9eQQ_15nexus_execution9block_stmNtB2_16BlockStmExecutor11with_config
FNDA:434,_RNvMNtCsh7qRzkv9eQQ_15nexus_execution9block_stmNtB2_16BlockStmExecutor12set_chain_id
FNDA:14,_RNvMNtCsh7qRzkv9eQQ_15nexus_execution9block_stmNtB2_16BlockStmExecutor14execute_serial
FNDA:0,_RNvMNtCsh7qRzkv9eQQ_15nexus_execution9block_stmNtB2_16BlockStmExecutor14set_state_view
FNDA:6634,_RNvMNtCsh7qRzkv9eQQ_15nexus_execution9block_stmNtB2_16BlockStmExecutor3new
FNDA:7021,_RNvMNtCsh7qRzkv9eQQ_15nexus_execution9block_stmNtB2_16BlockStmExecutor7execute
FNDA:0,_RNvMNtCsh7qRzkv9eQQ_15nexus_execution9block_stmNtB2_16BlockStmExecutor8shard_id
FNDA:56,_RNvMNtCsh7qRzkv9eQQ_15nexus_execution9block_stmNtB2_16BlockStmExecutor9set_epoch
FNDA:6153,_RNvNtCsh7qRzkv9eQQ_15nexus_execution9block_stm18compute_state_root
FNDA:0,_RNvXs_NtCsh7qRzkv9eQQ_15nexus_execution9block_stmNtB4_16BlockStmExecutorNtNtB6_6traits19TransactionExecutor13execute_block
FNDA:11411,_RNCNCNvMNtCsh7qRzkv9eQQ_15nexus_execution9block_stmNtB6_16BlockStmExecutor7executes0_00B8_
FNDA:0,_RNCNvMNtCsh7qRzkv9eQQ_15nexus_execution9block_stmNtB4_16BlockStmExecutor14execute_serial0B6_
FNDA:6634,_RNCNvMNtCsh7qRzkv9eQQ_15nexus_execution9block_stmNtB4_16BlockStmExecutor3new0B6_
FNDA:0,_RNCNvMNtCsh7qRzkv9eQQ_15nexus_execution9block_stmNtB4_16BlockStmExecutor7execute0B6_
FNDA:6139,_RNCNvMNtCsh7qRzkv9eQQ_15nexus_execution9block_stmNtB4_16BlockStmExecutor7executes0_0B6_
FNDA:24753,_RNCNvMNtCsh7qRzkv9eQQ_15nexus_execution9block_stmNtB4_16BlockStmExecutor7executes1_0B6_
FNDA:0,_RNCNvMNtCsh7qRzkv9eQQ_15nexus_execution9block_stmNtB4_16BlockStmExecutor7executes2_0B6_
FNDA:11411,_RNCNvMNtCsh7qRzkv9eQQ_15nexus_execution9block_stmNtB4_16BlockStmExecutor7executes3_0B6_
FNDA:0,_RNCNvMNtCsh7qRzkv9eQQ_15nexus_execution9block_stmNtB4_16BlockStmExecutor7executes_0B6_
FNDA:0,_RNCNvXs_NtCsh7qRzkv9eQQ_15nexus_execution9block_stmNtB6_16BlockStmExecutorNtNtB8_6traits19TransactionExecutor13execute_block0B8_
FNDA:0,_RNvMNtCs6aoit5jAd69_15nexus_execution9block_stmNtB2_16BlockStmExecutor10query_view
FNDA:420,_RNvMNtNtCs6aoit5jAd69_15nexus_execution9block_stm5testsNtB2_12MemStateView11set_balance
FNDA:252,_RNvMNtNtCs6aoit5jAd69_15nexus_execution9block_stm5testsNtB2_12MemStateView3new
FNDA:448,_RNvMs0_NtNtCs6aoit5jAd69_15nexus_execution9block_stm5testsNtB5_11TestAccount6random
FNDA:714,_RNvNtNtCs6aoit5jAd69_15nexus_execution9block_stm5tests13make_transfer
FNDA:658,_RNvNtNtCs6aoit5jAd69_15nexus_execution9block_stm5tests14recipient_addr
FNDA:14,_RNvNtNtCs6aoit5jAd69_15nexus_execution9block_stm5testss_11empty_block
FNDA:14,_RNvNtNtCs6aoit5jAd69_15nexus_execution9block_stm5testss_17shard_id_accessor
FNDA:14,_RNvNtNtCs6aoit5jAd69_15nexus_execution9block_stm5testss_23receipts_preserve_order
FNDA:14,_RNvNtNtCs6aoit5jAd69_15nexus_execution9block_stm5testss_23single_transfer_success
FNDA:14,_RNvNtNtCs6aoit5jAd69_15nexus_execution9block_stm5testss_23with_config_constructor
FNDA:14,_RNvNtNtCs6aoit5jAd69_15nexus_execution9block_stm5testss_24compute_state_root_empty
FNDA:14,_RNvNtNtCs6aoit5jAd69_15nexus_execution9block_stm5testss_24state_root_deterministic
FNDA:14,_RNvNtNtCs6aoit5jAd69_15nexus_execution9block_stm5testss_29transfer_insufficient_balance
FNDA:14,_RNvNtNtCs6aoit5jAd69_15nexus_execution9block_stm5testss_30conflicting_transfers_resolved
FNDA:14,_RNvNtNtCs6aoit5jAd69_15nexus_execution9block_stm5testss_32adaptive_parallelism_integration
FNDA:14,_RNvNtNtCs6aoit5jAd69_15nexus_execution9block_stm5testss_32trait_impl_works_with_state_view
FNDA:14,_RNvNtNtCs6aoit5jAd69_15nexus_execution9block_stm5testss_33independent_transfers_no_conflict
FNDA:14,_RNvNtNtCs6aoit5jAd69_15nexus_execution9block_stm5testss_33many_independent_txs_no_conflicts
FNDA:14,_RNvNtNtCs6aoit5jAd69_15nexus_execution9block_stm5testss_35shared_mvhashmap_resolves_conflicts
FNDA:14,_RNvNtNtCs6aoit5jAd69_15nexus_execution9block_stm5testss_36compute_state_root_changes_with_data
FNDA:14,_RNvNtNtCs6aoit5jAd69_15nexus_execution9block_stm5testss_37trait_impl_rejects_missing_state_view
FNDA:14,_RNvNtNtCs6aoit5jAd69_15nexus_execution9block_stm5testss_38execution_should_reject_wrong_chain_id
FNDA:14,_RNvNtNtCs6aoit5jAd69_15nexus_execution9block_stm5testss_39state_root_deduplicates_same_key_writes
FNDA:14,_RNvNtNtCs6aoit5jAd69_15nexus_execution9block_stm5testss_42execution_should_reject_sender_pk_mismatch
FNDA:14,_RNvNtNtCs6aoit5jAd69_15nexus_execution9block_stm5testss_43execution_should_reject_expired_transaction
FNDA:14,_RNvNtNtCs6aoit5jAd69_15nexus_execution9block_stm5testss_45block_stm_parallel_matches_serial_independent
FNDA:14,_RNvNtNtCs6aoit5jAd69_15nexus_execution9block_stm5testss_46block_stm_parallel_must_match_serial_reference
FNDA:14,_RNvNtNtCs6aoit5jAd69_15nexus_execution9block_stm5testss_48execution_should_reject_replayed_sequence_number
FNDA:14,_RNvNtNtCs6aoit5jAd69_15nexus_execution9block_stm5testss_49execution_should_reject_forged_signed_transaction
FNDA:14,_RNvNtNtCs6aoit5jAd69_15nexus_execution9block_stm5testss_56state_root_must_be_independent_of_change_iteration_order
FNDA:2956,_RNvXs_NtNtCs6aoit5jAd69_15nexus_execution9block_stm5testsNtB4_12MemStateViewNtNtB8_6traits9StateView3get
FNDA:4569,_RNCNCNvNtNtCs6aoit5jAd69_15nexus_execution9block_stm14property_testss_18state_root_is_pures_00B9_
FNDA:3102,_RNCNCNvNtNtCs6aoit5jAd69_15nexus_execution9block_stm14property_testss_28state_root_order_independents_00B9_
FNDA:1342,_RNCNCNvNtNtCs6aoit5jAd69_15nexus_execution9block_stm14property_testss_33parallel_matches_serial_any_batchs_00B9_
FNDA:1342,_RNCNCNvNtNtCs6aoit5jAd69_15nexus_execution9block_stm14property_testss_33parallel_matches_serial_any_batchs_0s_0B9_
FNDA:1172,_RNCNCNvNtNtCs6aoit5jAd69_15nexus_execution9block_stm14property_testss_35parallel_matches_serial_conflictings_00B9_
FNDA:70,_RNCNvNtNtCs6aoit5jAd69_15nexus_execution9block_stm5testss_23receipts_preserve_order0B7_
FNDA:70,_RNCNvNtNtCs6aoit5jAd69_15nexus_execution9block_stm5testss_23receipts_preserve_orders_0B7_
FNDA:168,_RNCNvNtNtCs6aoit5jAd69_15nexus_execution9block_stm5testss_32adaptive_parallelism_integration0B7_
FNDA:112,_RNCNvNtNtCs6aoit5jAd69_15nexus_execution9block_stm5testss_33many_independent_txs_no_conflicts0B7_
FNDA:112,_RNCNvNtNtCs6aoit5jAd69_15nexus_execution9block_stm5testss_33many_independent_txs_no_conflictss_0B7_
FNDA:84,_RNCNvNtNtCs6aoit5jAd69_15nexus_execution9block_stm5testss_45block_stm_parallel_matches_serial_independent0B7_
FNDA:84,_RNCNvNtNtCs6aoit5jAd69_15nexus_execution9block_stm5testss_45block_stm_parallel_matches_serial_independents_0B7_
FNDA:3349,_RNCNCNvMNtCs6aoit5jAd69_15nexus_execution9block_stmNtB6_16BlockStmExecutor7executes0_00B8_
FNDA:0,_RNCNvMNtCs6aoit5jAd69_15nexus_execution9block_stmNtB4_16BlockStmExecutor14execute_serial0B6_
FNDA:364,_RNCNvMNtCs6aoit5jAd69_15nexus_execution9block_stmNtB4_16BlockStmExecutor3new0B6_
FNDA:0,_RNCNvMNtCs6aoit5jAd69_15nexus_execution9block_stmNtB4_16BlockStmExecutor7execute0B6_
FNDA:975,_RNCNvMNtCs6aoit5jAd69_15nexus_execution9block_stmNtB4_16BlockStmExecutor7executes0_0B6_
FNDA:6349,_RNCNvMNtCs6aoit5jAd69_15nexus_execution9block_stmNtB4_16BlockStmExecutor7executes1_0B6_
FNDA:0,_RNCNvMNtCs6aoit5jAd69_15nexus_execution9block_stmNtB4_16BlockStmExecutor7executes2_0B6_
FNDA:3349,_RNCNvMNtCs6aoit5jAd69_15nexus_execution9block_stmNtB4_16BlockStmExecutor7executes3_0B6_
FNDA:0,_RNCNvMNtCs6aoit5jAd69_15nexus_execution9block_stmNtB4_16BlockStmExecutor7executes_0B6_
FNDA:28,_RNCNvXs_NtCs6aoit5jAd69_15nexus_execution9block_stmNtB6_16BlockStmExecutorNtNtB8_6traits19TransactionExecutor13execute_block0B8_
FNDA:1636,_RNvMNtNtCs6aoit5jAd69_15nexus_execution9block_stm14property_testsNtB2_12MemStateView11set_balance
FNDA:742,_RNvMNtNtCs6aoit5jAd69_15nexus_execution9block_stm14property_testsNtB2_12MemStateView3new
FNDA:1715,_RNvMs0_NtNtCs6aoit5jAd69_15nexus_execution9block_stm14property_testsNtB5_11TestAccount6random
FNDA:2593,_RNvNtNtCs6aoit5jAd69_15nexus_execution9block_stm14property_tests13make_transfer
FNDA:2604,_RNvNtNtCs6aoit5jAd69_15nexus_execution9block_stm14property_tests23test_compute_state_root
FNDA:15000,_RNvXs_NtNtCs6aoit5jAd69_15nexus_execution9block_stm14property_testsNtB4_12MemStateViewNtNtB8_6traits9StateView3get
FNDA:770,_RNvMNtCs6aoit5jAd69_15nexus_execution9block_stmNtB2_16BlockStmExecutor11with_config
FNDA:14,_RNvMNtCs6aoit5jAd69_15nexus_execution9block_stmNtB2_16BlockStmExecutor12set_chain_id
FNDA:616,_RNvMNtCs6aoit5jAd69_15nexus_execution9block_stmNtB2_16BlockStmExecutor14execute_serial
FNDA:14,_RNvMNtCs6aoit5jAd69_15nexus_execution9block_stmNtB2_16BlockStmExecutor14set_state_view
FNDA:364,_RNvMNtCs6aoit5jAd69_15nexus_execution9block_stmNtB2_16BlockStmExecutor3new
FNDA:1148,_RNvMNtCs6aoit5jAd69_15nexus_execution9block_stmNtB2_16BlockStmExecutor7execute
FNDA:28,_RNvMNtCs6aoit5jAd69_15nexus_execution9block_stmNtB2_16BlockStmExecutor8shard_id
FNDA:14,_RNvMNtCs6aoit5jAd69_15nexus_execution9block_stmNtB2_16BlockStmExecutor9set_epoch
FNDA:4307,_RNvNtCs6aoit5jAd69_15nexus_execution9block_stm18compute_state_root
FNDA:42,_RNvXs_NtCs6aoit5jAd69_15nexus_execution9block_stmNtB4_16BlockStmExecutorNtNtB6_6traits19TransactionExecutor13execute_block
FNF:70
FNH:66
DA:108,6998
DA:109,6998
DA:110,6998
DA:111,6998
DA:112,6998
DA:113,6998
DA:114,6998
DA:115,6998
DA:116,6998
DA:117,6998
DA:118,6998
DA:119,6998
DA:120,6998
DA:121,6998
DA:122,6998
DA:123,6998
DA:126,1174
DA:127,1174
DA:128,1174
DA:129,1174
DA:130,1174
DA:131,1174
DA:132,1174
DA:133,1174
DA:134,1174
DA:135,1174
DA:136,1174
DA:137,1174
DA:138,1174
DA:139,1174
DA:140,1174
DA:141,1174
DA:142,1174
DA:143,1174
DA:144,1174
DA:147,70
DA:148,70
DA:149,70
DA:152,448
DA:153,448
DA:154,448
DA:159,14
DA:160,14
DA:161,14
DA:181,8169
DA:182,8169
DA:183,8169
DA:184,8169
DA:185,8169
DA:186,8169
DA:187,1055
DA:188,1055
DA:189,1055
DA:190,1055
DA:191,1055
DA:192,1055
DA:193,7114
DA:194,7114
DA:195,7114
DA:196,7114
DA:197,7114
DA:198,7114
DA:199,7114
DA:202,7114
DA:203,7114
DA:204,7114
DA:205,7114
DA:206,7114
DA:214,7114
DA:215,21874
DA:216,14760
DA:217,14760
DA:227,7114
DA:228,7114
DA:229,7114
DA:230,7114
DA:231,7114
DA:232,7114
DA:233,7114
DA:234,7114
DA:235,14760
DA:236,14760
DA:239,112
DA:240,112
DA:241,112
DA:242,112
DA:243,112
DA:244,112
DA:245,112
DA:246,14648
DA:247,14648
DA:250,14648
DA:251,14760
DA:252,7114
DA:253,7114
DA:256,7114
DA:260,14760
DA:261,14760
DA:262,112
DA:263,14648
DA:280,7114
DA:282,14760
DA:290,14631
DA:291,14760
DA:298,129
DA:299,14631
DA:300,14631
DA:301,31102
DA:302,31102
DA:303,31102
DA:304,31102
DA:305,31102
DA:306,14631
DA:307,14631
DA:308,7198
DA:309,7198
DA:310,7198
DA:311,7198
DA:312,0
DA:313,0
DA:314,0
DA:315,0
DA:316,7198
DA:319,7198
DA:320,7198
DA:321,7198
DA:322,7433
DA:326,14631
DA:327,14631
DA:328,14631
DA:329,0
DA:330,14631
DA:333,7114
DA:334,3934
DA:336,3180
DA:340,7114
DA:341,7114
DA:342,7114
DA:343,7114
DA:344,7114
DA:345,7114
DA:350,0
DA:354,7114
DA:355,7114
DA:356,7114
DA:357,7114
DA:358,7114
DA:359,7114
DA:361,14760
DA:362,14760
DA:363,14760
DA:364,14760
DA:365,14760
DA:366,14760
DA:367,14760
DA:368,14760
DA:369,14760
DA:370,14760
DA:371,14760
DA:372,14760
DA:373,14760
DA:374,14760
DA:375,14760
DA:381,7114
DA:382,7114
DA:383,7114
DA:384,7114
DA:385,7114
DA:386,7114
DA:387,14760
DA:388,7114
DA:389,7114
DA:390,7114
DA:391,7114
DA:392,7114
DA:393,7114
DA:394,7114
DA:395,7114
DA:396,7114
DA:397,7114
DA:398,7114
DA:399,7114
DA:400,7114
DA:401,7114
DA:402,8169
DA:410,630
DA:411,630
DA:412,630
DA:413,630
DA:414,630
DA:415,630
DA:416,0
DA:417,0
DA:418,0
DA:419,0
DA:420,0
DA:421,0
DA:422,630
DA:423,630
DA:424,630
DA:425,630
DA:426,630
DA:427,630
DA:428,630
DA:429,630
DA:430,630
DA:431,630
DA:433,2710
DA:435,2710
DA:436,0
DA:437,0
DA:438,0
DA:439,0
DA:440,0
DA:441,0
DA:442,0
DA:443,0
DA:444,0
DA:445,0
DA:446,0
DA:447,0
DA:448,2710
DA:450,2710
DA:451,2710
DA:452,2710
DA:453,2710
DA:454,0
DA:455,2710
DA:457,2710
DA:458,2710
DA:459,2710
DA:460,2710
DA:461,2710
DA:462,2710
DA:463,2710
DA:464,2710
DA:465,2710
DA:466,2710
DA:467,2710
DA:468,2710
DA:469,2710
DA:473,630
DA:474,630
DA:475,630
DA:476,630
DA:477,630
DA:478,630
DA:479,630
DA:480,630
DA:481,630
DA:482,630
DA:485,28
DA:486,28
DA:487,28
DA:494,17
DA:495,17
DA:496,17
DA:497,17
DA:498,17
DA:499,17
DA:500,17
DA:501,17
DA:502,17
DA:503,17
DA:513,42
DA:514,42
DA:515,42
DA:516,42
DA:517,42
DA:518,42
DA:519,28
DA:520,28
DA:521,28
DA:522,28
DA:523,28
DA:524,42
DA:525,14
DA:526,42
DA:540,10460
DA:541,10460
DA:542,10460
DA:543,10460
DA:544,10460
DA:545,76869
DA:546,66409
DA:547,66409
DA:548,66409
DA:549,66409
DA:550,66409
DA:552,10460
DA:553,10460
DA:555,57231
DA:556,46771
DA:557,46771
DA:558,46771
DA:559,46771
DA:560,46771
DA:561,0
DA:562,0
DA:564,10460
DA:565,10460
DA:589,252
DA:590,252
DA:591,252
DA:592,252
DA:593,252
DA:595,420
DA:596,420
DA:597,420
DA:598,420
DA:602,2956
DA:603,2956
DA:604,2956
DA:615,448
DA:616,448
DA:617,448
DA:618,448
DA:619,448
DA:623,658
DA:624,658
DA:625,658
DA:627,714
DA:628,714
DA:629,714
DA:630,714
DA:631,714
DA:632,714
DA:633,714
DA:634,714
DA:635,714
DA:636,714
DA:637,714
DA:638,714
DA:639,714
DA:640,714
DA:641,714
DA:642,714
DA:643,714
DA:644,714
DA:645,714
DA:646,714
DA:647,714
DA:648,714
DA:649,714
DA:650,714
DA:651,714
DA:652,714
DA:653,714
DA:654,714
DA:655,714
DA:660,14
DA:661,14
DA:662,14
DA:663,14
DA:664,14
DA:665,14
DA:666,14
DA:669,14
DA:670,14
DA:671,14
DA:672,14
DA:673,14
DA:674,14
DA:675,14
DA:676,14
DA:677,14
DA:678,14
DA:679,14
DA:680,14
DA:681,14
DA:684,14
DA:685,14
DA:686,14
DA:687,14
DA:688,14
DA:689,14
DA:690,14
DA:691,14
DA:692,14
DA:693,14
DA:694,14
DA:695,14
DA:696,0
DA:697,0
DA:699,14
DA:702,14
DA:703,14
DA:704,14
DA:705,14
DA:706,14
DA:707,14
DA:708,14
DA:709,14
DA:710,14
DA:711,14
DA:712,14
DA:713,14
DA:714,14
DA:715,14
DA:716,14
DA:717,14
DA:718,14
DA:719,14
DA:722,14
DA:723,14
DA:724,14
DA:725,14
DA:726,14
DA:727,14
DA:728,14
DA:729,14
DA:730,14
DA:731,14
DA:732,14
DA:733,14
DA:734,14
DA:735,14
DA:738,14
DA:739,14
DA:740,14
DA:741,14
DA:742,14
DA:743,14
DA:744,14
DA:745,70
DA:746,14
DA:747,14
DA:748,70
DA:749,14
DA:750,14
DA:751,14
DA:752,70
DA:753,70
DA:754,70
DA:755,70
DA:757,14
DA:760,14
DA:761,14
DA:762,14
DA:763,14
DA:764,14
DA:765,14
DA:766,14
DA:767,14
DA:768,14
DA:769,14
DA:770,14
DA:773,14
DA:776,14
DA:777,14
DA:778,14
DA:779,14
DA:780,14
DA:781,14
DA:782,14
DA:783,14
DA:786,14
DA:789,14
DA:790,14
DA:791,14
DA:792,14
DA:793,14
DA:794,14
DA:795,14
DA:798,14
DA:799,14
DA:800,14
DA:801,14
DA:802,14
DA:805,14
DA:806,14
DA:807,14
DA:808,14
DA:809,14
DA:810,14
DA:811,14
DA:812,14
DA:813,14
DA:814,14
DA:815,14
DA:816,14
DA:817,14
DA:818,14
DA:856,14
DA:857,14
DA:858,14
DA:859,14
DA:862,14
DA:863,14
DA:864,14
DA:865,14
DA:866,14
DA:867,14
DA:870,14
DA:871,14
DA:872,14
DA:873,14
DA:874,14
DA:875,14
DA:877,70
DA:878,56
DA:879,168
DA:880,56
DA:881,56
DA:882,56
DA:885,14
DA:886,14
DA:887,14
DA:890,14
DA:891,14
DA:892,14
DA:893,14
DA:894,14
DA:895,14
DA:896,14
DA:897,14
DA:898,14
DA:899,14
DA:900,14
DA:901,14
DA:902,14
DA:903,14
DA:904,14
DA:907,14
DA:908,14
DA:909,14
DA:910,14
DA:911,112
DA:912,126
DA:913,112
DA:914,112
DA:916,14
DA:917,14
DA:918,112
DA:919,14
DA:920,14
DA:921,14
DA:922,14
DA:923,126
DA:924,112
DA:926,14
DA:931,14
DA:932,14
DA:933,14
DA:934,14
DA:935,14
DA:936,14
DA:937,14
DA:938,14
DA:939,14
DA:940,14
DA:941,14
DA:942,14
DA:943,14
DA:944,14
DA:945,14
DA:946,14
DA:947,14
DA:948,14
DA:949,14
DA:950,14
DA:952,0
DA:954,14
DA:955,14
DA:956,56
DA:957,14
DA:958,14
DA:959,14
DA:960,14
DA:962,56
DA:963,56
DA:964,56
DA:966,0
DA:969,14
DA:972,14
DA:973,14
DA:974,14
DA:975,14
DA:976,84
DA:977,98
DA:978,84
DA:979,84
DA:981,14
DA:982,14
DA:983,84
DA:984,14
DA:985,14
DA:986,14
DA:987,14
DA:988,14
DA:989,14
DA:990,14
DA:991,84
DA:992,84
DA:994,14
DA:997,14
DA:998,14
DA:999,14
DA:1000,14
DA:1001,14
DA:1002,14
DA:1003,14
DA:1004,14
DA:1005,14
DA:1006,14
DA:1007,14
DA:1008,14
DA:1009,14
DA:1010,14
DA:1011,14
DA:1012,14
DA:1013,14
DA:1014,14
DA:1015,14
DA:1016,14
DA:1017,14
DA:1018,14
DA:1019,14
DA:1020,14
DA:1021,14
DA:1022,14
DA:1023,14
DA:1024,14
DA:1025,14
DA:1026,14
DA:1027,0
DA:1029,14
DA:1032,14
DA:1033,14
DA:1034,14
DA:1035,14
DA:1036,14
DA:1037,14
DA:1038,14
DA:1039,14
DA:1040,14
DA:1041,14
DA:1042,14
DA:1043,14
DA:1044,14
DA:1045,14
DA:1046,14
DA:1047,14
DA:1048,14
DA:1049,14
DA:1050,14
DA:1051,14
DA:1052,14
DA:1053,14
DA:1054,0
DA:1056,14
DA:1062,14
DA:1063,14
DA:1064,14
DA:1065,14
DA:1066,14
DA:1067,14
DA:1068,14
DA:1069,14
DA:1070,14
DA:1071,14
DA:1072,14
DA:1073,14
DA:1074,14
DA:1075,14
DA:1076,14
DA:1077,14
DA:1079,0
DA:1081,14
DA:1086,14
DA:1087,14
DA:1088,14
DA:1089,14
DA:1090,14
DA:1091,14
DA:1092,14
DA:1093,14
DA:1094,14
DA:1095,14
DA:1096,14
DA:1097,14
DA:1098,14
DA:1099,14
DA:1100,14
DA:1103,14
DA:1104,0
DA:1105,14
DA:1108,0
DA:1109,0
DA:1111,14
DA:1115,14
DA:1116,14
DA:1117,14
DA:1118,14
DA:1119,14
DA:1120,14
DA:1121,14
DA:1122,14
DA:1123,14
DA:1124,14
DA:1125,14
DA:1126,14
DA:1127,14
DA:1129,14
DA:1130,0
DA:1131,14
DA:1137,0
DA:1138,0
DA:1140,14
DA:1144,14
DA:1145,14
DA:1146,14
DA:1147,14
DA:1148,14
DA:1149,14
DA:1150,14
DA:1151,14
DA:1152,14
DA:1153,14
DA:1154,14
DA:1155,14
DA:1156,14
DA:1157,14
DA:1158,14
DA:1160,0
DA:1162,14
DA:1166,14
DA:1167,14
DA:1168,14
DA:1169,14
DA:1170,14
DA:1171,14
DA:1172,14
DA:1173,14
DA:1174,14
DA:1175,14
DA:1176,14
DA:1177,14
DA:1178,14
DA:1179,14
DA:1180,14
DA:1182,0
DA:1184,14
DA:1203,742
DA:1204,742
DA:1205,742
DA:1206,742
DA:1207,742
DA:1209,1636
DA:1210,1636
DA:1211,1636
DA:1212,1636
DA:1216,15000
DA:1217,15000
DA:1218,15000
DA:1219,15000
DA:1220,15000
DA:1221,15000
DA:1222,15000
DA:1232,1715
DA:1233,1715
DA:1234,1715
DA:1235,1715
DA:1236,1715
DA:1239,2593
DA:1240,2593
DA:1241,2593
DA:1242,2593
DA:1243,2593
DA:1244,2593
DA:1245,2593
DA:1246,2593
DA:1247,2593
DA:1248,2593
DA:1249,2593
DA:1250,2593
DA:1251,2593
DA:1252,2593
DA:1253,2593
DA:1254,2593
DA:1255,2593
DA:1256,2593
DA:1257,2593
DA:1258,2593
DA:1259,2593
DA:1260,2593
DA:1261,2593
DA:1262,2593
DA:1263,2593
DA:1264,2593
DA:1265,2593
DA:1266,2593
DA:1267,2593
DA:1287,1342
DA:1294,1342
DA:1324,1172
DA:1339,2604
DA:1340,2604
DA:1341,2604
DA:1353,4569
DA:1354,4569
DA:1355,4569
DA:1356,4569
DA:1357,4569
DA:1358,4569
DA:1359,4569
DA:1360,4569
DA:1361,4569
DA:1362,4569
DA:1377,3102
DA:1378,3102
DA:1379,3102
DA:1380,3102
DA:1381,3102
DA:1382,3102
DA:1383,3102
DA:1384,3102
DA:1385,3102
DA:1386,3102
BRF:0
BRH:0
LF:842
LH:794
end_of_record
SF:/Users/VD/Vootaa_Projects/vootaa-labs@github/nexus-node/crates/nexus-execution/src/block_stm/mvhashmap.rs
FN:139,_RNCNvMs_NtNtCsh7qRzkv9eQQ_15nexus_execution9block_stm9mvhashmapNtB6_9MvHashMap15remove_versions0Ba_
FN:138,_RNvMs_NtNtCsh7qRzkv9eQQ_15nexus_execution9block_stm9mvhashmapNtB4_9MvHashMap15remove_versions
FN:91,_RNvMs_NtNtCsh7qRzkv9eQQ_15nexus_execution9block_stm9mvhashmapNtB4_9MvHashMap3new
FN:114,_RNvMs_NtNtCsh7qRzkv9eQQ_15nexus_execution9block_stm9mvhashmapNtB4_9MvHashMap12apply_writes
FN:166,_RNvMs_NtNtCsh7qRzkv9eQQ_15nexus_execution9block_stm9mvhashmapNtB4_9MvHashMap13validate_read
FN:99,_RNvMs_NtNtCsh7qRzkv9eQQ_15nexus_execution9block_stm9mvhashmapNtB4_9MvHashMap13with_capacity
FN:150,_RNvMs_NtNtCsh7qRzkv9eQQ_15nexus_execution9block_stm9mvhashmapNtB4_9MvHashMap4read
FN:44,_RNvXNtNtCsh7qRzkv9eQQ_15nexus_execution9block_stm9mvhashmapNtB2_18VersionCapExceededNtNtCslNfmTnNkGed_4core3fmt7Display3fmt
FN:193,_RNvMNtNtNtCs6aoit5jAd69_15nexus_execution9block_stm9mvhashmap5testsNtB2_8MemState3new
FN:199,_RNvMNtNtNtCs6aoit5jAd69_15nexus_execution9block_stm9mvhashmap5testsNtB2_8MemState3set
FN:214,_RNvNtNtNtCs6aoit5jAd69_15nexus_execution9block_stm9mvhashmap5tests3key
FN:210,_RNvNtNtNtCs6aoit5jAd69_15nexus_execution9block_stm9mvhashmap5tests4addr
FN:274,_RNvNtNtNtCs6aoit5jAd69_15nexus_execution9block_stm9mvhashmap5testss_19latest_version_wins
FN:403,_RNvNtNtNtCs6aoit5jAd69_15nexus_execution9block_stm9mvhashmap5testss_23concurrent_apply_writes
FN:463,_RNvNtNtNtCs6aoit5jAd69_15nexus_execution9block_stm9mvhashmap5testss_23delete_recorded_as_none
FN:331,_RNvNtNtNtCs6aoit5jAd69_15nexus_execution9block_stm9mvhashmap5testss_24validate_read_consistent
FN:430,_RNvNtNtNtCs6aoit5jAd69_15nexus_execution9block_stm9mvhashmap5testss_25concurrent_read_and_write
FN:295,_RNvNtNtNtCs6aoit5jAd69_15nexus_execution9block_stm9mvhashmap5testss_25remove_versions_clears_tx
FN:222,_RNvNtNtNtCs6aoit5jAd69_15nexus_execution9block_stm9mvhashmap5testss_26read_falls_through_to_base
FN:258,_RNvNtNtNtCs6aoit5jAd69_15nexus_execution9block_stm9mvhashmap5testss_26write_visible_to_higher_tx
FN:311,_RNvNtNtNtCs6aoit5jAd69_15nexus_execution9block_stm9mvhashmap5testss_27validate_read_detects_stale
FN:233,_RNvNtNtNtCs6aoit5jAd69_15nexus_execution9block_stm9mvhashmap5testss_29read_missing_key_returns_none
FN:345,_RNvNtNtNtCs6aoit5jAd69_15nexus_execution9block_stm9mvhashmap5testss_30max_versions_cap_returns_error
FN:243,_RNvNtNtNtCs6aoit5jAd69_15nexus_execution9block_stm9mvhashmap5testss_35write_then_read_same_tx_not_visible
FN:371,_RNvNtNtNtCs6aoit5jAd69_15nexus_execution9block_stm9mvhashmap5testss_62mvhashmap_hot_key_conflicts_should_not_drop_validation_history
FN:205,_RNvXs_NtNtNtCs6aoit5jAd69_15nexus_execution9block_stm9mvhashmap5testsNtB4_8MemStateNtNtBa_6traits9StateView3get
FN:411,_RNCNCNvNtNtNtCs6aoit5jAd69_15nexus_execution9block_stm9mvhashmap5testss_23concurrent_apply_writes00Bb_
FN:439,_RNCNCNvNtNtNtCs6aoit5jAd69_15nexus_execution9block_stm9mvhashmap5testss_25concurrent_read_and_write00Bb_
FN:450,_RNCNCNvNtNtNtCs6aoit5jAd69_15nexus_execution9block_stm9mvhashmap5testss_25concurrent_read_and_write0s_0Bb_
FN:408,_RNCNvNtNtNtCs6aoit5jAd69_15nexus_execution9block_stm9mvhashmap5testss_23concurrent_apply_writes0B9_
FN:435,_RNCNvNtNtNtCs6aoit5jAd69_15nexus_execution9block_stm9mvhashmap5testss_25concurrent_read_and_write0B9_
FN:139,_RNCNvMs_NtNtCs6aoit5jAd69_15nexus_execution9block_stm9mvhashmapNtB6_9MvHashMap15remove_versions0Ba_
FN:114,_RNvMs_NtNtCs6aoit5jAd69_15nexus_execution9block_stm9mvhashmapNtB4_9MvHashMap12apply_writes
FN:166,_RNvMs_NtNtCs6aoit5jAd69_15nexus_execution9block_stm9mvhashmapNtB4_9MvHashMap13validate_read
FN:99,_RNvMs_NtNtCs6aoit5jAd69_15nexus_execution9block_stm9mvhashmapNtB4_9MvHashMap13with_capacity
FN:138,_RNvMs_NtNtCs6aoit5jAd69_15nexus_execution9block_stm9mvhashmapNtB4_9MvHashMap15remove_versions
FN:91,_RNvMs_NtNtCs6aoit5jAd69_15nexus_execution9block_stm9mvhashmapNtB4_9MvHashMap3new
FN:150,_RNvMs_NtNtCs6aoit5jAd69_15nexus_execution9block_stm9mvhashmapNtB4_9MvHashMap4read
FN:44,_RNvXNtNtCs6aoit5jAd69_15nexus_execution9block_stm9mvhashmapNtB2_18VersionCapExceededNtNtCslNfmTnNkGed_4core3fmt7Display3fmt
FNDA:0,_RNCNvMs_NtNtCsh7qRzkv9eQQ_15nexus_execution9block_stm9mvhashmapNtB6_9MvHashMap15remove_versions0Ba_
FNDA:0,_RNvMs_NtNtCsh7qRzkv9eQQ_15nexus_execution9block_stm9mvhashmapNtB4_9MvHashMap15remove_versions
FNDA:0,_RNvMs_NtNtCsh7qRzkv9eQQ_15nexus_execution9block_stm9mvhashmapNtB4_9MvHashMap3new
FNDA:11394,_RNvMs_NtNtCsh7qRzkv9eQQ_15nexus_execution9block_stm9mvhashmapNtB4_9MvHashMap12apply_writes
FNDA:24753,_RNvMs_NtNtCsh7qRzkv9eQQ_15nexus_execution9block_stm9mvhashmapNtB4_9MvHashMap13validate_read
FNDA:6153,_RNvMs_NtNtCsh7qRzkv9eQQ_15nexus_execution9block_stm9mvhashmapNtB4_9MvHashMap13with_capacity
FNDA:65846,_RNvMs_NtNtCsh7qRzkv9eQQ_15nexus_execution9block_stm9mvhashmapNtB4_9MvHashMap4read
FNDA:0,_RNvXNtNtCsh7qRzkv9eQQ_15nexus_execution9block_stm9mvhashmapNtB2_18VersionCapExceededNtNtCslNfmTnNkGed_4core3fmt7Display3fmt
FNDA:182,_RNvMNtNtNtCs6aoit5jAd69_15nexus_execution9block_stm9mvhashmap5testsNtB2_8MemState3new
FNDA:42,_RNvMNtNtNtCs6aoit5jAd69_15nexus_execution9block_stm9mvhashmap5testsNtB2_8MemState3set
FNDA:168,_RNvNtNtNtCs6aoit5jAd69_15nexus_execution9block_stm9mvhashmap5tests3key
FNDA:350,_RNvNtNtNtCs6aoit5jAd69_15nexus_execution9block_stm9mvhashmap5tests4addr
FNDA:14,_RNvNtNtNtCs6aoit5jAd69_15nexus_execution9block_stm9mvhashmap5testss_19latest_version_wins
FNDA:14,_RNvNtNtNtCs6aoit5jAd69_15nexus_execution9block_stm9mvhashmap5testss_23concurrent_apply_writes
FNDA:14,_RNvNtNtNtCs6aoit5jAd69_15nexus_execution9block_stm9mvhashmap5testss_23delete_recorded_as_none
FNDA:14,_RNvNtNtNtCs6aoit5jAd69_15nexus_execution9block_stm9mvhashmap5testss_24validate_read_consistent
FNDA:14,_RNvNtNtNtCs6aoit5jAd69_15nexus_execution9block_stm9mvhashmap5testss_25concurrent_read_and_write
FNDA:14,_RNvNtNtNtCs6aoit5jAd69_15nexus_execution9block_stm9mvhashmap5testss_25remove_versions_clears_tx
FNDA:14,_RNvNtNtNtCs6aoit5jAd69_15nexus_execution9block_stm9mvhashmap5testss_26read_falls_through_to_base
FNDA:14,_RNvNtNtNtCs6aoit5jAd69_15nexus_execution9block_stm9mvhashmap5testss_26write_visible_to_higher_tx
FNDA:14,_RNvNtNtNtCs6aoit5jAd69_15nexus_execution9block_stm9mvhashmap5testss_27validate_read_detects_stale
FNDA:14,_RNvNtNtNtCs6aoit5jAd69_15nexus_execution9block_stm9mvhashmap5testss_29read_missing_key_returns_none
FNDA:14,_RNvNtNtNtCs6aoit5jAd69_15nexus_execution9block_stm9mvhashmap5testss_30max_versions_cap_returns_error
FNDA:14,_RNvNtNtNtCs6aoit5jAd69_15nexus_execution9block_stm9mvhashmap5testss_35write_then_read_same_tx_not_visible
FNDA:14,_RNvNtNtNtCs6aoit5jAd69_15nexus_execution9block_stm9mvhashmap5testss_62mvhashmap_hot_key_conflicts_should_not_drop_validation_history
FNDA:86,_RNvXs_NtNtNtCs6aoit5jAd69_15nexus_execution9block_stm9mvhashmap5testsNtB4_8MemStateNtNtBa_6traits9StateView3get
FNDA:112,_RNCNCNvNtNtNtCs6aoit5jAd69_15nexus_execution9block_stm9mvhashmap5testss_23concurrent_apply_writes00Bb_
FNDA:14,_RNCNCNvNtNtNtCs6aoit5jAd69_15nexus_execution9block_stm9mvhashmap5testss_25concurrent_read_and_write00Bb_
FNDA:14,_RNCNCNvNtNtNtCs6aoit5jAd69_15nexus_execution9block_stm9mvhashmap5testss_25concurrent_read_and_write0s_0Bb_
FNDA:14,_RNCNvNtNtNtCs6aoit5jAd69_15nexus_execution9block_stm9mvhashmap5testss_23concurrent_apply_writes0B9_
FNDA:14,_RNCNvNtNtNtCs6aoit5jAd69_15nexus_execution9block_stm9mvhashmap5testss_25concurrent_read_and_write0B9_
FNDA:14,_RNCNvMs_NtNtCs6aoit5jAd69_15nexus_execution9block_stm9mvhashmapNtB6_9MvHashMap15remove_versions0Ba_
FNDA:6717,_RNvMs_NtNtCs6aoit5jAd69_15nexus_execution9block_stm9mvhashmapNtB4_9MvHashMap12apply_writes
FNDA:6825,_RNvMs_NtNtCs6aoit5jAd69_15nexus_execution9block_stm9mvhashmapNtB4_9MvHashMap13validate_read
FNDA:1860,_RNvMs_NtNtCs6aoit5jAd69_15nexus_execution9block_stm9mvhashmapNtB4_9MvHashMap13with_capacity
FNDA:14,_RNvMs_NtNtCs6aoit5jAd69_15nexus_execution9block_stm9mvhashmapNtB4_9MvHashMap15remove_versions
FNDA:241,_RNvMs_NtNtCs6aoit5jAd69_15nexus_execution9block_stm9mvhashmapNtB4_9MvHashMap3new
FNDA:29412,_RNvMs_NtNtCs6aoit5jAd69_15nexus_execution9block_stm9mvhashmapNtB4_9MvHashMap4read
FNDA:0,_RNvXNtNtCs6aoit5jAd69_15nexus_execution9block_stm9mvhashmapNtB2_18VersionCapExceededNtNtCslNfmTnNkGed_4core3fmt7Display3fmt
FNF:31
FNH:30
DA:44,0
DA:45,0
DA:46,0
DA:47,0
DA:48,0
DA:49,0
DA:50,0
DA:91,241
DA:92,241
DA:93,241
DA:99,8013
DA:100,8013
DA:101,8013
DA:102,8013
DA:103,8013
DA:104,8013
DA:105,8013
DA:114,18111
DA:115,18111
DA:116,18111
DA:117,18111
DA:118,18111
DA:119,68506
DA:120,50409
DA:121,50409
DA:122,50409
DA:123,14
DA:124,14
DA:125,14
DA:126,14
DA:127,50395
DA:128,50395
DA:130,18097
DA:131,18111
DA:138,14
DA:139,14
DA:140,14
DA:141,14
DA:142,14
DA:150,95258
DA:151,95258
DA:154,27002
DA:155,26960
DA:156,42
DA:157,68256
DA:159,68298
DA:160,95258
DA:166,31578
DA:167,31578
DA:168,31578
DA:169,31578
DA:170,31578
DA:171,31578
DA:172,31578
DA:173,31578
DA:174,31578
DA:193,182
DA:194,182
DA:195,182
DA:196,182
DA:197,182
DA:199,42
DA:200,42
DA:201,42
DA:205,86
DA:206,86
DA:207,86
DA:210,350
DA:211,350
DA:212,350
DA:214,168
DA:215,168
DA:216,168
DA:217,168
DA:218,168
DA:219,168
DA:222,14
DA:223,14
DA:224,14
DA:225,14
DA:226,14
DA:227,14
DA:228,14
DA:229,14
DA:230,14
DA:233,14
DA:234,14
DA:235,14
DA:236,14
DA:237,14
DA:238,14
DA:239,14
DA:240,14
DA:243,14
DA:244,14
DA:245,14
DA:246,14
DA:247,14
DA:248,14
DA:249,14
DA:250,14
DA:251,14
DA:252,14
DA:253,14
DA:254,14
DA:255,14
DA:258,14
DA:259,14
DA:260,14
DA:261,14
DA:262,14
DA:263,14
DA:264,14
DA:265,14
DA:266,14
DA:267,14
DA:268,14
DA:270,14
DA:271,14
DA:274,14
DA:275,14
DA:276,14
DA:277,14
DA:278,14
DA:279,14
DA:280,14
DA:281,14
DA:282,14
DA:283,14
DA:284,14
DA:285,14
DA:286,14
DA:287,14
DA:288,14
DA:289,14
DA:291,14
DA:292,14
DA:295,14
DA:296,14
DA:297,14
DA:298,14
DA:299,14
DA:300,14
DA:301,14
DA:302,14
DA:303,14
DA:304,14
DA:306,14
DA:307,14
DA:308,14
DA:311,14
DA:312,14
DA:313,14
DA:314,14
DA:315,14
DA:316,14
DA:317,14
DA:318,14
DA:319,14
DA:322,14
DA:323,14
DA:324,14
DA:325,14
DA:326,14
DA:327,14
DA:328,14
DA:331,14
DA:332,14
DA:333,14
DA:334,14
DA:335,14
DA:336,14
DA:337,14
DA:338,14
DA:339,14
DA:340,14
DA:341,14
DA:342,14
DA:345,14
DA:346,14
DA:347,14
DA:348,14
DA:349,14
DA:352,70
DA:353,56
DA:354,56
DA:355,56
DA:356,56
DA:359,14
DA:360,14
DA:361,14
DA:362,14
DA:365,14
DA:366,14
DA:367,14
DA:368,14
DA:371,14
DA:372,14
DA:373,14
DA:374,14
DA:375,14
DA:378,448
DA:379,448
DA:380,448
DA:381,448
DA:382,448
DA:385,14
DA:386,14
DA:387,448
DA:388,448
DA:392,434
DA:393,434
DA:394,434
DA:395,434
DA:396,0
DA:397,0
DA:400,14
DA:403,14
DA:404,14
DA:405,14
DA:406,14
DA:407,14
DA:408,14
DA:409,126
DA:410,112
DA:411,112
DA:412,112
DA:413,112
DA:414,112
DA:415,112
DA:416,112
DA:417,112
DA:418,112
DA:419,112
DA:420,112
DA:421,14
DA:422,14
DA:423,14
DA:424,14
DA:425,14
DA:426,14
DA:427,14
DA:430,14
DA:431,14
DA:432,14
DA:433,14
DA:434,14
DA:435,14
DA:436,14
DA:437,14
DA:438,14
DA:439,14
DA:440,14
DA:441,14
DA:442,14
DA:443,14
DA:444,14
DA:445,14
DA:446,14
DA:447,14
DA:448,14
DA:449,14
DA:450,14
DA:451,14
DA:452,14
DA:453,14
DA:454,14
DA:455,14
DA:456,14
DA:457,14
DA:458,14
DA:459,14
DA:460,14
DA:463,14
DA:464,14
DA:465,14
DA:466,14
DA:467,14
DA:468,14
DA:469,14
DA:470,14
DA:471,14
DA:472,14
DA:473,14
DA:474,14
DA:475,14
DA:476,14
DA:478,14
DA:479,14
BRF:0
BRH:0
LF:301
LH:292
end_of_record
SF:/Users/VD/Vootaa_Projects/vootaa-labs@github/nexus-node/crates/nexus-execution/src/error.rs
FN:222,_RNvMNtCsh7qRzkv9eQQ_15nexus_execution5errorNtB2_14ExecutionError12metric_label
FN:260,_RNvNtNtCs6aoit5jAd69_15nexus_execution5error5tests13sample_digest
FN:340,_RNvNtNtCs6aoit5jAd69_15nexus_execution5error5testss_18error_is_send_sync
FN:331,_RNvNtNtCs6aoit5jAd69_15nexus_execution5error5testss_18result_alias_works
FN:277,_RNvNtNtCs6aoit5jAd69_15nexus_execution5error5testss_24error_display_move_abort
FN:286,_RNvNtNtCs6aoit5jAd69_15nexus_execution5error5testss_24error_display_out_of_gas
FN:297,_RNvNtNtCs6aoit5jAd69_15nexus_execution5error5testss_25error_display_max_retries
FN:265,_RNvNtNtCs6aoit5jAd69_15nexus_execution5error5testss_30error_display_includes_context
FN:317,_RNvNtNtCs6aoit5jAd69_15nexus_execution5error5testss_30invalid_signature_source_chain
FN:306,_RNvNtNtCs6aoit5jAd69_15nexus_execution5error5testss_31error_display_payload_too_large
FN:346,_RNvNtNtCs6aoit5jAd69_15nexus_execution5error5testss_33metric_label_covers_every_variant
FN:222,_RNvMNtCs6aoit5jAd69_15nexus_execution5errorNtB2_14ExecutionError12metric_label
FN:341,_RINvNvNtNtCs6aoit5jAd69_15nexus_execution5error5testss_18error_is_send_sync16assert_send_syncNtB6_14ExecutionErrorEB8_
FNDA:0,_RNvMNtCsh7qRzkv9eQQ_15nexus_execution5errorNtB2_14ExecutionError12metric_label
FNDA:60,_RNvNtNtCs6aoit5jAd69_15nexus_execution5error5tests13sample_digest
FNDA:14,_RNvNtNtCs6aoit5jAd69_15nexus_execution5error5testss_18error_is_send_sync
FNDA:10,_RNvNtNtCs6aoit5jAd69_15nexus_execution5error5testss_18result_alias_works
FNDA:10,_RNvNtNtCs6aoit5jAd69_15nexus_execution5error5testss_24error_display_move_abort
FNDA:10,_RNvNtNtCs6aoit5jAd69_15nexus_execution5error5testss_24error_display_out_of_gas
FNDA:10,_RNvNtNtCs6aoit5jAd69_15nexus_execution5error5testss_25error_display_max_retries
FNDA:10,_RNvNtNtCs6aoit5jAd69_15nexus_execution5error5testss_30error_display_includes_context
FNDA:10,_RNvNtNtCs6aoit5jAd69_15nexus_execution5error5testss_30invalid_signature_source_chain
FNDA:10,_RNvNtNtCs6aoit5jAd69_15nexus_execution5error5testss_31error_display_payload_too_large
FNDA:10,_RNvNtNtCs6aoit5jAd69_15nexus_execution5error5testss_33metric_label_covers_every_variant
FNDA:240,_RNvMNtCs6aoit5jAd69_15nexus_execution5errorNtB2_14ExecutionError12metric_label
FNDA:14,_RINvNvNtNtCs6aoit5jAd69_15nexus_execution5error5testss_18error_is_send_sync16assert_send_syncNtB6_14ExecutionErrorEB8_
FNF:12
FNH:12
DA:222,240
DA:223,240
DA:224,10
DA:225,10
DA:226,10
DA:227,10
DA:228,10
DA:229,10
DA:230,10
DA:231,10
DA:232,10
DA:233,10
DA:234,10
DA:235,10
DA:236,10
DA:237,10
DA:238,10
DA:239,10
DA:240,10
DA:241,10
DA:242,10
DA:243,10
DA:244,10
DA:245,10
DA:246,10
DA:247,10
DA:249,240
DA:260,60
DA:261,60
DA:262,60
DA:265,10
DA:266,10
DA:267,10
DA:268,10
DA:269,10
DA:270,10
DA:271,10
DA:272,10
DA:273,10
DA:274,10
DA:277,10
DA:278,10
DA:279,10
DA:280,10
DA:281,10
DA:282,10
DA:283,10
DA:286,10
DA:287,10
DA:288,10
DA:289,10
DA:290,10
DA:291,10
DA:292,10
DA:293,10
DA:294,10
DA:297,10
DA:298,10
DA:299,10
DA:300,10
DA:301,10
DA:302,10
DA:303,10
DA:306,10
DA:307,10
DA:308,10
DA:309,10
DA:310,10
DA:311,10
DA:312,10
DA:313,10
DA:314,10
DA:317,10
DA:318,10
DA:319,10
DA:320,10
DA:321,10
DA:322,10
DA:323,10
DA:324,10
DA:327,10
DA:328,10
DA:331,10
DA:332,10
DA:333,10
DA:335,10
DA:336,10
DA:337,10
DA:340,14
DA:341,14
DA:342,14
DA:343,14
DA:346,10
DA:347,10
DA:348,10
DA:349,10
DA:350,10
DA:351,10
DA:352,10
DA:353,10
DA:354,10
DA:355,10
DA:356,10
DA:357,10
DA:358,10
DA:359,10
DA:360,10
DA:361,10
DA:362,10
DA:363,10
DA:364,10
DA:365,10
DA:366,10
DA:367,10
DA:368,10
DA:369,10
DA:370,10
DA:371,10
DA:372,10
DA:373,10
DA:374,10
DA:375,10
DA:376,10
DA:377,10
DA:378,10
DA:379,10
DA:380,10
DA:381,10
DA:382,10
DA:383,10
DA:384,10
DA:385,10
DA:386,10
DA:387,10
DA:388,10
DA:389,10
DA:390,10
DA:391,10
DA:392,10
DA:393,10
DA:394,10
DA:395,10
DA:396,10
DA:397,10
DA:398,10
DA:399,10
DA:400,10
DA:401,10
DA:402,10
DA:403,10
DA:404,10
DA:405,10
DA:406,10
DA:407,10
DA:408,10
DA:409,10
DA:410,10
DA:411,10
DA:412,10
DA:413,10
DA:414,10
DA:415,10
DA:416,10
DA:417,10
DA:418,10
DA:419,10
DA:420,10
DA:421,10
DA:422,10
DA:423,10
DA:424,10
DA:425,10
DA:426,10
DA:427,10
DA:428,10
DA:429,10
DA:430,10
DA:431,10
DA:432,10
DA:433,10
DA:434,10
DA:435,10
DA:436,10
DA:437,10
DA:438,10
DA:439,10
DA:440,10
DA:441,10
DA:442,10
DA:443,10
DA:444,10
DA:445,10
DA:446,10
DA:447,10
DA:448,10
DA:449,10
DA:450,10
DA:451,10
DA:452,10
DA:453,10
DA:454,10
DA:455,10
DA:456,10
DA:457,10
DA:458,10
DA:459,10
DA:460,10
DA:461,10
DA:462,10
DA:463,10
DA:464,10
DA:465,10
DA:466,10
DA:467,10
DA:468,10
DA:469,10
DA:470,10
DA:471,10
DA:472,10
DA:473,10
DA:474,10
DA:475,10
DA:476,10
DA:477,10
DA:478,10
DA:479,10
DA:480,10
DA:481,10
DA:482,10
DA:483,10
DA:484,10
DA:485,10
DA:486,10
DA:487,10
DA:488,10
DA:489,10
DA:490,10
DA:491,10
DA:493,250
DA:494,240
DA:496,10
BRF:0
BRH:0
LF:241
LH:241
end_of_record
SF:/Users/VD/Vootaa_Projects/vootaa-labs@github/nexus-node/crates/nexus-execution/src/gas_calibration.rs
FN:41,_RNvNtNtCs6aoit5jAd69_15nexus_execution15gas_calibration5tests16default_schedule
FN:46,_RNvNtNtCs6aoit5jAd69_15nexus_execution15gas_calibration5tests18make_state_changes
FN:346,_RNvNtNtCs6aoit5jAd69_15nexus_execution15gas_calibration5testss_16timeout_adequacy
FN:86,_RNvNtNtCs6aoit5jAd69_15nexus_execution15gas_calibration5testss_22calibrate_counter_call
FN:144,_RNvNtNtCs6aoit5jAd69_15nexus_execution15gas_calibration5testss_23calibrate_token_publish
FN:129,_RNvNtNtCs6aoit5jAd69_15nexus_execution15gas_calibration5testss_24calibrate_token_transfer
FN:98,_RNvNtNtCs6aoit5jAd69_15nexus_execution15gas_calibration5testss_25calibrate_counter_publish
FN:206,_RNvNtNtCs6aoit5jAd69_15nexus_execution15gas_calibration5testss_25calibrate_multisig_submit
FN:286,_RNvNtNtCs6aoit5jAd69_15nexus_execution15gas_calibration5testss_25calibrate_worst_case_call
FN:175,_RNvNtNtCs6aoit5jAd69_15nexus_execution15gas_calibration5testss_26calibrate_voting_cast_vote
FN:367,_RNvNtNtCs6aoit5jAd69_15nexus_execution15gas_calibration5testss_26calibration_report_summary
FN:234,_RNvNtNtCs6aoit5jAd69_15nexus_execution15gas_calibration5testss_27calibrate_registry_register
FN:305,_RNvNtNtCs6aoit5jAd69_15nexus_execution15gas_calibration5testss_28budget_adequacy_10x_headroom
FN:68,_RNvNtNtCs6aoit5jAd69_15nexus_execution15gas_calibration5testss_28calibrate_counter_view_query
FN:116,_RNvNtNtCs6aoit5jAd69_15nexus_execution15gas_calibration5testss_28calibrate_token_balance_view
FN:267,_RNvNtNtCs6aoit5jAd69_15nexus_execution15gas_calibration5testss_28calibrate_worst_case_publish
FN:162,_RNvNtNtCs6aoit5jAd69_15nexus_execution15gas_calibration5testss_29calibrate_voting_results_view
FN:220,_RNvNtNtCs6aoit5jAd69_15nexus_execution15gas_calibration5testss_30calibrate_registry_lookup_view
FN:193,_RNvNtNtCs6aoit5jAd69_15nexus_execution15gas_calibration5testss_31calibrate_multisig_pending_view
FN:248,_RNvNtNtCs6aoit5jAd69_15nexus_execution15gas_calibration5testss_31calibrate_worst_case_view_query
FN:52,_RNCNvNtNtCs6aoit5jAd69_15nexus_execution15gas_calibration5tests18make_state_changes0B7_
FN:288,_RNCNvNtNtCs6aoit5jAd69_15nexus_execution15gas_calibration5testss_25calibrate_worst_case_call0B7_
FN:289,_RNCNvNtNtCs6aoit5jAd69_15nexus_execution15gas_calibration5testss_25calibrate_worst_case_calls_0B7_
FN:327,_RNCNvNtNtCs6aoit5jAd69_15nexus_execution15gas_calibration5testss_28budget_adequacy_10x_headroom0B7_
FN:328,_RNCNvNtNtCs6aoit5jAd69_15nexus_execution15gas_calibration5testss_28budget_adequacy_10x_headrooms_0B7_
FNDA:238,_RNvNtNtCs6aoit5jAd69_15nexus_execution15gas_calibration5tests16default_schedule
FNDA:196,_RNvNtNtCs6aoit5jAd69_15nexus_execution15gas_calibration5tests18make_state_changes
FNDA:14,_RNvNtNtCs6aoit5jAd69_15nexus_execution15gas_calibration5testss_16timeout_adequacy
FNDA:14,_RNvNtNtCs6aoit5jAd69_15nexus_execution15gas_calibration5testss_22calibrate_counter_call
FNDA:14,_RNvNtNtCs6aoit5jAd69_15nexus_execution15gas_calibration5testss_23calibrate_token_publish
FNDA:14,_RNvNtNtCs6aoit5jAd69_15nexus_execution15gas_calibration5testss_24calibrate_token_transfer
FNDA:14,_RNvNtNtCs6aoit5jAd69_15nexus_execution15gas_calibration5testss_25calibrate_counter_publish
FNDA:14,_RNvNtNtCs6aoit5jAd69_15nexus_execution15gas_calibration5testss_25calibrate_multisig_submit
FNDA:14,_RNvNtNtCs6aoit5jAd69_15nexus_execution15gas_calibration5testss_25calibrate_worst_case_call
FNDA:14,_RNvNtNtCs6aoit5jAd69_15nexus_execution15gas_calibration5testss_26calibrate_voting_cast_vote
FNDA:14,_RNvNtNtCs6aoit5jAd69_15nexus_execution15gas_calibration5testss_26calibration_report_summary
FNDA:14,_RNvNtNtCs6aoit5jAd69_15nexus_execution15gas_calibration5testss_27calibrate_registry_register
FNDA:14,_RNvNtNtCs6aoit5jAd69_15nexus_execution15gas_calibration5testss_28budget_adequacy_10x_headroom
FNDA:14,_RNvNtNtCs6aoit5jAd69_15nexus_execution15gas_calibration5testss_28calibrate_counter_view_query
FNDA:14,_RNvNtNtCs6aoit5jAd69_15nexus_execution15gas_calibration5testss_28calibrate_token_balance_view
FNDA:14,_RNvNtNtCs6aoit5jAd69_15nexus_execution15gas_calibration5testss_28calibrate_worst_case_publish
FNDA:14,_RNvNtNtCs6aoit5jAd69_15nexus_execution15gas_calibration5testss_29calibrate_voting_results_view
FNDA:14,_RNvNtNtCs6aoit5jAd69_15nexus_execution15gas_calibration5testss_30calibrate_registry_lookup_view
FNDA:14,_RNvNtNtCs6aoit5jAd69_15nexus_execution15gas_calibration5testss_31calibrate_multisig_pending_view
FNDA:14,_RNvNtNtCs6aoit5jAd69_15nexus_execution15gas_calibration5testss_31calibrate_worst_case_view_query
FNDA:1792,_RNCNvNtNtCs6aoit5jAd69_15nexus_execution15gas_calibration5tests18make_state_changes0B7_
FNDA:56,_RNCNvNtNtCs6aoit5jAd69_15nexus_execution15gas_calibration5testss_25calibrate_worst_case_call0B7_
FNDA:112,_RNCNvNtNtCs6aoit5jAd69_15nexus_execution15gas_calibration5testss_25calibrate_worst_case_calls_0B7_
FNDA:56,_RNCNvNtNtCs6aoit5jAd69_15nexus_execution15gas_calibration5testss_28budget_adequacy_10x_headroom0B7_
FNDA:112,_RNCNvNtNtCs6aoit5jAd69_15nexus_execution15gas_calibration5testss_28budget_adequacy_10x_headrooms_0B7_
FNF:25
FNH:25
DA:41,238
DA:42,238
DA:43,238
DA:46,196
DA:47,196
DA:48,196
DA:49,196
DA:50,196
DA:51,196
DA:52,1792
DA:53,1792
DA:54,1792
DA:55,1792
DA:56,1792
DA:57,1792
DA:58,1792
DA:59,1792
DA:60,196
DA:61,196
DA:68,14
DA:69,14
DA:70,14
DA:71,14
DA:72,14
DA:73,14
DA:74,14
DA:75,14
DA:76,14
DA:79,14
DA:80,14
DA:81,14
DA:86,14
DA:87,14
DA:88,14
DA:89,14
DA:90,14
DA:91,14
DA:92,14
DA:93,14
DA:94,14
DA:98,14
DA:99,14
DA:100,14
DA:101,14
DA:102,14
DA:103,14
DA:104,14
DA:105,14
DA:106,14
DA:107,0
DA:109,14
DA:116,14
DA:117,14
DA:118,14
DA:119,14
DA:120,14
DA:121,14
DA:122,14
DA:123,14
DA:124,14
DA:129,14
DA:130,14
DA:131,14
DA:132,14
DA:133,14
DA:134,14
DA:135,14
DA:136,14
DA:137,14
DA:138,0
DA:140,14
DA:144,14
DA:145,14
DA:146,14
DA:147,14
DA:148,14
DA:149,14
DA:150,14
DA:151,14
DA:152,14
DA:153,0
DA:155,14
DA:162,14
DA:163,14
DA:164,14
DA:165,14
DA:166,14
DA:167,14
DA:168,14
DA:169,14
DA:170,14
DA:175,14
DA:176,14
DA:177,14
DA:178,14
DA:179,14
DA:180,14
DA:181,14
DA:182,14
DA:183,14
DA:184,0
DA:186,14
DA:193,14
DA:194,14
DA:195,14
DA:196,14
DA:197,14
DA:198,14
DA:199,14
DA:200,14
DA:201,14
DA:206,14
DA:207,14
DA:208,14
DA:209,14
DA:210,14
DA:211,14
DA:212,14
DA:213,14
DA:214,14
DA:220,14
DA:221,14
DA:222,14
DA:223,14
DA:224,14
DA:225,14
DA:226,14
DA:227,14
DA:228,14
DA:229,14
DA:234,14
DA:235,14
DA:236,14
DA:237,14
DA:238,14
DA:239,14
DA:240,14
DA:241,14
DA:242,14
DA:248,14
DA:249,14
DA:250,14
DA:251,14
DA:252,14
DA:253,14
DA:254,14
DA:255,14
DA:256,14
DA:257,0
DA:259,14
DA:260,14
DA:261,0
DA:263,14
DA:267,14
DA:268,14
DA:269,14
DA:270,14
DA:271,14
DA:272,14
DA:273,14
DA:274,14
DA:275,14
DA:276,0
DA:278,14
DA:279,14
DA:280,0
DA:282,14
DA:286,14
DA:287,14
DA:288,56
DA:289,112
DA:290,14
DA:291,14
DA:292,14
DA:293,14
DA:294,14
DA:295,14
DA:296,0
DA:298,14
DA:305,14
DA:306,14
DA:307,14
DA:308,14
DA:309,14
DA:310,14
DA:311,14
DA:312,0
DA:316,14
DA:317,14
DA:318,14
DA:319,14
DA:320,14
DA:321,14
DA:322,14
DA:323,0
DA:327,56
DA:328,112
DA:329,14
DA:330,14
DA:331,14
DA:332,14
DA:333,14
DA:334,14
DA:335,14
DA:336,14
DA:337,0
DA:339,14
DA:346,14
DA:347,14
DA:348,14
DA:349,14
DA:350,14
DA:351,14
DA:352,14
DA:353,14
DA:354,0
DA:356,14
DA:357,14
DA:358,0
DA:360,14
DA:367,14
DA:368,14
DA:369,14
DA:370,14
DA:371,14
DA:372,14
DA:373,14
DA:374,14
DA:375,14
DA:376,14
DA:377,14
DA:378,14
DA:379,14
DA:380,14
DA:381,14
DA:382,14
DA:383,14
DA:384,14
DA:385,14
DA:386,14
DA:387,14
DA:388,14
DA:389,14
DA:390,14
DA:391,14
DA:392,14
DA:393,14
DA:394,14
DA:395,14
DA:396,14
DA:397,14
DA:398,14
DA:399,14
DA:400,14
DA:401,14
DA:402,14
DA:403,14
DA:404,14
DA:405,14
DA:406,14
DA:407,14
DA:408,14
DA:409,14
DA:410,14
DA:411,14
DA:412,14
DA:413,14
DA:414,14
DA:415,14
DA:416,14
DA:417,14
DA:418,14
DA:419,14
DA:420,14
DA:421,14
DA:422,14
DA:423,14
DA:424,14
DA:425,14
DA:426,14
DA:427,14
DA:428,14
DA:429,14
DA:430,14
DA:433,140
DA:434,126
DA:435,126
DA:436,126
DA:437,0
DA:440,126
DA:442,14
BRF:0
BRH:0
LF:297
LH:282
end_of_record
SF:/Users/VD/Vootaa_Projects/vootaa-labs@github/nexus-node/crates/nexus-execution/src/lib.rs
FN:128,_RNvMNtCs6aoit5jAd69_15nexus_execution5testsNtB2_9TestState13apply_changes
FN:115,_RNvMNtCs6aoit5jAd69_15nexus_execution5testsNtB2_9TestState3new
FN:121,_RNvMNtCs6aoit5jAd69_15nexus_execution5testsNtB2_9TestState3set
FN:152,_RNvNtCs6aoit5jAd69_15nexus_execution5tests16deployer_address
FN:190,_RNvNtCs6aoit5jAd69_15nexus_execution5tests18counter_query_args
FN:159,_RNvNtCs6aoit5jAd69_15nexus_execution5tests21prepare_counter_state
FN:207,_RNvNtCs6aoit5jAd69_15nexus_execution5testss_37query_view_with_budget_enforces_limit
FN:195,_RNvNtCs6aoit5jAd69_15nexus_execution5testss_46query_view_returns_value_with_unbounded_budget
FN:138,_RNvXs_NtCs6aoit5jAd69_15nexus_execution5testsNtB4_9TestStateNtNtB6_6traits9StateView3get
FN:49,_RNvCs6aoit5jAd69_15nexus_execution10query_view
FN:65,_RNvCs6aoit5jAd69_15nexus_execution22query_view_with_budget
FN:49,_RNvCsh7qRzkv9eQQ_15nexus_execution10query_view
FN:65,_RNvCsh7qRzkv9eQQ_15nexus_execution22query_view_with_budget
FNDA:40,_RNvMNtCs6aoit5jAd69_15nexus_execution5testsNtB2_9TestState13apply_changes
FNDA:20,_RNvMNtCs6aoit5jAd69_15nexus_execution5testsNtB2_9TestState3new
FNDA:60,_RNvMNtCs6aoit5jAd69_15nexus_execution5testsNtB2_9TestState3set
FNDA:20,_RNvNtCs6aoit5jAd69_15nexus_execution5tests16deployer_address
FNDA:20,_RNvNtCs6aoit5jAd69_15nexus_execution5tests18counter_query_args
FNDA:20,_RNvNtCs6aoit5jAd69_15nexus_execution5tests21prepare_counter_state
FNDA:10,_RNvNtCs6aoit5jAd69_15nexus_execution5testss_37query_view_with_budget_enforces_limit
FNDA:10,_RNvNtCs6aoit5jAd69_15nexus_execution5testss_46query_view_returns_value_with_unbounded_budget
FNDA:100,_RNvXs_NtCs6aoit5jAd69_15nexus_execution5testsNtB4_9TestStateNtNtB6_6traits9StateView3get
FNDA:20,_RNvCs6aoit5jAd69_15nexus_execution10query_view
FNDA:30,_RNvCs6aoit5jAd69_15nexus_execution22query_view_with_budget
FNDA:0,_RNvCsh7qRzkv9eQQ_15nexus_execution10query_view
FNDA:0,_RNvCsh7qRzkv9eQQ_15nexus_execution22query_view_with_budget
FNF:11
FNH:11
DA:49,20
DA:50,20
DA:51,20
DA:52,20
DA:53,20
DA:54,20
DA:55,20
DA:56,20
DA:57,20
DA:65,30
DA:66,30
DA:67,30
DA:68,30
DA:69,30
DA:70,30
DA:71,30
DA:72,30
DA:73,30
DA:74,30
DA:75,30
DA:77,30
DA:78,10
DA:79,10
DA:80,10
DA:81,10
DA:82,20
DA:84,20
DA:85,0
DA:87,20
DA:89,20
DA:90,20
DA:91,20
DA:92,20
DA:93,20
DA:94,30
DA:115,20
DA:116,20
DA:117,20
DA:118,20
DA:119,20
DA:121,60
DA:122,60
DA:123,60
DA:124,60
DA:125,60
DA:126,60
DA:128,40
DA:129,100
DA:130,60
DA:131,60
DA:132,60
DA:134,40
DA:138,100
DA:139,100
DA:140,100
DA:141,100
DA:142,100
DA:143,100
DA:144,100
DA:145,100
DA:146,100
DA:147,100
DA:148,100
DA:149,100
DA:152,20
DA:153,20
DA:154,20
DA:155,20
DA:156,20
DA:157,20
DA:159,20
DA:160,20
DA:161,20
DA:162,20
DA:163,20
DA:164,20
DA:165,20
DA:166,20
DA:167,20
DA:168,20
DA:169,20
DA:170,20
DA:171,20
DA:172,20
DA:173,20
DA:174,20
DA:175,20
DA:176,20
DA:177,20
DA:178,20
DA:179,20
DA:180,20
DA:181,20
DA:182,20
DA:183,20
DA:184,20
DA:185,20
DA:186,20
DA:187,20
DA:188,20
DA:190,20
DA:191,20
DA:192,20
DA:195,10
DA:196,10
DA:197,10
DA:198,10
DA:199,10
DA:200,10
DA:201,10
DA:202,10
DA:203,10
DA:204,10
DA:207,10
DA:208,10
DA:209,10
DA:210,10
DA:211,10
DA:213,10
DA:214,10
DA:215,10
DA:216,10
DA:217,10
DA:218,10
DA:219,10
DA:220,10
DA:221,10
DA:222,10
DA:223,10
DA:224,10
DA:225,10
DA:226,10
DA:228,0
DA:230,10
BRF:0
BRH:0
LF:134
LH:132
end_of_record
SF:/Users/VD/Vootaa_Projects/vootaa-labs@github/nexus-node/crates/nexus-execution/src/metrics.rs
FN:45,_RNvMNtCsh7qRzkv9eQQ_15nexus_execution7metricsNtB2_16ExecutionMetrics12record_batch
FN:65,_RNvMNtCsh7qRzkv9eQQ_15nexus_execution7metricsNtB2_16ExecutionMetrics12record_error
FN:88,_RNvMNtCsh7qRzkv9eQQ_15nexus_execution7metricsNtB2_16ExecutionMetrics15set_queue_depth
FN:57,_RNvMNtCsh7qRzkv9eQQ_15nexus_execution7metricsNtB2_16ExecutionMetrics16record_conflicts
FN:82,_RNvMNtCsh7qRzkv9eQQ_15nexus_execution7metricsNtB2_16ExecutionMetrics17dec_active_blocks
FN:76,_RNvMNtCsh7qRzkv9eQQ_15nexus_execution7metricsNtB2_16ExecutionMetrics17inc_active_blocks
FN:36,_RNvMNtCsh7qRzkv9eQQ_15nexus_execution7metricsNtB2_16ExecutionMetrics3new
FN:45,_RNvMNtCs6aoit5jAd69_15nexus_execution7metricsNtB2_16ExecutionMetrics12record_batch
FN:65,_RNvMNtCs6aoit5jAd69_15nexus_execution7metricsNtB2_16ExecutionMetrics12record_error
FN:88,_RNvMNtCs6aoit5jAd69_15nexus_execution7metricsNtB2_16ExecutionMetrics15set_queue_depth
FN:57,_RNvMNtCs6aoit5jAd69_15nexus_execution7metricsNtB2_16ExecutionMetrics16record_conflicts
FN:82,_RNvMNtCs6aoit5jAd69_15nexus_execution7metricsNtB2_16ExecutionMetrics17dec_active_blocks
FN:76,_RNvMNtCs6aoit5jAd69_15nexus_execution7metricsNtB2_16ExecutionMetrics17inc_active_blocks
FN:36,_RNvMNtCs6aoit5jAd69_15nexus_execution7metricsNtB2_16ExecutionMetrics3new
FN:105,_RNvNtNtCs6aoit5jAd69_15nexus_execution7metrics5testss_23metrics_handle_is_clone
FN:99,_RNvNtNtCs6aoit5jAd69_15nexus_execution7metrics5testss_27metrics_handle_is_send_sync
FN:111,_RNvNtNtCs6aoit5jAd69_15nexus_execution7metrics5testss_44record_batch_does_not_panic_without_recorder
FN:100,_RINvNvNtNtCs6aoit5jAd69_15nexus_execution7metrics5testss_27metrics_handle_is_send_sync16assert_send_syncNtB6_16ExecutionMetricsEB8_
FNDA:6153,_RNvMNtCsh7qRzkv9eQQ_15nexus_execution7metricsNtB2_16ExecutionMetrics12record_batch
FNDA:14,_RNvMNtCsh7qRzkv9eQQ_15nexus_execution7metricsNtB2_16ExecutionMetrics12record_error
FNDA:14,_RNvMNtCsh7qRzkv9eQQ_15nexus_execution7metricsNtB2_16ExecutionMetrics15set_queue_depth
FNDA:6153,_RNvMNtCsh7qRzkv9eQQ_15nexus_execution7metricsNtB2_16ExecutionMetrics16record_conflicts
FNDA:305,_RNvMNtCsh7qRzkv9eQQ_15nexus_execution7metricsNtB2_16ExecutionMetrics17dec_active_blocks
FNDA:306,_RNvMNtCsh7qRzkv9eQQ_15nexus_execution7metricsNtB2_16ExecutionMetrics17inc_active_blocks
FNDA:7332,_RNvMNtCsh7qRzkv9eQQ_15nexus_execution7metricsNtB2_16ExecutionMetrics3new
FNDA:989,_RNvMNtCs6aoit5jAd69_15nexus_execution7metricsNtB2_16ExecutionMetrics12record_batch
FNDA:14,_RNvMNtCs6aoit5jAd69_15nexus_execution7metricsNtB2_16ExecutionMetrics12record_error
FNDA:14,_RNvMNtCs6aoit5jAd69_15nexus_execution7metricsNtB2_16ExecutionMetrics15set_queue_depth
FNDA:989,_RNvMNtCs6aoit5jAd69_15nexus_execution7metricsNtB2_16ExecutionMetrics16record_conflicts
FNDA:112,_RNvMNtCs6aoit5jAd69_15nexus_execution7metricsNtB2_16ExecutionMetrics17dec_active_blocks
FNDA:112,_RNvMNtCs6aoit5jAd69_15nexus_execution7metricsNtB2_16ExecutionMetrics17inc_active_blocks
FNDA:1260,_RNvMNtCs6aoit5jAd69_15nexus_execution7metricsNtB2_16ExecutionMetrics3new
FNDA:14,_RNvNtNtCs6aoit5jAd69_15nexus_execution7metrics5testss_23metrics_handle_is_clone
FNDA:14,_RNvNtNtCs6aoit5jAd69_15nexus_execution7metrics5testss_27metrics_handle_is_send_sync
FNDA:14,_RNvNtNtCs6aoit5jAd69_15nexus_execution7metrics5testss_44record_batch_does_not_panic_without_recorder
FNDA:14,_RINvNvNtNtCs6aoit5jAd69_15nexus_execution7metrics5testss_27metrics_handle_is_send_sync16assert_send_syncNtB6_16ExecutionMetricsEB8_
FNF:11
FNH:11
DA:36,8592
DA:37,8592
DA:38,8592
DA:39,8592
DA:40,8592
DA:45,7142
DA:46,7142
DA:47,7142
DA:48,7142
DA:49,7142
DA:50,7142
DA:51,7142
DA:52,7142
DA:53,7142
DA:54,7142
DA:57,7142
DA:58,7142
DA:59,7142
DA:60,7142
DA:61,7142
DA:62,7142
DA:65,28
DA:66,28
DA:67,28
DA:68,28
DA:69,28
DA:70,28
DA:71,28
DA:76,418
DA:77,418
DA:78,418
DA:79,418
DA:82,417
DA:83,417
DA:84,417
DA:85,417
DA:88,28
DA:89,28
DA:90,28
DA:91,28
DA:99,14
DA:100,14
DA:101,14
DA:102,14
DA:105,14
DA:106,14
DA:107,14
DA:108,14
DA:111,14
DA:112,14
DA:113,14
DA:114,14
DA:115,14
DA:116,14
DA:117,14
DA:118,14
DA:119,14
DA:120,14
BRF:0
BRH:0
LF:58
LH:58
end_of_record
SF:/Users/VD/Vootaa_Projects/vootaa-labs@github/nexus-node/crates/nexus-execution/src/move_adapter/abi.rs
FN:54,_RNvNtNtCsh7qRzkv9eQQ_15nexus_execution12move_adapter3abi10decode_abi
FN:59,_RNvNtNtCsh7qRzkv9eQQ_15nexus_execution12move_adapter3abi10encode_abi
FN:54,_RNvNtNtCs6aoit5jAd69_15nexus_execution12move_adapter3abi10decode_abi
FN:59,_RNvNtNtCs6aoit5jAd69_15nexus_execution12move_adapter3abi10encode_abi
FN:68,_RNvNtNtNtCs6aoit5jAd69_15nexus_execution12move_adapter3abi5testss_14abi_round_trip
FN:96,_RNvNtNtNtCs6aoit5jAd69_15nexus_execution12move_adapter3abi5testss_19abi_empty_functions
FNDA:17,_RNvNtNtCsh7qRzkv9eQQ_15nexus_execution12move_adapter3abi10decode_abi
FNDA:0,_RNvNtNtCsh7qRzkv9eQQ_15nexus_execution12move_adapter3abi10encode_abi
FNDA:154,_RNvNtNtCs6aoit5jAd69_15nexus_execution12move_adapter3abi10decode_abi
FNDA:161,_RNvNtNtCs6aoit5jAd69_15nexus_execution12move_adapter3abi10encode_abi
FNDA:14,_RNvNtNtNtCs6aoit5jAd69_15nexus_execution12move_adapter3abi5testss_14abi_round_trip
FNDA:14,_RNvNtNtNtCs6aoit5jAd69_15nexus_execution12move_adapter3abi5testss_19abi_empty_functions
FNF:4
FNH:4
DA:54,171
DA:55,171
DA:56,171
DA:59,161
DA:60,161
DA:61,161
DA:68,14
DA:69,14
DA:70,14
DA:71,14
DA:72,14
DA:73,14
DA:74,14
DA:75,14
DA:76,14
DA:77,14
DA:78,14
DA:79,14
DA:80,14
DA:81,14
DA:82,14
DA:83,14
DA:84,14
DA:85,14
DA:86,14
DA:87,14
DA:88,14
DA:89,14
DA:90,14
DA:91,14
DA:92,14
DA:93,14
DA:96,14
DA:97,14
DA:98,14
DA:99,14
DA:100,14
DA:101,14
BRF:0
BRH:0
LF:38
LH:38
end_of_record
SF:/Users/VD/Vootaa_Projects/vootaa-labs@github/nexus-node/crates/nexus-execution/src/move_adapter/builtin_vm.rs
FN:42,_RNvMNtNtCsh7qRzkv9eQQ_15nexus_execution12move_adapter10builtin_vmNtB2_9BuiltinVm3new
FN:42,_RNvMNtNtCs6aoit5jAd69_15nexus_execution12move_adapter10builtin_vmNtB2_9BuiltinVm3new
FN:128,_RNvXs_NtNtCs6aoit5jAd69_15nexus_execution12move_adapter10builtin_vmNtB4_9BuiltinVmNtB6_6MoveVm14execute_script
FN:102,_RNvXs_NtNtCs6aoit5jAd69_15nexus_execution12move_adapter10builtin_vmNtB4_9BuiltinVmNtB6_6MoveVm15publish_modules
FN:51,_RNvXs_NtNtCs6aoit5jAd69_15nexus_execution12move_adapter10builtin_vmNtB4_9BuiltinVmNtB6_6MoveVm16execute_function
FN:78,_RNCNvXs_NtNtCs6aoit5jAd69_15nexus_execution12move_adapter10builtin_vmNtB6_9BuiltinVmNtB8_6MoveVm16execute_function0Ba_
FN:162,_RNvMNtNtNtCs6aoit5jAd69_15nexus_execution12move_adapter10builtin_vm5testsNtB2_8MemState3new
FN:168,_RNvMNtNtNtCs6aoit5jAd69_15nexus_execution12move_adapter10builtin_vm5testsNtB2_8MemState3set
FN:179,_RNvNtNtNtCs6aoit5jAd69_15nexus_execution12move_adapter10builtin_vm5tests4addr
FN:183,_RNvNtNtNtCs6aoit5jAd69_15nexus_execution12move_adapter10builtin_vm5tests7make_vm
FN:188,_RNvNtNtNtCs6aoit5jAd69_15nexus_execution12move_adapter10builtin_vm5testss_15call_out_of_gas
FN:227,_RNvNtNtNtCs6aoit5jAd69_15nexus_execution12move_adapter10builtin_vm5testss_15publish_success
FN:261,_RNvNtNtNtCs6aoit5jAd69_15nexus_execution12move_adapter10builtin_vm5testss_18publish_out_of_gas
FN:199,_RNvNtNtNtCs6aoit5jAd69_15nexus_execution12move_adapter10builtin_vm5testss_23call_contract_not_found
FN:271,_RNvNtNtNtCs6aoit5jAd69_15nexus_execution12move_adapter10builtin_vm5testss_24publish_binary_too_large
FN:323,_RNvNtNtNtCs6aoit5jAd69_15nexus_execution12move_adapter10builtin_vm5testss_29publish_gas_includes_per_byte
FN:310,_RNvNtNtNtCs6aoit5jAd69_15nexus_execution12move_adapter10builtin_vm5testss_30publish_empty_modules_rejected
FN:214,_RNvNtNtNtCs6aoit5jAd69_15nexus_execution12move_adapter10builtin_vm5testss_33call_success_when_contract_exists
FN:343,_RNvNtNtNtCs6aoit5jAd69_15nexus_execution12move_adapter10builtin_vm5testss_33publish_duplicate_module_rejected
FN:293,_RNvNtNtNtCs6aoit5jAd69_15nexus_execution12move_adapter10builtin_vm5testss_33publish_invalid_bytecode_rejected
FN:174,_RNvXs_NtNtNtCs6aoit5jAd69_15nexus_execution12move_adapter10builtin_vm5testsNtB4_8MemStateNtNtBa_6traits9StateView3get
FN:240,_RNCNvNtNtNtCs6aoit5jAd69_15nexus_execution12move_adapter10builtin_vm5testss_15publish_success0B9_
FNDA:0,_RNvMNtNtCsh7qRzkv9eQQ_15nexus_execution12move_adapter10builtin_vmNtB2_9BuiltinVm3new
FNDA:171,_RNvMNtNtCs6aoit5jAd69_15nexus_execution12move_adapter10builtin_vmNtB2_9BuiltinVm3new
FNDA:0,_RNvXs_NtNtCs6aoit5jAd69_15nexus_execution12move_adapter10builtin_vmNtB4_9BuiltinVmNtB6_6MoveVm14execute_script
FNDA:98,_RNvXs_NtNtCs6aoit5jAd69_15nexus_execution12move_adapter10builtin_vmNtB4_9BuiltinVmNtB6_6MoveVm15publish_modules
FNDA:42,_RNvXs_NtNtCs6aoit5jAd69_15nexus_execution12move_adapter10builtin_vmNtB4_9BuiltinVmNtB6_6MoveVm16execute_function
FNDA:56,_RNCNvXs_NtNtCs6aoit5jAd69_15nexus_execution12move_adapter10builtin_vmNtB6_9BuiltinVmNtB8_6MoveVm16execute_function0Ba_
FNDA:140,_RNvMNtNtNtCs6aoit5jAd69_15nexus_execution12move_adapter10builtin_vm5testsNtB2_8MemState3new
FNDA:14,_RNvMNtNtNtCs6aoit5jAd69_15nexus_execution12move_adapter10builtin_vm5testsNtB2_8MemState3set
FNDA:210,_RNvNtNtNtCs6aoit5jAd69_15nexus_execution12move_adapter10builtin_vm5tests4addr
FNDA:112,_RNvNtNtNtCs6aoit5jAd69_15nexus_execution12move_adapter10builtin_vm5tests7make_vm
FNDA:14,_RNvNtNtNtCs6aoit5jAd69_15nexus_execution12move_adapter10builtin_vm5testss_15call_out_of_gas
FNDA:14,_RNvNtNtNtCs6aoit5jAd69_15nexus_execution12move_adapter10builtin_vm5testss_15publish_success
FNDA:14,_RNvNtNtNtCs6aoit5jAd69_15nexus_execution12move_adapter10builtin_vm5testss_18publish_out_of_gas
FNDA:14,_RNvNtNtNtCs6aoit5jAd69_15nexus_execution12move_adapter10builtin_vm5testss_23call_contract_not_found
FNDA:14,_RNvNtNtNtCs6aoit5jAd69_15nexus_execution12move_adapter10builtin_vm5testss_24publish_binary_too_large
FNDA:14,_RNvNtNtNtCs6aoit5jAd69_15nexus_execution12move_adapter10builtin_vm5testss_29publish_gas_includes_per_byte
FNDA:14,_RNvNtNtNtCs6aoit5jAd69_15nexus_execution12move_adapter10builtin_vm5testss_30publish_empty_modules_rejected
FNDA:14,_RNvNtNtNtCs6aoit5jAd69_15nexus_execution12move_adapter10builtin_vm5testss_33call_success_when_contract_exists
FNDA:14,_RNvNtNtNtCs6aoit5jAd69_15nexus_execution12move_adapter10builtin_vm5testss_33publish_duplicate_module_rejected
FNDA:14,_RNvNtNtNtCs6aoit5jAd69_15nexus_execution12move_adapter10builtin_vm5testss_33publish_invalid_bytecode_rejected
FNDA:70,_RNvXs_NtNtNtCs6aoit5jAd69_15nexus_execution12move_adapter10builtin_vm5testsNtB4_8MemStateNtNtBa_6traits9StateView3get
FNDA:14,_RNCNvNtNtNtCs6aoit5jAd69_15nexus_execution12move_adapter10builtin_vm5testss_15publish_success0B9_
FNF:21
FNH:20
DA:42,171
DA:43,171
DA:44,171
DA:45,171
DA:46,171
DA:47,171
DA:51,42
DA:52,42
DA:53,42
DA:54,42
DA:55,42
DA:56,42
DA:57,42
DA:58,42
DA:59,42
DA:60,42
DA:61,42
DA:62,42
DA:63,42
DA:64,42
DA:65,42
DA:66,14
DA:67,14
DA:68,14
DA:69,14
DA:70,14
DA:71,14
DA:72,28
DA:75,28
DA:76,28
DA:78,56
DA:79,56
DA:80,56
DA:81,56
DA:82,14
DA:83,14
DA:84,14
DA:85,14
DA:86,14
DA:87,14
DA:88,14
DA:89,14
DA:90,14
DA:91,14
DA:92,14
DA:93,14
DA:94,14
DA:95,14
DA:96,14
DA:97,14
DA:98,14
DA:99,14
DA:100,42
DA:102,98
DA:103,98
DA:104,98
DA:105,98
DA:106,98
DA:107,98
DA:108,98
DA:110,98
DA:111,56
DA:112,56
DA:113,56
DA:114,56
DA:115,56
DA:116,56
DA:117,56
DA:118,56
DA:119,56
DA:120,42
DA:121,42
DA:122,42
DA:123,42
DA:124,42
DA:125,42
DA:126,98
DA:128,0
DA:129,0
DA:130,0
DA:131,0
DA:132,0
DA:133,0
DA:134,0
DA:135,0
DA:136,0
DA:137,0
DA:138,0
DA:139,0
DA:140,0
DA:141,0
DA:142,0
DA:143,0
DA:144,0
DA:145,0
DA:146,0
DA:162,140
DA:163,140
DA:164,140
DA:165,140
DA:166,140
DA:168,14
DA:169,14
DA:170,14
DA:174,70
DA:175,70
DA:176,70
DA:179,210
DA:180,210
DA:181,210
DA:183,112
DA:184,112
DA:185,112
DA:188,14
DA:189,14
DA:190,14
DA:191,14
DA:192,14
DA:193,14
DA:194,14
DA:195,14
DA:196,14
DA:199,14
DA:200,14
DA:201,14
DA:202,14
DA:203,14
DA:204,14
DA:205,14
DA:206,14
DA:207,14
DA:208,0
DA:211,14
DA:214,14
DA:215,14
DA:216,14
DA:217,14
DA:218,14
DA:219,14
DA:220,14
DA:221,14
DA:222,14
DA:223,14
DA:224,14
DA:227,14
DA:228,14
DA:229,14
DA:230,14
DA:231,14
DA:232,14
DA:233,14
DA:234,14
DA:235,14
DA:236,14
DA:237,14
DA:240,14
DA:241,14
DA:242,14
DA:243,14
DA:244,14
DA:245,14
DA:246,14
DA:247,14
DA:248,14
DA:249,14
DA:250,0
DA:254,14
DA:255,14
DA:256,14
DA:257,14
DA:258,14
DA:261,14
DA:262,14
DA:263,14
DA:264,14
DA:265,14
DA:266,14
DA:267,14
DA:268,14
DA:271,14
DA:272,14
DA:273,14
DA:274,14
DA:275,14
DA:276,14
DA:277,14
DA:278,14
DA:279,14
DA:280,14
DA:281,14
DA:282,14
DA:283,14
DA:284,14
DA:285,14
DA:286,14
DA:287,0
DA:290,14
DA:293,14
DA:294,14
DA:295,14
DA:296,14
DA:297,14
DA:298,14
DA:299,14
DA:300,14
DA:301,14
DA:302,14
DA:303,14
DA:304,0
DA:307,14
DA:310,14
DA:311,14
DA:312,14
DA:313,14
DA:314,14
DA:315,14
DA:316,14
DA:317,0
DA:320,14
DA:323,14
DA:324,14
DA:325,14
DA:326,14
DA:327,14
DA:328,14
DA:329,14
DA:330,14
DA:331,14
DA:332,14
DA:333,14
DA:334,14
DA:335,14
DA:336,14
DA:337,14
DA:339,14
DA:340,14
DA:343,14
DA:344,14
DA:345,14
DA:346,14
DA:347,14
DA:348,14
DA:349,14
DA:350,14
DA:351,14
DA:352,14
DA:353,0
DA:356,14
BRF:0
BRH:0
LF:251
LH:226
end_of_record
SF:/Users/VD/Vootaa_Projects/vootaa-labs@github/nexus-node/crates/nexus-execution/src/move_adapter/entry_function.rs
FN:45,_RNvNtNtCsh7qRzkv9eQQ_15nexus_execution12move_adapter14entry_function13validate_args
FN:114,_RNvNtNtCsh7qRzkv9eQQ_15nexus_execution12move_adapter14entry_function14decode_u64_arg
FN:120,_RNvNtNtCsh7qRzkv9eQQ_15nexus_execution12move_adapter14entry_function14encode_u64_arg
FN:68,_RNvNtNtCsh7qRzkv9eQQ_15nexus_execution12move_adapter14entry_function21validate_arg_encoding
FN:115,_RNCNvNtNtCsh7qRzkv9eQQ_15nexus_execution12move_adapter14entry_function14decode_u64_arg0B7_
FN:137,_RNvNtNtNtCs6aoit5jAd69_15nexus_execution12move_adapter14entry_function5tests12transfer_abi
FN:128,_RNvNtNtNtCs6aoit5jAd69_15nexus_execution12move_adapter14entry_function5tests21counter_increment_abi
FN:147,_RNvNtNtNtCs6aoit5jAd69_15nexus_execution12move_adapter14entry_function5testss_14args_match_abi
FN:173,_RNvNtNtNtCs6aoit5jAd69_15nexus_execution12move_adapter14entry_function5testss_14u64_round_trip
FN:167,_RNvNtNtNtCs6aoit5jAd69_15nexus_execution12move_adapter14entry_function5testss_18args_correct_types
FN:159,_RNvNtNtNtCs6aoit5jAd69_15nexus_execution12move_adapter14entry_function5testss_18args_type_mismatch
FN:152,_RNvNtNtNtCs6aoit5jAd69_15nexus_execution12move_adapter14entry_function5testss_19args_count_mismatch
FN:181,_RNvNtNtNtCs6aoit5jAd69_15nexus_execution12move_adapter14entry_function5testss_23vector_u8_rejects_empty
FN:188,_RNvNtNtNtCs6aoit5jAd69_15nexus_execution12move_adapter14entry_function5testss_24vector_u8_accepts_normal
FN:193,_RNvNtNtNtCs6aoit5jAd69_15nexus_execution12move_adapter14entry_function5testss_27vector_u8_rejects_oversized
FN:115,_RNCNvNtNtCs6aoit5jAd69_15nexus_execution12move_adapter14entry_function14decode_u64_arg0B7_
FN:45,_RNvNtNtCs6aoit5jAd69_15nexus_execution12move_adapter14entry_function13validate_args
FN:114,_RNvNtNtCs6aoit5jAd69_15nexus_execution12move_adapter14entry_function14decode_u64_arg
FN:120,_RNvNtNtCs6aoit5jAd69_15nexus_execution12move_adapter14entry_function14encode_u64_arg
FN:68,_RNvNtNtCs6aoit5jAd69_15nexus_execution12move_adapter14entry_function21validate_arg_encoding
FNDA:17,_RNvNtNtCsh7qRzkv9eQQ_15nexus_execution12move_adapter14entry_function13validate_args
FNDA:0,_RNvNtNtCsh7qRzkv9eQQ_15nexus_execution12move_adapter14entry_function14decode_u64_arg
FNDA:0,_RNvNtNtCsh7qRzkv9eQQ_15nexus_execution12move_adapter14entry_function14encode_u64_arg
FNDA:0,_RNvNtNtCsh7qRzkv9eQQ_15nexus_execution12move_adapter14entry_function21validate_arg_encoding
FNDA:0,_RNCNvNtNtCsh7qRzkv9eQQ_15nexus_execution12move_adapter14entry_function14decode_u64_arg0B7_
FNDA:28,_RNvNtNtNtCs6aoit5jAd69_15nexus_execution12move_adapter14entry_function5tests12transfer_abi
FNDA:28,_RNvNtNtNtCs6aoit5jAd69_15nexus_execution12move_adapter14entry_function5tests21counter_increment_abi
FNDA:14,_RNvNtNtNtCs6aoit5jAd69_15nexus_execution12move_adapter14entry_function5testss_14args_match_abi
FNDA:14,_RNvNtNtNtCs6aoit5jAd69_15nexus_execution12move_adapter14entry_function5testss_14u64_round_trip
FNDA:14,_RNvNtNtNtCs6aoit5jAd69_15nexus_execution12move_adapter14entry_function5testss_18args_correct_types
FNDA:14,_RNvNtNtNtCs6aoit5jAd69_15nexus_execution12move_adapter14entry_function5testss_18args_type_mismatch
FNDA:14,_RNvNtNtNtCs6aoit5jAd69_15nexus_execution12move_adapter14entry_function5testss_19args_count_mismatch
FNDA:14,_RNvNtNtNtCs6aoit5jAd69_15nexus_execution12move_adapter14entry_function5testss_23vector_u8_rejects_empty
FNDA:14,_RNvNtNtNtCs6aoit5jAd69_15nexus_execution12move_adapter14entry_function5testss_24vector_u8_accepts_normal
FNDA:14,_RNvNtNtNtCs6aoit5jAd69_15nexus_execution12move_adapter14entry_function5testss_27vector_u8_rejects_oversized
FNDA:7,_RNCNvNtNtCs6aoit5jAd69_15nexus_execution12move_adapter14entry_function14decode_u64_arg0B7_
FNDA:161,_RNvNtNtCs6aoit5jAd69_15nexus_execution12move_adapter14entry_function13validate_args
FNDA:70,_RNvNtNtCs6aoit5jAd69_15nexus_execution12move_adapter14entry_function14decode_u64_arg
FNDA:126,_RNvNtNtCs6aoit5jAd69_15nexus_execution12move_adapter14entry_function14encode_u64_arg
FNDA:161,_RNvNtNtCs6aoit5jAd69_15nexus_execution12move_adapter14entry_function21validate_arg_encoding
FNF:15
FNH:15
DA:45,178
DA:46,178
DA:47,28
DA:48,28
DA:49,28
DA:50,28
DA:51,28
DA:52,28
DA:53,150
DA:55,150
DA:56,119
DA:57,14
DA:58,14
DA:59,14
DA:60,14
DA:61,105
DA:63,136
DA:64,178
DA:68,161
DA:69,161
DA:71,42
DA:72,42
DA:74,0
DA:78,0
DA:79,0
DA:81,0
DA:85,21
DA:86,21
DA:88,0
DA:92,56
DA:93,42
DA:95,14
DA:102,42
DA:103,14
DA:104,28
DA:105,14
DA:107,14
DA:111,161
DA:114,70
DA:115,70
DA:116,63
DA:117,70
DA:120,126
DA:121,126
DA:122,126
DA:128,28
DA:129,28
DA:130,28
DA:131,28
DA:132,28
DA:133,28
DA:134,28
DA:135,28
DA:137,28
DA:138,28
DA:139,28
DA:140,28
DA:141,28
DA:142,28
DA:143,28
DA:144,28
DA:147,14
DA:148,14
DA:149,14
DA:152,14
DA:153,14
DA:154,14
DA:155,14
DA:156,14
DA:159,14
DA:160,14
DA:161,14
DA:162,14
DA:163,14
DA:164,14
DA:167,14
DA:168,14
DA:169,14
DA:170,14
DA:173,14
DA:174,14
DA:175,14
DA:176,14
DA:177,14
DA:178,14
DA:181,14
DA:182,14
DA:183,14
DA:184,14
DA:185,14
DA:188,14
DA:189,14
DA:190,14
DA:193,14
DA:194,14
DA:195,14
DA:196,14
DA:197,14
DA:198,14
BRF:0
BRH:0
LF:100
LH:95
end_of_record
SF:/Users/VD/Vootaa_Projects/vootaa-labs@github/nexus-node/crates/nexus-execution/src/move_adapter/events.rs
FN:66,_RNvMNtNtCsh7qRzkv9eQQ_15nexus_execution12move_adapter6eventsNtB2_16EventAccumulator5drain
FN:41,_RNvMNtNtCsh7qRzkv9eQQ_15nexus_execution12move_adapter6eventsNtB2_16EventAccumulator3new
FN:46,_RNvMNtNtCsh7qRzkv9eQQ_15nexus_execution12move_adapter6eventsNtB2_16EventAccumulator4emit
FN:41,_RNvMNtNtCs6aoit5jAd69_15nexus_execution12move_adapter6eventsNtB2_16EventAccumulator3new
FN:46,_RNvMNtNtCs6aoit5jAd69_15nexus_execution12move_adapter6eventsNtB2_16EventAccumulator4emit
FN:66,_RNvMNtNtCs6aoit5jAd69_15nexus_execution12move_adapter6eventsNtB2_16EventAccumulator5drain
FN:75,_RNvNtNtNtCs6aoit5jAd69_15nexus_execution12move_adapter6events5tests4addr
FN:95,_RNvNtNtNtCs6aoit5jAd69_15nexus_execution12move_adapter6events5testss_20event_round_trip_bcs
FN:80,_RNvNtNtNtCs6aoit5jAd69_15nexus_execution12move_adapter6events5testss_29emit_assigns_sequence_numbers
FNDA:0,_RNvMNtNtCsh7qRzkv9eQQ_15nexus_execution12move_adapter6eventsNtB2_16EventAccumulator5drain
FNDA:17,_RNvMNtNtCsh7qRzkv9eQQ_15nexus_execution12move_adapter6eventsNtB2_16EventAccumulator3new
FNDA:0,_RNvMNtNtCsh7qRzkv9eQQ_15nexus_execution12move_adapter6eventsNtB2_16EventAccumulator4emit
FNDA:147,_RNvMNtNtCs6aoit5jAd69_15nexus_execution12move_adapter6eventsNtB2_16EventAccumulator3new
FNDA:77,_RNvMNtNtCs6aoit5jAd69_15nexus_execution12move_adapter6eventsNtB2_16EventAccumulator4emit
FNDA:14,_RNvMNtNtCs6aoit5jAd69_15nexus_execution12move_adapter6eventsNtB2_16EventAccumulator5drain
FNDA:56,_RNvNtNtNtCs6aoit5jAd69_15nexus_execution12move_adapter6events5tests4addr
FNDA:14,_RNvNtNtNtCs6aoit5jAd69_15nexus_execution12move_adapter6events5testss_20event_round_trip_bcs
FNDA:14,_RNvNtNtNtCs6aoit5jAd69_15nexus_execution12move_adapter6events5testss_29emit_assigns_sequence_numbers
FNF:6
FNH:6
DA:41,164
DA:42,164
DA:43,164
DA:46,77
DA:47,77
DA:48,77
DA:49,77
DA:50,77
DA:51,77
DA:52,77
DA:53,77
DA:54,77
DA:55,77
DA:56,77
DA:57,77
DA:58,77
DA:59,77
DA:60,77
DA:61,77
DA:62,77
DA:66,14
DA:67,14
DA:68,14
DA:75,56
DA:76,56
DA:77,56
DA:80,14
DA:81,14
DA:82,14
DA:83,14
DA:84,14
DA:85,14
DA:86,14
DA:87,14
DA:88,14
DA:89,14
DA:91,14
DA:92,14
DA:95,14
DA:96,14
DA:97,14
DA:98,14
DA:99,14
DA:100,14
DA:101,14
DA:102,14
DA:103,14
DA:104,14
DA:105,14
BRF:0
BRH:0
LF:49
LH:49
end_of_record
SF:/Users/VD/Vootaa_Projects/vootaa-labs@github/nexus-node/crates/nexus-execution/src/move_adapter/gas_meter.rs
FN:84,_RNvMs0_NtNtCsh7qRzkv9eQQ_15nexus_execution12move_adapter9gas_meterNtB5_14SimpleGasMeter3new
FN:146,_RNvMs2_NtNtCsh7qRzkv9eQQ_15nexus_execution12move_adapter9gas_meterNtB5_11GasSchedule11from_config
FN:190,_RNvNtNtCsh7qRzkv9eQQ_15nexus_execution12move_adapter9gas_meter13read_gas_costB5_
FN:182,_RNvNtNtCsh7qRzkv9eQQ_15nexus_execution12move_adapter9gas_meter14write_gas_costB5_
FN:172,_RNvNtNtCsh7qRzkv9eQQ_15nexus_execution12move_adapter9gas_meter16publish_gas_costB5_
FN:220,_RNvNtNtCsh7qRzkv9eQQ_15nexus_execution12move_adapter9gas_meter17estimate_call_gasB5_
FN:215,_RNvNtNtCsh7qRzkv9eQQ_15nexus_execution12move_adapter9gas_meter18clamp_gas_to_limitB5_
FN:195,_RNvNtNtCsh7qRzkv9eQQ_15nexus_execution12move_adapter9gas_meter18encoded_chunks_lenB5_
FN:266,_RNvNtNtCsh7qRzkv9eQQ_15nexus_execution12move_adapter9gas_meter18estimate_query_gasB5_
FN:202,_RNvNtNtCsh7qRzkv9eQQ_15nexus_execution12move_adapter9gas_meter18state_change_bytesB5_
FN:245,_RNvNtNtCsh7qRzkv9eQQ_15nexus_execution12move_adapter9gas_meter19estimate_script_gasB5_
FN:234,_RNvNtNtCsh7qRzkv9eQQ_15nexus_execution12move_adapter9gas_meter20estimate_publish_gasB5_
FN:29,_RNvXNtNtCsh7qRzkv9eQQ_15nexus_execution12move_adapter9gas_meterNtB2_12GasExhaustedNtNtCslNfmTnNkGed_4core3fmt7Display3fmt
FN:90,_RNvXs1_NtNtCsh7qRzkv9eQQ_15nexus_execution12move_adapter9gas_meterNtB5_14SimpleGasMeterNtB5_8GasMeter6charge
FN:109,_RNvXs1_NtNtCsh7qRzkv9eQQ_15nexus_execution12move_adapter9gas_meterNtB5_14SimpleGasMeterNtB5_8GasMeter8consumedB9_
FN:104,_RNvXs1_NtNtCsh7qRzkv9eQQ_15nexus_execution12move_adapter9gas_meterNtB5_14SimpleGasMeterNtB5_8GasMeter9remainingB9_
FN:159,_RNvXs3_NtNtCsh7qRzkv9eQQ_15nexus_execution12move_adapter9gas_meterNtB5_11GasScheduleNtNtCslNfmTnNkGed_4core7default7Default7default
FN:114,_RNvXs1_NtNtCsh7qRzkv9eQQ_15nexus_execution12move_adapter9gas_meterNtB5_14SimpleGasMeterNtB5_8GasMeter5limitB9_
FN:208,_RNCNCNvNtNtCsh7qRzkv9eQQ_15nexus_execution12move_adapter9gas_meter18state_change_bytes00B9_
FN:196,_RNCNvNtNtCsh7qRzkv9eQQ_15nexus_execution12move_adapter9gas_meter18encoded_chunks_len0B7_
FN:203,_RNCNvNtNtCsh7qRzkv9eQQ_15nexus_execution12move_adapter9gas_meter18state_change_bytes0B7_
FN:442,_RNvNvNtNtNtCs6aoit5jAd69_15nexus_execution12move_adapter9gas_meter5testss_24gas_meter_is_object_safe8__accepts
FN:84,_RNvMs0_NtNtCs6aoit5jAd69_15nexus_execution12move_adapter9gas_meterNtB5_14SimpleGasMeter3new
FN:146,_RNvMs2_NtNtCs6aoit5jAd69_15nexus_execution12move_adapter9gas_meterNtB5_11GasSchedule11from_config
FN:190,_RNvNtNtCs6aoit5jAd69_15nexus_execution12move_adapter9gas_meter13read_gas_costB5_
FN:182,_RNvNtNtCs6aoit5jAd69_15nexus_execution12move_adapter9gas_meter14write_gas_costB5_
FN:172,_RNvNtNtCs6aoit5jAd69_15nexus_execution12move_adapter9gas_meter16publish_gas_costB5_
FN:220,_RNvNtNtCs6aoit5jAd69_15nexus_execution12move_adapter9gas_meter17estimate_call_gasB5_
FN:215,_RNvNtNtCs6aoit5jAd69_15nexus_execution12move_adapter9gas_meter18clamp_gas_to_limitB5_
FN:195,_RNvNtNtCs6aoit5jAd69_15nexus_execution12move_adapter9gas_meter18encoded_chunks_lenB5_
FN:266,_RNvNtNtCs6aoit5jAd69_15nexus_execution12move_adapter9gas_meter18estimate_query_gasB5_
FN:202,_RNvNtNtCs6aoit5jAd69_15nexus_execution12move_adapter9gas_meter18state_change_bytesB5_
FN:245,_RNvNtNtCs6aoit5jAd69_15nexus_execution12move_adapter9gas_meter19estimate_script_gasB5_
FN:234,_RNvNtNtCs6aoit5jAd69_15nexus_execution12move_adapter9gas_meter20estimate_publish_gasB5_
FN:29,_RNvXNtNtCs6aoit5jAd69_15nexus_execution12move_adapter9gas_meterNtB2_12GasExhaustedNtNtCslNfmTnNkGed_4core3fmt7Display3fmt
FN:114,_RNvXs1_NtNtCs6aoit5jAd69_15nexus_execution12move_adapter9gas_meterNtB5_14SimpleGasMeterNtB5_8GasMeter5limitB9_
FN:90,_RNvXs1_NtNtCs6aoit5jAd69_15nexus_execution12move_adapter9gas_meterNtB5_14SimpleGasMeterNtB5_8GasMeter6charge
FN:109,_RNvXs1_NtNtCs6aoit5jAd69_15nexus_execution12move_adapter9gas_meterNtB5_14SimpleGasMeterNtB5_8GasMeter8consumedB9_
FN:104,_RNvXs1_NtNtCs6aoit5jAd69_15nexus_execution12move_adapter9gas_meterNtB5_14SimpleGasMeterNtB5_8GasMeter9remainingB9_
FN:159,_RNvXs3_NtNtCs6aoit5jAd69_15nexus_execution12move_adapter9gas_meterNtB5_11GasScheduleNtNtCslNfmTnNkGed_4core7default7Default7default
FN:208,_RNCNCNvNtNtCs6aoit5jAd69_15nexus_execution12move_adapter9gas_meter18state_change_bytes00B9_
FN:196,_RNCNvNtNtCs6aoit5jAd69_15nexus_execution12move_adapter9gas_meter18encoded_chunks_len0B7_
FN:203,_RNCNvNtNtCs6aoit5jAd69_15nexus_execution12move_adapter9gas_meter18state_change_bytes0B7_
FN:296,_RNvNtNtNtCs6aoit5jAd69_15nexus_execution12move_adapter9gas_meter5testss_14charge_success
FN:322,_RNvNtNtNtCs6aoit5jAd69_15nexus_execution12move_adapter9gas_meter5testss_16multiple_charges
FN:304,_RNvNtNtNtCs6aoit5jAd69_15nexus_execution12move_adapter9gas_meter5testss_18charge_exact_limit
FN:312,_RNvNtNtNtCs6aoit5jAd69_15nexus_execution12move_adapter9gas_meter5testss_20charge_exceeds_limit
FN:428,_RNvNtNtNtCs6aoit5jAd69_15nexus_execution12move_adapter9gas_meter5testss_21gas_exhausted_display
FN:288,_RNvNtNtNtCs6aoit5jAd69_15nexus_execution12move_adapter9gas_meter5testss_22new_meter_starts_empty
FN:441,_RNvNtNtNtCs6aoit5jAd69_15nexus_execution12move_adapter9gas_meter5testss_24gas_meter_is_object_safe
FN:420,_RNvNtNtNtCs6aoit5jAd69_15nexus_execution12move_adapter9gas_meter5testss_25read_gas_cost_calculation
FN:467,_RNvNtNtNtCs6aoit5jAd69_15nexus_execution12move_adapter9gas_meter5testss_26estimate_query_gas_zero_io
FN:402,_RNvNtNtNtCs6aoit5jAd69_15nexus_execution12move_adapter9gas_meter5testss_26publish_gas_cost_saturates
FN:413,_RNvNtNtNtCs6aoit5jAd69_15nexus_execution12move_adapter9gas_meter5testss_26write_gas_cost_calculation
FN:375,_RNvNtNtNtCs6aoit5jAd69_15nexus_execution12move_adapter9gas_meter5testss_27schedule_from_custom_config
FN:344,_RNvNtNtNtCs6aoit5jAd69_15nexus_execution12move_adapter9gas_meter5testss_27zero_charge_always_succeeds
FN:456,_RNvNtNtNtCs6aoit5jAd69_15nexus_execution12move_adapter9gas_meter5testss_28estimate_query_gas_with_args
FN:393,_RNvNtNtNtCs6aoit5jAd69_15nexus_execution12move_adapter9gas_meter5testss_28publish_gas_cost_calculation
FN:351,_RNvNtNtNtCs6aoit5jAd69_15nexus_execution12move_adapter9gas_meter5testss_30saturating_arithmetic_no_panic
FN:363,_RNvNtNtNtCs6aoit5jAd69_15nexus_execution12move_adapter9gas_meter5testss_31default_schedule_matches_config
FN:336,_RNvNtNtNtCs6aoit5jAd69_15nexus_execution12move_adapter9gas_meter5testss_33zero_limit_rejects_nonzero_charge
FN:448,_RNvNtNtNtCs6aoit5jAd69_15nexus_execution12move_adapter9gas_meter5testss_44estimate_query_gas_includes_call_base_and_io
FNDA:17,_RNvMs0_NtNtCsh7qRzkv9eQQ_15nexus_execution12move_adapter9gas_meterNtB5_14SimpleGasMeter3new
FNDA:6187,_RNvMs2_NtNtCsh7qRzkv9eQQ_15nexus_execution12move_adapter9gas_meterNtB5_11GasSchedule11from_config
FNDA:0,_RNvNtNtCsh7qRzkv9eQQ_15nexus_execution12move_adapter9gas_meter13read_gas_costB5_
FNDA:0,_RNvNtNtCsh7qRzkv9eQQ_15nexus_execution12move_adapter9gas_meter14write_gas_costB5_
FNDA:0,_RNvNtNtCsh7qRzkv9eQQ_15nexus_execution12move_adapter9gas_meter16publish_gas_costB5_
FNDA:0,_RNvNtNtCsh7qRzkv9eQQ_15nexus_execution12move_adapter9gas_meter17estimate_call_gasB5_
FNDA:17,_RNvNtNtCsh7qRzkv9eQQ_15nexus_execution12move_adapter9gas_meter18clamp_gas_to_limitB5_
FNDA:0,_RNvNtNtCsh7qRzkv9eQQ_15nexus_execution12move_adapter9gas_meter18encoded_chunks_lenB5_
FNDA:0,_RNvNtNtCsh7qRzkv9eQQ_15nexus_execution12move_adapter9gas_meter18estimate_query_gasB5_
FNDA:0,_RNvNtNtCsh7qRzkv9eQQ_15nexus_execution12move_adapter9gas_meter18state_change_bytesB5_
FNDA:0,_RNvNtNtCsh7qRzkv9eQQ_15nexus_execution12move_adapter9gas_meter19estimate_script_gasB5_
FNDA:0,_RNvNtNtCsh7qRzkv9eQQ_15nexus_execution12move_adapter9gas_meter20estimate_publish_gasB5_
FNDA:0,_RNvXNtNtCsh7qRzkv9eQQ_15nexus_execution12move_adapter9gas_meterNtB2_12GasExhaustedNtNtCslNfmTnNkGed_4core3fmt7Display3fmt
FNDA:17,_RNvXs1_NtNtCsh7qRzkv9eQQ_15nexus_execution12move_adapter9gas_meterNtB5_14SimpleGasMeterNtB5_8GasMeter6charge
FNDA:17,_RNvXs1_NtNtCsh7qRzkv9eQQ_15nexus_execution12move_adapter9gas_meterNtB5_14SimpleGasMeterNtB5_8GasMeter8consumedB9_
FNDA:0,_RNvXs1_NtNtCsh7qRzkv9eQQ_15nexus_execution12move_adapter9gas_meterNtB5_14SimpleGasMeterNtB5_8GasMeter9remainingB9_
FNDA:0,_RNvXs3_NtNtCsh7qRzkv9eQQ_15nexus_execution12move_adapter9gas_meterNtB5_11GasScheduleNtNtCslNfmTnNkGed_4core7default7Default7default
FNDA:0,_RNvXs1_NtNtCsh7qRzkv9eQQ_15nexus_execution12move_adapter9gas_meterNtB5_14SimpleGasMeterNtB5_8GasMeter5limitB9_
FNDA:0,_RNCNCNvNtNtCsh7qRzkv9eQQ_15nexus_execution12move_adapter9gas_meter18state_change_bytes00B9_
FNDA:0,_RNCNvNtNtCsh7qRzkv9eQQ_15nexus_execution12move_adapter9gas_meter18encoded_chunks_len0B7_
FNDA:0,_RNCNvNtNtCsh7qRzkv9eQQ_15nexus_execution12move_adapter9gas_meter18state_change_bytes0B7_
FNDA:0,_RNvNvNtNtNtCs6aoit5jAd69_15nexus_execution12move_adapter9gas_meter5testss_24gas_meter_is_object_safe8__accepts
FNDA:406,_RNvMs0_NtNtCs6aoit5jAd69_15nexus_execution12move_adapter9gas_meterNtB5_14SimpleGasMeter3new
FNDA:2519,_RNvMs2_NtNtCs6aoit5jAd69_15nexus_execution12move_adapter9gas_meterNtB5_11GasSchedule11from_config
FNDA:725,_RNvNtNtCs6aoit5jAd69_15nexus_execution12move_adapter9gas_meter13read_gas_costB5_
FNDA:292,_RNvNtNtCs6aoit5jAd69_15nexus_execution12move_adapter9gas_meter14write_gas_costB5_
FNDA:146,_RNvNtNtCs6aoit5jAd69_15nexus_execution12move_adapter9gas_meter16publish_gas_costB5_
FNDA:160,_RNvNtNtCs6aoit5jAd69_15nexus_execution12move_adapter9gas_meter17estimate_call_gasB5_
FNDA:94,_RNvNtNtCs6aoit5jAd69_15nexus_execution12move_adapter9gas_meter18clamp_gas_to_limitB5_
FNDA:990,_RNvNtNtCs6aoit5jAd69_15nexus_execution12move_adapter9gas_meter18encoded_chunks_lenB5_
FNDA:268,_RNvNtNtCs6aoit5jAd69_15nexus_execution12move_adapter9gas_meter18estimate_query_gasB5_
FNDA:264,_RNvNtNtCs6aoit5jAd69_15nexus_execution12move_adapter9gas_meter18state_change_bytesB5_
FNDA:15,_RNvNtNtCs6aoit5jAd69_15nexus_execution12move_adapter9gas_meter19estimate_script_gasB5_
FNDA:104,_RNvNtNtCs6aoit5jAd69_15nexus_execution12move_adapter9gas_meter20estimate_publish_gasB5_
FNDA:14,_RNvXNtNtCs6aoit5jAd69_15nexus_execution12move_adapter9gas_meterNtB2_12GasExhaustedNtNtCslNfmTnNkGed_4core3fmt7Display3fmt
FNDA:14,_RNvXs1_NtNtCs6aoit5jAd69_15nexus_execution12move_adapter9gas_meterNtB5_14SimpleGasMeterNtB5_8GasMeter5limitB9_
FNDA:574,_RNvXs1_NtNtCs6aoit5jAd69_15nexus_execution12move_adapter9gas_meterNtB5_14SimpleGasMeterNtB5_8GasMeter6charge
FNDA:315,_RNvXs1_NtNtCs6aoit5jAd69_15nexus_execution12move_adapter9gas_meterNtB5_14SimpleGasMeterNtB5_8GasMeter8consumedB9_
FNDA:161,_RNvXs1_NtNtCs6aoit5jAd69_15nexus_execution12move_adapter9gas_meterNtB5_14SimpleGasMeterNtB5_8GasMeter9remainingB9_
FNDA:392,_RNvXs3_NtNtCs6aoit5jAd69_15nexus_execution12move_adapter9gas_meterNtB5_11GasScheduleNtNtCslNfmTnNkGed_4core7default7Default7default
FNDA:1894,_RNCNCNvNtNtCs6aoit5jAd69_15nexus_execution12move_adapter9gas_meter18state_change_bytes00B9_
FNDA:940,_RNCNvNtNtCs6aoit5jAd69_15nexus_execution12move_adapter9gas_meter18encoded_chunks_len0B7_
FNDA:1894,_RNCNvNtNtCs6aoit5jAd69_15nexus_execution12move_adapter9gas_meter18state_change_bytes0B7_
FNDA:14,_RNvNtNtNtCs6aoit5jAd69_15nexus_execution12move_adapter9gas_meter5testss_14charge_success
FNDA:14,_RNvNtNtNtCs6aoit5jAd69_15nexus_execution12move_adapter9gas_meter5testss_16multiple_charges
FNDA:14,_RNvNtNtNtCs6aoit5jAd69_15nexus_execution12move_adapter9gas_meter5testss_18charge_exact_limit
FNDA:14,_RNvNtNtNtCs6aoit5jAd69_15nexus_execution12move_adapter9gas_meter5testss_20charge_exceeds_limit
FNDA:14,_RNvNtNtNtCs6aoit5jAd69_15nexus_execution12move_adapter9gas_meter5testss_21gas_exhausted_display
FNDA:14,_RNvNtNtNtCs6aoit5jAd69_15nexus_execution12move_adapter9gas_meter5testss_22new_meter_starts_empty
FNDA:14,_RNvNtNtNtCs6aoit5jAd69_15nexus_execution12move_adapter9gas_meter5testss_24gas_meter_is_object_safe
FNDA:14,_RNvNtNtNtCs6aoit5jAd69_15nexus_execution12move_adapter9gas_meter5testss_25read_gas_cost_calculation
FNDA:14,_RNvNtNtNtCs6aoit5jAd69_15nexus_execution12move_adapter9gas_meter5testss_26estimate_query_gas_zero_io
FNDA:14,_RNvNtNtNtCs6aoit5jAd69_15nexus_execution12move_adapter9gas_meter5testss_26publish_gas_cost_saturates
FNDA:14,_RNvNtNtNtCs6aoit5jAd69_15nexus_execution12move_adapter9gas_meter5testss_26write_gas_cost_calculation
FNDA:14,_RNvNtNtNtCs6aoit5jAd69_15nexus_execution12move_adapter9gas_meter5testss_27schedule_from_custom_config
FNDA:14,_RNvNtNtNtCs6aoit5jAd69_15nexus_execution12move_adapter9gas_meter5testss_27zero_charge_always_succeeds
FNDA:14,_RNvNtNtNtCs6aoit5jAd69_15nexus_execution12move_adapter9gas_meter5testss_28estimate_query_gas_with_args
FNDA:14,_RNvNtNtNtCs6aoit5jAd69_15nexus_execution12move_adapter9gas_meter5testss_28publish_gas_cost_calculation
FNDA:14,_RNvNtNtNtCs6aoit5jAd69_15nexus_execution12move_adapter9gas_meter5testss_30saturating_arithmetic_no_panic
FNDA:14,_RNvNtNtNtCs6aoit5jAd69_15nexus_execution12move_adapter9gas_meter5testss_31default_schedule_matches_config
FNDA:14,_RNvNtNtNtCs6aoit5jAd69_15nexus_execution12move_adapter9gas_meter5testss_33zero_limit_rejects_nonzero_charge
FNDA:14,_RNvNtNtNtCs6aoit5jAd69_15nexus_execution12move_adapter9gas_meter5testss_44estimate_query_gas_includes_call_base_and_io
FNF:41
FNH:40
DA:29,14
DA:30,14
DA:31,14
DA:32,14
DA:33,14
DA:34,14
DA:35,14
DA:84,423
DA:85,423
DA:86,423
DA:90,591
DA:91,591
DA:92,591
DA:93,105
DA:94,105
DA:95,105
DA:96,105
DA:98,486
DA:99,486
DA:101,591
DA:104,161
DA:105,161
DA:106,161
DA:109,332
DA:110,332
DA:111,332
DA:114,14
DA:115,14
DA:116,14
DA:146,8706
DA:147,8706
DA:148,8706
DA:149,8706
DA:150,8706
DA:151,8706
DA:152,8706
DA:153,8706
DA:154,8706
DA:155,8706
DA:159,392
DA:160,392
DA:161,392
DA:172,146
DA:173,146
DA:174,146
DA:175,146
DA:176,146
DA:182,292
DA:183,292
DA:184,292
DA:190,725
DA:191,725
DA:192,725
DA:195,990
DA:196,990
DA:197,940
DA:198,990
DA:199,990
DA:202,264
DA:203,1894
DA:204,1894
DA:205,1894
DA:206,1894
DA:207,1894
DA:208,1894
DA:209,1894
DA:210,1894
DA:211,1894
DA:212,264
DA:215,111
DA:216,111
DA:217,111
DA:220,160
DA:221,160
DA:222,160
DA:223,160
DA:224,160
DA:225,160
DA:226,160
DA:227,160
DA:228,160
DA:229,160
DA:230,160
DA:231,160
DA:234,104
DA:235,104
DA:236,104
DA:237,104
DA:238,104
DA:239,104
DA:240,104
DA:241,104
DA:242,104
DA:245,15
DA:246,15
DA:247,15
DA:248,15
DA:249,15
DA:250,15
DA:251,15
DA:252,15
DA:253,15
DA:254,15
DA:255,15
DA:256,15
DA:257,15
DA:266,268
DA:267,268
DA:268,268
DA:269,268
DA:270,268
DA:271,268
DA:272,268
DA:273,268
DA:274,268
DA:275,268
DA:276,268
DA:277,268
DA:288,14
DA:289,14
DA:290,14
DA:291,14
DA:292,14
DA:293,14
DA:296,14
DA:297,14
DA:298,14
DA:299,14
DA:300,14
DA:301,14
DA:304,14
DA:305,14
DA:306,14
DA:307,14
DA:308,14
DA:309,14
DA:312,14
DA:313,14
DA:314,14
DA:315,14
DA:316,14
DA:318,14
DA:319,14
DA:322,14
DA:323,14
DA:324,14
DA:325,14
DA:326,14
DA:327,14
DA:329,14
DA:330,14
DA:331,14
DA:332,14
DA:333,14
DA:336,14
DA:337,14
DA:338,14
DA:339,14
DA:340,14
DA:341,14
DA:344,14
DA:345,14
DA:346,14
DA:347,14
DA:348,14
DA:351,14
DA:352,14
DA:353,14
DA:355,14
DA:356,14
DA:357,14
DA:358,14
DA:363,14
DA:364,14
DA:365,14
DA:366,14
DA:367,14
DA:368,14
DA:369,14
DA:370,14
DA:371,14
DA:372,14
DA:375,14
DA:376,14
DA:377,14
DA:378,14
DA:379,14
DA:380,14
DA:381,14
DA:382,14
DA:383,14
DA:384,14
DA:385,14
DA:386,14
DA:387,14
DA:388,14
DA:393,14
DA:394,14
DA:395,14
DA:396,14
DA:398,14
DA:399,14
DA:402,14
DA:403,14
DA:404,14
DA:405,14
DA:406,14
DA:407,14
DA:408,14
DA:409,14
DA:410,14
DA:413,14
DA:414,14
DA:415,14
DA:416,14
DA:417,14
DA:420,14
DA:421,14
DA:422,14
DA:423,14
DA:428,14
DA:429,14
DA:430,14
DA:431,14
DA:432,14
DA:433,14
DA:434,14
DA:435,14
DA:436,14
DA:441,14
DA:442,0
DA:443,14
DA:448,14
DA:449,14
DA:450,14
DA:451,14
DA:452,14
DA:453,14
DA:456,14
DA:457,14
DA:458,14
DA:459,14
DA:460,14
DA:461,14
DA:462,14
DA:463,14
DA:464,14
DA:467,14
DA:468,14
DA:469,14
DA:470,14
DA:471,14
DA:472,14
BRF:0
BRH:0
LF:258
LH:257
end_of_record
SF:/Users/VD/Vootaa_Projects/vootaa-labs@github/nexus-node/crates/nexus-execution/src/move_adapter/mod.rs
FN:223,_RNvMNtCsh7qRzkv9eQQ_15nexus_execution12move_adapterNtB2_12MoveExecutor14execute_script
FN:212,_RNvMNtCsh7qRzkv9eQQ_15nexus_execution12move_adapterNtB2_12MoveExecutor15publish_modules
FN:196,_RNvMNtCsh7qRzkv9eQQ_15nexus_execution12move_adapterNtB2_12MoveExecutor16execute_function
FN:170,_RNvMNtCsh7qRzkv9eQQ_15nexus_execution12move_adapterNtB2_12MoveExecutor3new
FN:180,_RNvMNtCsh7qRzkv9eQQ_15nexus_execution12move_adapterNtB2_12MoveExecutor12with_builtin
FN:238,_RNvMNtCsh7qRzkv9eQQ_15nexus_execution12move_adapterNtB2_12MoveExecutor6config
FN:321,_RNvNvNtNtCs6aoit5jAd69_15nexus_execution12move_adapter5testss_28move_vm_trait_is_object_safe8__accepts
FN:180,_RNvMNtCs6aoit5jAd69_15nexus_execution12move_adapterNtB2_12MoveExecutor12with_builtin
FN:223,_RNvMNtCs6aoit5jAd69_15nexus_execution12move_adapterNtB2_12MoveExecutor14execute_script
FN:212,_RNvMNtCs6aoit5jAd69_15nexus_execution12move_adapterNtB2_12MoveExecutor15publish_modules
FN:196,_RNvMNtCs6aoit5jAd69_15nexus_execution12move_adapterNtB2_12MoveExecutor16execute_function
FN:170,_RNvMNtCs6aoit5jAd69_15nexus_execution12move_adapterNtB2_12MoveExecutor3new
FN:238,_RNvMNtCs6aoit5jAd69_15nexus_execution12move_adapterNtB2_12MoveExecutor6config
FN:190,_RNvMNtCs6aoit5jAd69_15nexus_execution12move_adapterNtB2_12MoveExecutor7with_vm
FN:265,_RNvMs_NtNtCs6aoit5jAd69_15nexus_execution12move_adapter5testsNtB4_6MockVm3new
FN:269,_RNvMs_NtNtCs6aoit5jAd69_15nexus_execution12move_adapter5testsNtB4_6MockVm6output
FN:320,_RNvNtNtCs6aoit5jAd69_15nexus_execution12move_adapter5testss_28move_vm_trait_is_object_safe
FN:325,_RNvNtNtCs6aoit5jAd69_15nexus_execution12move_adapter5testss_35move_executor_creates_with_defaults
FN:350,_RNvNtNtCs6aoit5jAd69_15nexus_execution12move_adapter5testss_36move_executor_delegates_to_custom_vm
FN:334,_RNvNtNtCs6aoit5jAd69_15nexus_execution12move_adapter5testss_43move_executor_with_builtin_preserves_config
FN:255,_RNvXNtNtCs6aoit5jAd69_15nexus_execution12move_adapter5testsNtB2_10EmptyStateNtNtB6_6traits9StateView3get
FN:305,_RNvXs0_NtNtCs6aoit5jAd69_15nexus_execution12move_adapter5testsNtB5_6MockVmNtB7_6MoveVm14execute_script
FN:294,_RNvXs0_NtNtCs6aoit5jAd69_15nexus_execution12move_adapter5testsNtB5_6MockVmNtB7_6MoveVm15publish_modules
FN:280,_RNvXs0_NtNtCs6aoit5jAd69_15nexus_execution12move_adapter5testsNtB5_6MockVmNtB7_6MoveVm16execute_function
FNDA:0,_RNvMNtCsh7qRzkv9eQQ_15nexus_execution12move_adapterNtB2_12MoveExecutor14execute_script
FNDA:17,_RNvMNtCsh7qRzkv9eQQ_15nexus_execution12move_adapterNtB2_12MoveExecutor15publish_modules
FNDA:17,_RNvMNtCsh7qRzkv9eQQ_15nexus_execution12move_adapterNtB2_12MoveExecutor16execute_function
FNDA:6153,_RNvMNtCsh7qRzkv9eQQ_15nexus_execution12move_adapterNtB2_12MoveExecutor3new
FNDA:0,_RNvMNtCsh7qRzkv9eQQ_15nexus_execution12move_adapterNtB2_12MoveExecutor12with_builtin
FNDA:0,_RNvMNtCsh7qRzkv9eQQ_15nexus_execution12move_adapterNtB2_12MoveExecutor6config
FNDA:0,_RNvNvNtNtCs6aoit5jAd69_15nexus_execution12move_adapter5testss_28move_vm_trait_is_object_safe8__accepts
FNDA:31,_RNvMNtCs6aoit5jAd69_15nexus_execution12move_adapterNtB2_12MoveExecutor12with_builtin
FNDA:19,_RNvMNtCs6aoit5jAd69_15nexus_execution12move_adapterNtB2_12MoveExecutor14execute_script
FNDA:16,_RNvMNtCs6aoit5jAd69_15nexus_execution12move_adapterNtB2_12MoveExecutor15publish_modules
FNDA:16,_RNvMNtCs6aoit5jAd69_15nexus_execution12move_adapterNtB2_12MoveExecutor16execute_function
FNDA:1605,_RNvMNtCs6aoit5jAd69_15nexus_execution12move_adapterNtB2_12MoveExecutor3new
FNDA:34,_RNvMNtCs6aoit5jAd69_15nexus_execution12move_adapterNtB2_12MoveExecutor6config
FNDA:31,_RNvMNtCs6aoit5jAd69_15nexus_execution12move_adapterNtB2_12MoveExecutor7with_vm
FNDA:10,_RNvMs_NtNtCs6aoit5jAd69_15nexus_execution12move_adapter5testsNtB4_6MockVm3new
FNDA:30,_RNvMs_NtNtCs6aoit5jAd69_15nexus_execution12move_adapter5testsNtB4_6MockVm6output
FNDA:14,_RNvNtNtCs6aoit5jAd69_15nexus_execution12move_adapter5testss_28move_vm_trait_is_object_safe
FNDA:10,_RNvNtNtCs6aoit5jAd69_15nexus_execution12move_adapter5testss_35move_executor_creates_with_defaults
FNDA:10,_RNvNtNtCs6aoit5jAd69_15nexus_execution12move_adapter5testss_36move_executor_delegates_to_custom_vm
FNDA:10,_RNvNtNtCs6aoit5jAd69_15nexus_execution12move_adapter5testss_43move_executor_with_builtin_preserves_config
FNDA:0,_RNvXNtNtCs6aoit5jAd69_15nexus_execution12move_adapter5testsNtB2_10EmptyStateNtNtB6_6traits9StateView3get
FNDA:10,_RNvXs0_NtNtCs6aoit5jAd69_15nexus_execution12move_adapter5testsNtB5_6MockVmNtB7_6MoveVm14execute_script
FNDA:10,_RNvXs0_NtNtCs6aoit5jAd69_15nexus_execution12move_adapter5testsNtB5_6MockVmNtB7_6MoveVm15publish_modules
FNDA:10,_RNvXs0_NtNtCs6aoit5jAd69_15nexus_execution12move_adapter5testsNtB5_6MockVmNtB7_6MoveVm16execute_function
FNF:18
FNH:16
DA:170,7758
DA:171,7758
DA:172,7758
DA:173,7758
DA:174,7758
DA:175,7758
DA:176,7758
DA:180,31
DA:181,31
DA:182,31
DA:183,31
DA:184,31
DA:185,31
DA:190,31
DA:191,31
DA:192,31
DA:196,33
DA:197,33
DA:198,33
DA:199,33
DA:200,33
DA:201,33
DA:202,33
DA:203,33
DA:204,33
DA:205,33
DA:206,33
DA:207,33
DA:208,33
DA:209,33
DA:212,33
DA:213,33
DA:214,33
DA:215,33
DA:216,33
DA:217,33
DA:218,33
DA:219,33
DA:220,33
DA:223,19
DA:224,19
DA:225,19
DA:226,19
DA:227,19
DA:228,19
DA:229,19
DA:230,19
DA:231,19
DA:232,19
DA:233,19
DA:234,19
DA:238,34
DA:239,34
DA:240,34
DA:255,0
DA:256,0
DA:257,0
DA:265,10
DA:266,10
DA:267,10
DA:269,30
DA:270,30
DA:271,30
DA:272,30
DA:273,30
DA:274,30
DA:275,30
DA:276,30
DA:280,10
DA:281,10
DA:282,10
DA:283,10
DA:284,10
DA:285,10
DA:286,10
DA:287,10
DA:288,10
DA:289,10
DA:290,10
DA:291,10
DA:292,10
DA:294,10
DA:295,10
DA:296,10
DA:297,10
DA:298,10
DA:299,10
DA:300,10
DA:301,10
DA:302,10
DA:303,10
DA:305,10
DA:306,10
DA:307,10
DA:308,10
DA:309,10
DA:310,10
DA:311,10
DA:312,10
DA:313,10
DA:314,10
DA:315,10
DA:316,10
DA:320,14
DA:321,0
DA:322,14
DA:325,10
DA:326,10
DA:327,10
DA:328,10
DA:329,10
DA:330,10
DA:331,10
DA:334,10
DA:335,10
DA:336,10
DA:337,10
DA:338,10
DA:339,10
DA:340,10
DA:341,10
DA:342,10
DA:343,10
DA:344,10
DA:345,10
DA:346,10
DA:347,10
DA:350,10
DA:351,10
DA:352,10
DA:353,10
DA:354,10
DA:355,10
DA:356,10
DA:357,10
DA:358,10
DA:359,10
DA:360,10
DA:361,10
DA:362,10
DA:363,10
DA:364,10
DA:365,10
DA:366,10
DA:367,10
DA:368,10
DA:369,10
DA:370,10
DA:371,10
DA:372,10
DA:373,10
DA:374,10
DA:375,10
BRF:0
BRH:0
LF:153
LH:149
end_of_record
SF:/Users/VD/Vootaa_Projects/vootaa-labs@github/nexus-node/crates/nexus-execution/src/move_adapter/move_runtime.rs
FN:107,_RNvMNtNtCsh7qRzkv9eQQ_15nexus_execution12move_adapter12move_runtimeNtB2_11MoveRuntime3new
FN:391,_RNvMs0_NtNtCsh7qRzkv9eQQ_15nexus_execution12move_adapter12move_runtimeNtB5_11MoveRuntime10query_view
FN:507,_RNvMs1_NtNtCsh7qRzkv9eQQ_15nexus_execution12move_adapter12move_runtimeNtB5_17NexusBytesStorage3new
FN:618,_RNvNtNtCsh7qRzkv9eQQ_15nexus_execution12move_adapter12move_runtime18changeset_to_nexus
FN:591,_RNvNtNtCsh7qRzkv9eQQ_15nexus_execution12move_adapter12move_runtime19parse_function_name
FN:582,_RNvNtNtCsh7qRzkv9eQQ_15nexus_execution12move_adapter12move_runtime21dependency_must_exist
FN:605,_RNvNtNtCsh7qRzkv9eQQ_15nexus_execution12move_adapter12move_runtime21deserialize_type_args
FN:578,_RNvNtNtCsh7qRzkv9eQQ_15nexus_execution12move_adapter12move_runtime21move_to_nexus_address
FN:573,_RNvNtNtCsh7qRzkv9eQQ_15nexus_execution12move_adapter12move_runtime21nexus_to_move_address
FN:513,_RNvXs2_NtNtCsh7qRzkv9eQQ_15nexus_execution12move_adapter12move_runtimeNtB5_17NexusBytesStorageNtNtNtCsiayNrJ2aeI4_15move_vm_runtime7storage11environment22WithRuntimeEnvironment19runtime_environment
FN:519,_RNvXs3_NtNtCsh7qRzkv9eQQ_15nexus_execution12move_adapter12move_runtimeNtB5_17NexusBytesStorageNtNtNtCsdxsgQHs2RpZ_13move_vm_types4code7storage18ModuleBytesStorage18fetch_module_bytes
FN:545,_RNvXs4_NtNtCsh7qRzkv9eQQ_15nexus_execution12move_adapter12move_runtimeNtB5_17NexusBytesStorageNtNtCsdxsgQHs2RpZ_13move_vm_types8resolver16ResourceResolver43get_resource_bytes_with_metadata_and_layout
FN:354,_RNvXs_NtNtCsh7qRzkv9eQQ_15nexus_execution12move_adapter12move_runtimeNtB4_11MoveRuntimeNtB6_6MoveVm14execute_script
FN:264,_RNvXs_NtNtCsh7qRzkv9eQQ_15nexus_execution12move_adapter12move_runtimeNtB4_11MoveRuntimeNtB6_6MoveVm15publish_modules
FN:120,_RNvXs_NtNtCsh7qRzkv9eQQ_15nexus_execution12move_adapter12move_runtimeNtB4_11MoveRuntimeNtB6_6MoveVm16execute_function
FN:424,_RNCNCNvMs0_NtNtCsh7qRzkv9eQQ_15nexus_execution12move_adapter12move_runtimeNtB9_11MoveRuntime10query_views0_00Bd_
FN:609,_RNCNCNvNtNtCsh7qRzkv9eQQ_15nexus_execution12move_adapter12move_runtime21deserialize_type_args00B9_
FN:404,_RNCNvMs0_NtNtCsh7qRzkv9eQQ_15nexus_execution12move_adapter12move_runtimeNtB7_11MoveRuntime10query_view0Bb_
FN:420,_RNCNvMs0_NtNtCsh7qRzkv9eQQ_15nexus_execution12move_adapter12move_runtimeNtB7_11MoveRuntime10query_views0_0Bb_
FN:465,_RNCNvMs0_NtNtCsh7qRzkv9eQQ_15nexus_execution12move_adapter12move_runtimeNtB7_11MoveRuntime10query_views1_0Bb_
FN:467,_RNCNvMs0_NtNtCsh7qRzkv9eQQ_15nexus_execution12move_adapter12move_runtimeNtB7_11MoveRuntime10query_views2_0Bb_
FN:409,_RNCNvMs0_NtNtCsh7qRzkv9eQQ_15nexus_execution12move_adapter12move_runtimeNtB7_11MoveRuntime10query_views_0Bb_
FN:608,_RNCNvNtNtCsh7qRzkv9eQQ_15nexus_execution12move_adapter12move_runtime21deserialize_type_args0B7_
FN:553,_RNCNvXs4_NtNtCsh7qRzkv9eQQ_15nexus_execution12move_adapter12move_runtimeNtB7_17NexusBytesStorageNtNtCsdxsgQHs2RpZ_13move_vm_types8resolver16ResourceResolver43get_resource_bytes_with_metadata_and_layout0Bb_
FN:280,_RNCNvXs_NtNtCsh7qRzkv9eQQ_15nexus_execution12move_adapter12move_runtimeNtB6_11MoveRuntimeNtB8_6MoveVm15publish_modules0Ba_
FN:310,_RNCNvXs_NtNtCsh7qRzkv9eQQ_15nexus_execution12move_adapter12move_runtimeNtB6_11MoveRuntimeNtB8_6MoveVm15publish_moduless0_0Ba_
FN:302,_RNCNvXs_NtNtCsh7qRzkv9eQQ_15nexus_execution12move_adapter12move_runtimeNtB6_11MoveRuntimeNtB8_6MoveVm15publish_moduless_0Ba_
FN:233,_RNCNvXs_NtNtCsh7qRzkv9eQQ_15nexus_execution12move_adapter12move_runtimeNtB6_11MoveRuntimeNtB8_6MoveVm16execute_function0Ba_
FN:424,_RNCNCNvMs0_NtNtCs6aoit5jAd69_15nexus_execution12move_adapter12move_runtimeNtB9_11MoveRuntime10query_views0_00Bd_
FN:609,_RNCNCNvNtNtCs6aoit5jAd69_15nexus_execution12move_adapter12move_runtime21deserialize_type_args00B9_
FN:404,_RNCNvMs0_NtNtCs6aoit5jAd69_15nexus_execution12move_adapter12move_runtimeNtB7_11MoveRuntime10query_view0Bb_
FN:420,_RNCNvMs0_NtNtCs6aoit5jAd69_15nexus_execution12move_adapter12move_runtimeNtB7_11MoveRuntime10query_views0_0Bb_
FN:465,_RNCNvMs0_NtNtCs6aoit5jAd69_15nexus_execution12move_adapter12move_runtimeNtB7_11MoveRuntime10query_views1_0Bb_
FN:467,_RNCNvMs0_NtNtCs6aoit5jAd69_15nexus_execution12move_adapter12move_runtimeNtB7_11MoveRuntime10query_views2_0Bb_
FN:409,_RNCNvMs0_NtNtCs6aoit5jAd69_15nexus_execution12move_adapter12move_runtimeNtB7_11MoveRuntime10query_views_0Bb_
FN:608,_RNCNvNtNtCs6aoit5jAd69_15nexus_execution12move_adapter12move_runtime21deserialize_type_args0B7_
FN:553,_RNCNvXs4_NtNtCs6aoit5jAd69_15nexus_execution12move_adapter12move_runtimeNtB7_17NexusBytesStorageNtNtCsdxsgQHs2RpZ_13move_vm_types8resolver16ResourceResolver43get_resource_bytes_with_metadata_and_layout0Bb_
FN:280,_RNCNvXs_NtNtCs6aoit5jAd69_15nexus_execution12move_adapter12move_runtimeNtB6_11MoveRuntimeNtB8_6MoveVm15publish_modules0Ba_
FN:310,_RNCNvXs_NtNtCs6aoit5jAd69_15nexus_execution12move_adapter12move_runtimeNtB6_11MoveRuntimeNtB8_6MoveVm15publish_moduless0_0Ba_
FN:302,_RNCNvXs_NtNtCs6aoit5jAd69_15nexus_execution12move_adapter12move_runtimeNtB6_11MoveRuntimeNtB8_6MoveVm15publish_moduless_0Ba_
FN:233,_RNCNvXs_NtNtCs6aoit5jAd69_15nexus_execution12move_adapter12move_runtimeNtB6_11MoveRuntimeNtB8_6MoveVm16execute_function0Ba_
FN:107,_RNvMNtNtCs6aoit5jAd69_15nexus_execution12move_adapter12move_runtimeNtB2_11MoveRuntime3new
FN:391,_RNvMs0_NtNtCs6aoit5jAd69_15nexus_execution12move_adapter12move_runtimeNtB5_11MoveRuntime10query_view
FN:507,_RNvMs1_NtNtCs6aoit5jAd69_15nexus_execution12move_adapter12move_runtimeNtB5_17NexusBytesStorage3new
FN:618,_RNvNtNtCs6aoit5jAd69_15nexus_execution12move_adapter12move_runtime18changeset_to_nexus
FN:591,_RNvNtNtCs6aoit5jAd69_15nexus_execution12move_adapter12move_runtime19parse_function_name
FN:582,_RNvNtNtCs6aoit5jAd69_15nexus_execution12move_adapter12move_runtime21dependency_must_exist
FN:605,_RNvNtNtCs6aoit5jAd69_15nexus_execution12move_adapter12move_runtime21deserialize_type_args
FN:578,_RNvNtNtCs6aoit5jAd69_15nexus_execution12move_adapter12move_runtime21move_to_nexus_address
FN:573,_RNvNtNtCs6aoit5jAd69_15nexus_execution12move_adapter12move_runtime21nexus_to_move_address
FN:513,_RNvXs2_NtNtCs6aoit5jAd69_15nexus_execution12move_adapter12move_runtimeNtB5_17NexusBytesStorageNtNtNtCsiayNrJ2aeI4_15move_vm_runtime7storage11environment22WithRuntimeEnvironment19runtime_environment
FN:519,_RNvXs3_NtNtCs6aoit5jAd69_15nexus_execution12move_adapter12move_runtimeNtB5_17NexusBytesStorageNtNtNtCsdxsgQHs2RpZ_13move_vm_types4code7storage18ModuleBytesStorage18fetch_module_bytes
FN:545,_RNvXs4_NtNtCs6aoit5jAd69_15nexus_execution12move_adapter12move_runtimeNtB5_17NexusBytesStorageNtNtCsdxsgQHs2RpZ_13move_vm_types8resolver16ResourceResolver43get_resource_bytes_with_metadata_and_layout
FN:354,_RNvXs_NtNtCs6aoit5jAd69_15nexus_execution12move_adapter12move_runtimeNtB4_11MoveRuntimeNtB6_6MoveVm14execute_script
FN:264,_RNvXs_NtNtCs6aoit5jAd69_15nexus_execution12move_adapter12move_runtimeNtB4_11MoveRuntimeNtB6_6MoveVm15publish_modules
FN:120,_RNvXs_NtNtCs6aoit5jAd69_15nexus_execution12move_adapter12move_runtimeNtB4_11MoveRuntimeNtB6_6MoveVm16execute_function
FN:672,_RNvMNtNtNtCs6aoit5jAd69_15nexus_execution12move_adapter12move_runtime5testsNtB2_9TestState3new
FN:686,_RNvMNtNtNtCs6aoit5jAd69_15nexus_execution12move_adapter12move_runtime5testsNtB2_9TestState3set
FN:679,_RNvMNtNtNtCs6aoit5jAd69_15nexus_execution12move_adapter12move_runtime5testsNtB2_9TestState7failing
FN:708,_RNvNtNtNtCs6aoit5jAd69_15nexus_execution12move_adapter12move_runtime5tests16counter_deployer
FN:728,_RNvNtNtNtCs6aoit5jAd69_15nexus_execution12move_adapter12move_runtime5testss_22test_address_roundtrip
FN:716,_RNvNtNtNtCs6aoit5jAd69_15nexus_execution12move_adapter12move_runtime5testss_30test_parse_function_name_valid
FN:896,_RNvNtNtNtCs6aoit5jAd69_15nexus_execution12move_adapter12move_runtime5testss_30test_real_vm_counter_lifecycle
FN:723,_RNvNtNtNtCs6aoit5jAd69_15nexus_execution12move_adapter12move_runtime5testss_32test_parse_function_name_invalid
FN:794,_RNvNtNtNtCs6aoit5jAd69_15nexus_execution12move_adapter12move_runtime5testss_43test_query_view_rejects_invalid_identifiers
FN:749,_RNvNtNtNtCs6aoit5jAd69_15nexus_execution12move_adapter12move_runtime5testss_44test_deserialize_type_args_accepts_valid_bcs
FN:767,_RNvNtNtNtCs6aoit5jAd69_15nexus_execution12move_adapter12move_runtime5testss_45test_execute_script_returns_placeholder_abort
FN:756,_RNvNtNtNtCs6aoit5jAd69_15nexus_execution12move_adapter12move_runtime5testss_46test_deserialize_type_args_rejects_invalid_bcs
FN:736,_RNvNtNtNtCs6aoit5jAd69_15nexus_execution12move_adapter12move_runtime5testss_49test_dependency_policy_skips_sender_and_framework
FN:848,_RNvNtNtNtCs6aoit5jAd69_15nexus_execution12move_adapter12move_runtime5testss_50test_nexus_bytes_storage_propagates_storage_errors
FN:864,_RNvNtNtNtCs6aoit5jAd69_15nexus_execution12move_adapter12move_runtime5testss_50test_resource_resolver_reads_stored_resource_bytes
FN:970,_RNvNtNtNtCs6aoit5jAd69_15nexus_execution12move_adapter12move_runtime5testss_55test_execute_function_rejects_invalid_module_identifier
FN:999,_RNvNtNtNtCs6aoit5jAd69_15nexus_execution12move_adapter12move_runtime5testss_57test_execute_function_rejects_invalid_function_identifier
FN:1051,_RNvNtNtNtCs6aoit5jAd69_15nexus_execution12move_adapter12move_runtime5testss_58test_execute_function_gracefully_aborts_for_missing_module
FN:818,_RNvNtNtNtCs6aoit5jAd69_15nexus_execution12move_adapter12move_runtime5testss_59test_nexus_bytes_storage_fetches_framework_and_user_modules
FN:1081,_RNvNtNtNtCs6aoit5jAd69_15nexus_execution12move_adapter12move_runtime5testss_60test_nexus_bytes_storage_returns_none_for_absent_user_module
FN:1026,_RNvNtNtNtCs6aoit5jAd69_15nexus_execution12move_adapter12move_runtime5testss_63test_execute_function_propagates_type_arg_deserialization_error
FN:695,_RNvXs_NtNtNtCs6aoit5jAd69_15nexus_execution12move_adapter12move_runtime5testsNtB4_9TestStateNtNtBa_6traits9StateView3get
FNDA:6153,_RNvMNtNtCsh7qRzkv9eQQ_15nexus_execution12move_adapter12move_runtimeNtB2_11MoveRuntime3new
FNDA:0,_RNvMs0_NtNtCsh7qRzkv9eQQ_15nexus_execution12move_adapter12move_runtimeNtB5_11MoveRuntime10query_view
FNDA:0,_RNvMs1_NtNtCsh7qRzkv9eQQ_15nexus_execution12move_adapter12move_runtimeNtB5_17NexusBytesStorage3new
FNDA:0,_RNvNtNtCsh7qRzkv9eQQ_15nexus_execution12move_adapter12move_runtime18changeset_to_nexus
FNDA:17,_RNvNtNtCsh7qRzkv9eQQ_15nexus_execution12move_adapter12move_runtime19parse_function_name
FNDA:0,_RNvNtNtCsh7qRzkv9eQQ_15nexus_execution12move_adapter12move_runtime21dependency_must_exist
FNDA:0,_RNvNtNtCsh7qRzkv9eQQ_15nexus_execution12move_adapter12move_runtime21deserialize_type_args
FNDA:0,_RNvNtNtCsh7qRzkv9eQQ_15nexus_execution12move_adapter12move_runtime21move_to_nexus_address
FNDA:17,_RNvNtNtCsh7qRzkv9eQQ_15nexus_execution12move_adapter12move_runtime21nexus_to_move_address
FNDA:0,_RNvXs2_NtNtCsh7qRzkv9eQQ_15nexus_execution12move_adapter12move_runtimeNtB5_17NexusBytesStorageNtNtNtCsiayNrJ2aeI4_15move_vm_runtime7storage11environment22WithRuntimeEnvironment19runtime_environment
FNDA:0,_RNvXs3_NtNtCsh7qRzkv9eQQ_15nexus_execution12move_adapter12move_runtimeNtB5_17NexusBytesStorageNtNtNtCsdxsgQHs2RpZ_13move_vm_types4code7storage18ModuleBytesStorage18fetch_module_bytes
FNDA:0,_RNvXs4_NtNtCsh7qRzkv9eQQ_15nexus_execution12move_adapter12move_runtimeNtB5_17NexusBytesStorageNtNtCsdxsgQHs2RpZ_13move_vm_types8resolver16ResourceResolver43get_resource_bytes_with_metadata_and_layout
FNDA:0,_RNvXs_NtNtCsh7qRzkv9eQQ_15nexus_execution12move_adapter12move_runtimeNtB4_11MoveRuntimeNtB6_6MoveVm14execute_script
FNDA:17,_RNvXs_NtNtCsh7qRzkv9eQQ_15nexus_execution12move_adapter12move_runtimeNtB4_11MoveRuntimeNtB6_6MoveVm15publish_modules
FNDA:17,_RNvXs_NtNtCsh7qRzkv9eQQ_15nexus_execution12move_adapter12move_runtimeNtB4_11MoveRuntimeNtB6_6MoveVm16execute_function
FNDA:0,_RNCNCNvMs0_NtNtCsh7qRzkv9eQQ_15nexus_execution12move_adapter12move_runtimeNtB9_11MoveRuntime10query_views0_00Bd_
FNDA:0,_RNCNCNvNtNtCsh7qRzkv9eQQ_15nexus_execution12move_adapter12move_runtime21deserialize_type_args00B9_
FNDA:0,_RNCNvMs0_NtNtCsh7qRzkv9eQQ_15nexus_execution12move_adapter12move_runtimeNtB7_11MoveRuntime10query_view0Bb_
FNDA:0,_RNCNvMs0_NtNtCsh7qRzkv9eQQ_15nexus_execution12move_adapter12move_runtimeNtB7_11MoveRuntime10query_views0_0Bb_
FNDA:0,_RNCNvMs0_NtNtCsh7qRzkv9eQQ_15nexus_execution12move_adapter12move_runtimeNtB7_11MoveRuntime10query_views1_0Bb_
FNDA:0,_RNCNvMs0_NtNtCsh7qRzkv9eQQ_15nexus_execution12move_adapter12move_runtimeNtB7_11MoveRuntime10query_views2_0Bb_
FNDA:0,_RNCNvMs0_NtNtCsh7qRzkv9eQQ_15nexus_execution12move_adapter12move_runtimeNtB7_11MoveRuntime10query_views_0Bb_
FNDA:0,_RNCNvNtNtCsh7qRzkv9eQQ_15nexus_execution12move_adapter12move_runtime21deserialize_type_args0B7_
FNDA:0,_RNCNvXs4_NtNtCsh7qRzkv9eQQ_15nexus_execution12move_adapter12move_runtimeNtB7_17NexusBytesStorageNtNtCsdxsgQHs2RpZ_13move_vm_types8resolver16ResourceResolver43get_resource_bytes_with_metadata_and_layout0Bb_
FNDA:17,_RNCNvXs_NtNtCsh7qRzkv9eQQ_15nexus_execution12move_adapter12move_runtimeNtB6_11MoveRuntimeNtB8_6MoveVm15publish_modules0Ba_
FNDA:0,_RNCNvXs_NtNtCsh7qRzkv9eQQ_15nexus_execution12move_adapter12move_runtimeNtB6_11MoveRuntimeNtB8_6MoveVm15publish_moduless0_0Ba_
FNDA:0,_RNCNvXs_NtNtCsh7qRzkv9eQQ_15nexus_execution12move_adapter12move_runtimeNtB6_11MoveRuntimeNtB8_6MoveVm15publish_moduless_0Ba_
FNDA:0,_RNCNvXs_NtNtCsh7qRzkv9eQQ_15nexus_execution12move_adapter12move_runtimeNtB6_11MoveRuntimeNtB8_6MoveVm16execute_function0Ba_
FNDA:0,_RNCNCNvMs0_NtNtCs6aoit5jAd69_15nexus_execution12move_adapter12move_runtimeNtB9_11MoveRuntime10query_views0_00Bd_
FNDA:14,_RNCNCNvNtNtCs6aoit5jAd69_15nexus_execution12move_adapter12move_runtime21deserialize_type_args00B9_
FNDA:8,_RNCNvMs0_NtNtCs6aoit5jAd69_15nexus_execution12move_adapter12move_runtimeNtB7_11MoveRuntime10query_view0Bb_
FNDA:0,_RNCNvMs0_NtNtCs6aoit5jAd69_15nexus_execution12move_adapter12move_runtimeNtB7_11MoveRuntime10query_views0_0Bb_
FNDA:44,_RNCNvMs0_NtNtCs6aoit5jAd69_15nexus_execution12move_adapter12move_runtimeNtB7_11MoveRuntime10query_views1_0Bb_
FNDA:44,_RNCNvMs0_NtNtCs6aoit5jAd69_15nexus_execution12move_adapter12move_runtimeNtB7_11MoveRuntime10query_views2_0Bb_
FNDA:8,_RNCNvMs0_NtNtCs6aoit5jAd69_15nexus_execution12move_adapter12move_runtimeNtB7_11MoveRuntime10query_views_0Bb_
FNDA:22,_RNCNvNtNtCs6aoit5jAd69_15nexus_execution12move_adapter12move_runtime21deserialize_type_args0B7_
FNDA:0,_RNCNvXs4_NtNtCs6aoit5jAd69_15nexus_execution12move_adapter12move_runtimeNtB7_17NexusBytesStorageNtNtCsdxsgQHs2RpZ_13move_vm_types8resolver16ResourceResolver43get_resource_bytes_with_metadata_and_layout0Bb_
FNDA:0,_RNCNvXs_NtNtCs6aoit5jAd69_15nexus_execution12move_adapter12move_runtimeNtB6_11MoveRuntimeNtB8_6MoveVm15publish_modules0Ba_
FNDA:0,_RNCNvXs_NtNtCs6aoit5jAd69_15nexus_execution12move_adapter12move_runtimeNtB6_11MoveRuntimeNtB8_6MoveVm15publish_moduless0_0Ba_
FNDA:0,_RNCNvXs_NtNtCs6aoit5jAd69_15nexus_execution12move_adapter12move_runtimeNtB6_11MoveRuntimeNtB8_6MoveVm15publish_moduless_0Ba_
FNDA:0,_RNCNvXs_NtNtCs6aoit5jAd69_15nexus_execution12move_adapter12move_runtimeNtB6_11MoveRuntimeNtB8_6MoveVm16execute_function0Ba_
FNDA:1739,_RNvMNtNtCs6aoit5jAd69_15nexus_execution12move_adapter12move_runtimeNtB2_11MoveRuntime3new
FNDA:60,_RNvMs0_NtNtCs6aoit5jAd69_15nexus_execution12move_adapter12move_runtimeNtB5_11MoveRuntime10query_view
FNDA:148,_RNvMs1_NtNtCs6aoit5jAd69_15nexus_execution12move_adapter12move_runtimeNtB5_17NexusBytesStorage3new
FNDA:34,_RNvNtNtCs6aoit5jAd69_15nexus_execution12move_adapter12move_runtime18changeset_to_nexus
FNDA:146,_RNvNtNtCs6aoit5jAd69_15nexus_execution12move_adapter12move_runtime19parse_function_name
FNDA:42,_RNvNtNtCs6aoit5jAd69_15nexus_execution12move_adapter12move_runtime21dependency_must_exist
FNDA:106,_RNvNtNtCs6aoit5jAd69_15nexus_execution12move_adapter12move_runtime21deserialize_type_args
FNDA:274,_RNvNtNtCs6aoit5jAd69_15nexus_execution12move_adapter12move_runtime21move_to_nexus_address
FNDA:244,_RNvNtNtCs6aoit5jAd69_15nexus_execution12move_adapter12move_runtime21nexus_to_move_address
FNDA:2734,_RNvXs2_NtNtCs6aoit5jAd69_15nexus_execution12move_adapter12move_runtimeNtB5_17NexusBytesStorageNtNtNtCsiayNrJ2aeI4_15move_vm_runtime7storage11environment22WithRuntimeEnvironment19runtime_environment
FNDA:226,_RNvXs3_NtNtCs6aoit5jAd69_15nexus_execution12move_adapter12move_runtimeNtB5_17NexusBytesStorageNtNtNtCsdxsgQHs2RpZ_13move_vm_types4code7storage18ModuleBytesStorage18fetch_module_bytes
FNDA:86,_RNvXs4_NtNtCs6aoit5jAd69_15nexus_execution12move_adapter12move_runtimeNtB5_17NexusBytesStorageNtNtCsdxsgQHs2RpZ_13move_vm_types8resolver16ResourceResolver43get_resource_bytes_with_metadata_and_layout
FNDA:8,_RNvXs_NtNtCs6aoit5jAd69_15nexus_execution12move_adapter12move_runtimeNtB4_11MoveRuntimeNtB6_6MoveVm14execute_script
FNDA:34,_RNvXs_NtNtCs6aoit5jAd69_15nexus_execution12move_adapter12move_runtimeNtB4_11MoveRuntimeNtB6_6MoveVm15publish_modules
FNDA:58,_RNvXs_NtNtCs6aoit5jAd69_15nexus_execution12move_adapter12move_runtimeNtB4_11MoveRuntimeNtB6_6MoveVm16execute_function
FNDA:70,_RNvMNtNtNtCs6aoit5jAd69_15nexus_execution12move_adapter12move_runtime5testsNtB2_9TestState3new
FNDA:40,_RNvMNtNtNtCs6aoit5jAd69_15nexus_execution12move_adapter12move_runtime5testsNtB2_9TestState3set
FNDA:8,_RNvMNtNtNtCs6aoit5jAd69_15nexus_execution12move_adapter12move_runtime5testsNtB2_9TestState7failing
FNDA:54,_RNvNtNtNtCs6aoit5jAd69_15nexus_execution12move_adapter12move_runtime5tests16counter_deployer
FNDA:6,_RNvNtNtNtCs6aoit5jAd69_15nexus_execution12move_adapter12move_runtime5testss_22test_address_roundtrip
FNDA:6,_RNvNtNtNtCs6aoit5jAd69_15nexus_execution12move_adapter12move_runtime5testss_30test_parse_function_name_valid
FNDA:6,_RNvNtNtNtCs6aoit5jAd69_15nexus_execution12move_adapter12move_runtime5testss_30test_real_vm_counter_lifecycle
FNDA:6,_RNvNtNtNtCs6aoit5jAd69_15nexus_execution12move_adapter12move_runtime5testss_32test_parse_function_name_invalid
FNDA:6,_RNvNtNtNtCs6aoit5jAd69_15nexus_execution12move_adapter12move_runtime5testss_43test_query_view_rejects_invalid_identifiers
FNDA:6,_RNvNtNtNtCs6aoit5jAd69_15nexus_execution12move_adapter12move_runtime5testss_44test_deserialize_type_args_accepts_valid_bcs
FNDA:6,_RNvNtNtNtCs6aoit5jAd69_15nexus_execution12move_adapter12move_runtime5testss_45test_execute_script_returns_placeholder_abort
FNDA:6,_RNvNtNtNtCs6aoit5jAd69_15nexus_execution12move_adapter12move_runtime5testss_46test_deserialize_type_args_rejects_invalid_bcs
FNDA:6,_RNvNtNtNtCs6aoit5jAd69_15nexus_execution12move_adapter12move_runtime5testss_49test_dependency_policy_skips_sender_and_framework
FNDA:6,_RNvNtNtNtCs6aoit5jAd69_15nexus_execution12move_adapter12move_runtime5testss_50test_nexus_bytes_storage_propagates_storage_errors
FNDA:6,_RNvNtNtNtCs6aoit5jAd69_15nexus_execution12move_adapter12move_runtime5testss_50test_resource_resolver_reads_stored_resource_bytes
FNDA:4,_RNvNtNtNtCs6aoit5jAd69_15nexus_execution12move_adapter12move_runtime5testss_55test_execute_function_rejects_invalid_module_identifier
FNDA:4,_RNvNtNtNtCs6aoit5jAd69_15nexus_execution12move_adapter12move_runtime5testss_57test_execute_function_rejects_invalid_function_identifier
FNDA:4,_RNvNtNtNtCs6aoit5jAd69_15nexus_execution12move_adapter12move_runtime5testss_58test_execute_function_gracefully_aborts_for_missing_module
FNDA:6,_RNvNtNtNtCs6aoit5jAd69_15nexus_execution12move_adapter12move_runtime5testss_59test_nexus_bytes_storage_fetches_framework_and_user_modules
FNDA:4,_RNvNtNtNtCs6aoit5jAd69_15nexus_execution12move_adapter12move_runtime5testss_60test_nexus_bytes_storage_returns_none_for_absent_user_module
FNDA:4,_RNvNtNtNtCs6aoit5jAd69_15nexus_execution12move_adapter12move_runtime5testss_63test_execute_function_propagates_type_arg_deserialization_error
FNDA:54,_RNvXs_NtNtNtCs6aoit5jAd69_15nexus_execution12move_adapter12move_runtime5testsNtB4_9TestStateNtNtBa_6traits9StateView3get
FNF:50
FNH:44
DA:107,7892
DA:108,7892
DA:109,7892
DA:110,7892
DA:111,7892
DA:112,7892
DA:113,7892
DA:114,7892
DA:115,7892
DA:116,7892
DA:120,75
DA:121,75
DA:122,75
DA:123,75
DA:124,75
DA:125,75
DA:126,75
DA:127,75
DA:128,75
DA:129,75
DA:131,75
DA:132,58
DA:134,17
DA:135,17
DA:136,17
DA:137,17
DA:138,17
DA:139,17
DA:140,17
DA:141,17
DA:142,17
DA:146,58
DA:147,58
DA:148,52
DA:150,6
DA:151,6
DA:152,6
DA:153,6
DA:154,6
DA:155,6
DA:156,6
DA:157,6
DA:158,6
DA:161,52
DA:162,52
DA:163,46
DA:165,6
DA:166,6
DA:167,6
DA:168,6
DA:169,6
DA:170,6
DA:171,6
DA:172,6
DA:173,6
DA:178,46
DA:181,40
DA:182,40
DA:185,40
DA:186,34
DA:187,6
DA:188,6
DA:189,6
DA:190,6
DA:191,6
DA:192,6
DA:193,6
DA:194,6
DA:195,6
DA:196,6
DA:197,6
DA:198,6
DA:199,6
DA:204,34
DA:205,34
DA:206,34
DA:207,34
DA:208,34
DA:209,34
DA:210,34
DA:211,34
DA:212,34
DA:213,34
DA:214,34
DA:215,34
DA:216,34
DA:217,34
DA:218,34
DA:219,34
DA:220,34
DA:221,34
DA:222,34
DA:223,34
DA:224,34
DA:225,34
DA:226,34
DA:227,34
DA:228,34
DA:229,34
DA:230,34
DA:231,34
DA:233,34
DA:234,0
DA:235,34
DA:237,34
DA:238,34
DA:239,34
DA:240,34
DA:241,34
DA:242,34
DA:243,34
DA:244,34
DA:245,34
DA:246,34
DA:247,34
DA:249,0
DA:250,0
DA:251,0
DA:252,0
DA:253,0
DA:254,0
DA:255,0
DA:256,0
DA:257,0
DA:258,0
DA:259,0
DA:260,0
DA:262,75
DA:264,51
DA:265,51
DA:266,51
DA:267,51
DA:268,51
DA:269,51
DA:270,51
DA:271,51
DA:272,51
DA:273,51
DA:274,51
DA:275,51
DA:277,85
DA:279,34
DA:280,51
DA:281,17
DA:282,17
DA:283,17
DA:284,51
DA:287,34
DA:288,0
DA:289,0
DA:290,0
DA:291,34
DA:292,34
DA:293,34
DA:294,34
DA:295,34
DA:296,34
DA:297,34
DA:298,34
DA:299,34
DA:300,34
DA:301,34
DA:302,34
DA:303,0
DA:304,34
DA:307,34
DA:308,34
DA:309,34
DA:310,34
DA:311,0
DA:312,34
DA:313,34
DA:314,0
DA:315,0
DA:316,0
DA:317,34
DA:321,34
DA:322,34
DA:323,34
DA:324,34
DA:325,34
DA:326,34
DA:327,34
DA:328,34
DA:329,34
DA:330,34
DA:331,34
DA:332,34
DA:333,34
DA:334,34
DA:335,34
DA:336,34
DA:337,34
DA:338,34
DA:339,34
DA:340,34
DA:343,34
DA:344,34
DA:345,34
DA:346,34
DA:347,34
DA:348,34
DA:349,34
DA:350,34
DA:351,34
DA:352,51
DA:354,8
DA:355,8
DA:356,8
DA:357,8
DA:358,8
DA:359,8
DA:360,8
DA:361,8
DA:362,8
DA:363,8
DA:364,8
DA:365,8
DA:366,8
DA:367,8
DA:368,8
DA:369,8
DA:370,8
DA:371,8
DA:372,8
DA:373,8
DA:374,8
DA:375,8
DA:376,8
DA:391,60
DA:392,60
DA:393,60
DA:394,60
DA:395,60
DA:396,60
DA:397,60
DA:398,60
DA:399,60
DA:401,60
DA:402,52
DA:403,60
DA:404,60
DA:405,8
DA:406,60
DA:408,44
DA:409,52
DA:410,8
DA:411,52
DA:413,44
DA:415,44
DA:416,44
DA:418,44
DA:419,44
DA:420,44
DA:421,0
DA:422,0
DA:423,0
DA:424,0
DA:425,0
DA:426,0
DA:429,0
DA:430,0
DA:431,0
DA:433,0
DA:434,0
DA:435,0
DA:436,0
DA:437,44
DA:439,44
DA:440,44
DA:441,44
DA:442,44
DA:443,44
DA:444,44
DA:445,44
DA:446,44
DA:447,44
DA:448,44
DA:449,44
DA:450,44
DA:451,44
DA:452,44
DA:453,44
DA:454,44
DA:455,44
DA:456,44
DA:457,44
DA:458,44
DA:459,44
DA:460,44
DA:461,44
DA:462,44
DA:463,44
DA:464,44
DA:465,44
DA:466,44
DA:467,44
DA:468,44
DA:469,44
DA:470,44
DA:471,44
DA:472,44
DA:473,44
DA:474,44
DA:476,0
DA:477,0
DA:478,0
DA:479,0
DA:480,0
DA:481,0
DA:482,0
DA:484,0
DA:485,0
DA:486,0
DA:487,0
DA:490,60
DA:507,148
DA:508,148
DA:509,148
DA:513,2734
DA:514,2734
DA:515,2734
DA:519,226
DA:520,226
DA:521,226
DA:522,226
DA:523,226
DA:524,226
DA:525,226
DA:526,226
DA:527,120
DA:528,120
DA:529,0
DA:530,106
DA:533,106
DA:534,106
DA:535,86
DA:536,12
DA:537,8
DA:538,8
DA:539,8
DA:541,226
DA:545,86
DA:546,86
DA:547,86
DA:548,86
DA:549,86
DA:550,86
DA:551,86
DA:553,86
DA:554,0
DA:555,0
DA:556,86
DA:557,86
DA:558,86
DA:559,52
DA:560,52
DA:561,52
DA:563,34
DA:564,0
DA:565,0
DA:567,86
DA:573,261
DA:574,261
DA:575,261
DA:578,274
DA:579,274
DA:580,274
DA:582,42
DA:583,42
DA:584,42
DA:585,42
DA:586,42
DA:587,42
DA:588,42
DA:591,163
DA:592,163
DA:593,163
DA:594,31
DA:595,31
DA:596,31
DA:597,31
DA:598,31
DA:599,31
DA:600,132
DA:601,132
DA:602,163
DA:605,106
DA:606,106
DA:607,106
DA:608,106
DA:609,22
DA:610,14
DA:611,22
DA:612,106
DA:613,106
DA:614,106
DA:618,34
DA:619,34
DA:620,34
DA:621,34
DA:622,34
DA:623,34
DA:624,34
DA:625,34
DA:627,34
DA:628,34
DA:629,34
DA:630,34
DA:631,34
DA:632,34
DA:633,34
DA:634,34
DA:635,34
DA:636,34
DA:637,34
DA:638,34
DA:639,34
DA:640,34
DA:641,0
DA:642,0
DA:643,0
DA:644,0
DA:645,0
DA:646,0
DA:647,0
DA:648,0
DA:653,34
DA:654,34
DA:672,70
DA:673,70
DA:674,70
DA:675,70
DA:676,70
DA:677,70
DA:679,8
DA:680,8
DA:681,8
DA:682,8
DA:683,8
DA:684,8
DA:686,40
DA:687,40
DA:688,40
DA:689,40
DA:690,40
DA:691,40
DA:695,54
DA:696,54
DA:697,6
DA:698,48
DA:699,48
DA:700,48
DA:701,48
DA:702,48
DA:703,48
DA:704,48
DA:705,54
DA:708,54
DA:709,54
DA:710,54
DA:711,54
DA:712,54
DA:713,54
DA:716,6
DA:717,6
DA:718,6
DA:719,6
DA:720,6
DA:723,6
DA:724,6
DA:725,6
DA:728,6
DA:729,6
DA:730,6
DA:731,6
DA:732,6
DA:733,6
DA:736,6
DA:737,6
DA:738,6
DA:739,6
DA:740,6
DA:741,6
DA:742,6
DA:743,6
DA:744,6
DA:745,6
DA:746,6
DA:749,6
DA:750,6
DA:751,6
DA:752,6
DA:753,6
DA:756,6
DA:757,6
DA:758,6
DA:759,6
DA:760,6
DA:762,0
DA:764,6
DA:767,6
DA:768,6
DA:769,6
DA:770,6
DA:771,6
DA:772,6
DA:773,6
DA:774,6
DA:775,6
DA:776,6
DA:777,6
DA:778,6
DA:779,6
DA:780,6
DA:781,6
DA:782,6
DA:783,6
DA:784,6
DA:785,6
DA:786,6
DA:788,6
DA:789,6
DA:790,6
DA:791,6
DA:794,6
DA:795,6
DA:796,6
DA:797,6
DA:798,6
DA:799,6
DA:800,6
DA:801,6
DA:802,6
DA:803,6
DA:804,6
DA:805,6
DA:808,6
DA:809,6
DA:810,6
DA:811,6
DA:812,6
DA:813,6
DA:815,6
DA:818,6
DA:819,6
DA:820,6
DA:821,6
DA:822,6
DA:823,6
DA:824,6
DA:825,6
DA:826,6
DA:827,6
DA:828,6
DA:829,6
DA:830,6
DA:831,6
DA:832,6
DA:833,6
DA:834,6
DA:835,6
DA:836,6
DA:838,6
DA:839,6
DA:840,6
DA:841,6
DA:842,6
DA:843,6
DA:844,6
DA:845,6
DA:848,6
DA:849,6
DA:850,6
DA:851,6
DA:852,6
DA:853,6
DA:854,6
DA:855,6
DA:856,6
DA:857,6
DA:858,6
DA:859,6
DA:860,6
DA:861,6
DA:864,6
DA:865,6
DA:866,6
DA:867,6
DA:868,6
DA:869,6
DA:870,6
DA:871,6
DA:872,6
DA:873,6
DA:874,6
DA:875,6
DA:876,6
DA:877,6
DA:878,6
DA:879,6
DA:880,6
DA:881,6
DA:882,6
DA:883,6
DA:884,6
DA:885,6
DA:886,6
DA:887,6
DA:888,6
DA:889,6
DA:890,6
DA:891,6
DA:896,6
DA:897,6
DA:898,6
DA:899,6
DA:900,6
DA:901,6
DA:902,6
DA:903,6
DA:904,6
DA:905,6
DA:906,6
DA:907,6
DA:908,6
DA:909,6
DA:910,6
DA:911,6
DA:912,6
DA:913,6
DA:914,0
DA:919,18
DA:920,12
DA:921,12
DA:922,12
DA:926,6
DA:927,6
DA:928,6
DA:929,6
DA:930,6
DA:931,6
DA:932,6
DA:933,6
DA:934,6
DA:935,6
DA:936,6
DA:939,12
DA:940,6
DA:941,6
DA:942,6
DA:945,6
DA:946,6
DA:947,0
DA:952,6
DA:953,6
DA:954,6
DA:955,6
DA:956,6
DA:957,6
DA:958,6
DA:959,6
DA:960,6
DA:961,6
DA:963,6
DA:964,6
DA:965,6
DA:970,4
DA:971,4
DA:972,4
DA:973,4
DA:974,4
DA:975,4
DA:976,4
DA:977,4
DA:978,4
DA:979,4
DA:980,4
DA:981,4
DA:982,4
DA:983,4
DA:984,4
DA:985,4
DA:986,4
DA:987,4
DA:988,4
DA:989,4
DA:990,4
DA:991,4
DA:992,0
DA:995,4
DA:996,4
DA:999,4
DA:1000,4
DA:1001,4
DA:1002,4
DA:1003,4
DA:1004,4
DA:1005,4
DA:1006,4
DA:1007,4
DA:1008,4
DA:1009,4
DA:1010,4
DA:1011,4
DA:1012,4
DA:1013,4
DA:1014,4
DA:1015,4
DA:1016,4
DA:1017,4
DA:1018,4
DA:1019,4
DA:1020,0
DA:1023,4
DA:1026,4
DA:1027,4
DA:1028,4
DA:1029,4
DA:1030,4
DA:1031,4
DA:1032,4
DA:1033,4
DA:1034,4
DA:1035,4
DA:1036,4
DA:1037,4
DA:1038,4
DA:1039,4
DA:1040,4
DA:1041,4
DA:1042,4
DA:1043,4
DA:1044,4
DA:1045,0
DA:1048,4
DA:1051,4
DA:1052,4
DA:1053,4
DA:1054,4
DA:1055,4
DA:1056,4
DA:1057,4
DA:1058,4
DA:1059,4
DA:1060,4
DA:1061,4
DA:1062,4
DA:1063,4
DA:1064,4
DA:1065,4
DA:1066,4
DA:1067,4
DA:1068,4
DA:1069,4
DA:1070,4
DA:1071,4
DA:1072,4
DA:1073,4
DA:1074,0
DA:1077,4
DA:1078,4
DA:1081,4
DA:1082,4
DA:1083,4
DA:1084,4
DA:1085,4
DA:1086,4
DA:1087,4
DA:1088,4
DA:1089,4
DA:1090,4
DA:1091,4
DA:1092,4
DA:1093,4
DA:1094,4
DA:1095,4
DA:1096,4
DA:1097,4
BRF:0
BRH:0
LF:802
LH:717
end_of_record
SF:/Users/VD/Vootaa_Projects/vootaa-labs@github/nexus-node/crates/nexus-execution/src/move_adapter/nexus_vm.rs
FN:91,_RNvMNtNtCsh7qRzkv9eQQ_15nexus_execution12move_adapter8nexus_vmNtB2_11NexusMoveVm14dispatch_entry
FN:221,_RNvMNtNtCsh7qRzkv9eQQ_15nexus_execution12move_adapter8nexus_vmNtB2_11NexusMoveVm17read_u64_resource
FN:253,_RNvMNtNtCsh7qRzkv9eQQ_15nexus_execution12move_adapter8nexus_vmNtB2_11NexusMoveVm18write_resource_raw
FN:238,_RNvMNtNtCsh7qRzkv9eQQ_15nexus_execution12move_adapter8nexus_vmNtB2_11NexusMoveVm18write_u64_resource
FN:69,_RNvMNtNtCsh7qRzkv9eQQ_15nexus_execution12move_adapter8nexus_vmNtB2_11NexusMoveVm20resolve_function_abi
FN:60,_RNvMNtNtCsh7qRzkv9eQQ_15nexus_execution12move_adapter8nexus_vmNtB2_11NexusMoveVm3new
FN:446,_RNvXs_NtNtCsh7qRzkv9eQQ_15nexus_execution12move_adapter8nexus_vmNtB4_11NexusMoveVmNtB6_6MoveVm14execute_script
FN:369,_RNvXs_NtNtCsh7qRzkv9eQQ_15nexus_execution12move_adapter8nexus_vmNtB4_11NexusMoveVmNtB6_6MoveVm15publish_modules
FN:284,_RNvXs_NtNtCsh7qRzkv9eQQ_15nexus_execution12move_adapter8nexus_vmNtB4_11NexusMoveVmNtB6_6MoveVm16execute_function
FN:102,_RNCNvMNtNtCsh7qRzkv9eQQ_15nexus_execution12move_adapter8nexus_vmNtB4_11NexusMoveVm14dispatch_entry0B8_
FN:140,_RNCNvMNtNtCsh7qRzkv9eQQ_15nexus_execution12move_adapter8nexus_vmNtB4_11NexusMoveVm14dispatch_entrys0_0B8_
FN:171,_RNCNvMNtNtCsh7qRzkv9eQQ_15nexus_execution12move_adapter8nexus_vmNtB4_11NexusMoveVm14dispatch_entrys1_0B8_
FN:213,_RNCNvMNtNtCsh7qRzkv9eQQ_15nexus_execution12move_adapter8nexus_vmNtB4_11NexusMoveVm14dispatch_entrys2_0B8_
FN:137,_RNCNvMNtNtCsh7qRzkv9eQQ_15nexus_execution12move_adapter8nexus_vmNtB4_11NexusMoveVm14dispatch_entrys_0B8_
FN:229,_RNCNvMNtNtCsh7qRzkv9eQQ_15nexus_execution12move_adapter8nexus_vmNtB4_11NexusMoveVm17read_u64_resource0B8_
FN:232,_RNCNvMNtNtCsh7qRzkv9eQQ_15nexus_execution12move_adapter8nexus_vmNtB4_11NexusMoveVm17read_u64_resources_0B8_
FN:262,_RNCNvMNtNtCsh7qRzkv9eQQ_15nexus_execution12move_adapter8nexus_vmNtB4_11NexusMoveVm18write_resource_raw0B8_
FN:247,_RNCNvMNtNtCsh7qRzkv9eQQ_15nexus_execution12move_adapter8nexus_vmNtB4_11NexusMoveVm18write_u64_resource0B8_
FN:79,_RNCNvMNtNtCsh7qRzkv9eQQ_15nexus_execution12move_adapter8nexus_vmNtB4_11NexusMoveVm20resolve_function_abi0B8_
FN:82,_RNCNvMNtNtCsh7qRzkv9eQQ_15nexus_execution12move_adapter8nexus_vmNtB4_11NexusMoveVm20resolve_function_abis_0B8_
FN:406,_RNCNvXs_NtNtCsh7qRzkv9eQQ_15nexus_execution12move_adapter8nexus_vmNtB6_11NexusMoveVmNtB8_6MoveVm15publish_modules0Ba_
FN:417,_RNCNvXs_NtNtCsh7qRzkv9eQQ_15nexus_execution12move_adapter8nexus_vmNtB6_11NexusMoveVmNtB8_6MoveVm15publish_moduless_0Ba_
FN:91,_RNvMNtNtCs6aoit5jAd69_15nexus_execution12move_adapter8nexus_vmNtB2_11NexusMoveVm14dispatch_entry
FN:221,_RNvMNtNtCs6aoit5jAd69_15nexus_execution12move_adapter8nexus_vmNtB2_11NexusMoveVm17read_u64_resource
FN:253,_RNvMNtNtCs6aoit5jAd69_15nexus_execution12move_adapter8nexus_vmNtB2_11NexusMoveVm18write_resource_raw
FN:238,_RNvMNtNtCs6aoit5jAd69_15nexus_execution12move_adapter8nexus_vmNtB2_11NexusMoveVm18write_u64_resource
FN:69,_RNvMNtNtCs6aoit5jAd69_15nexus_execution12move_adapter8nexus_vmNtB2_11NexusMoveVm20resolve_function_abi
FN:60,_RNvMNtNtCs6aoit5jAd69_15nexus_execution12move_adapter8nexus_vmNtB2_11NexusMoveVm3new
FN:446,_RNvXs_NtNtCs6aoit5jAd69_15nexus_execution12move_adapter8nexus_vmNtB4_11NexusMoveVmNtB6_6MoveVm14execute_script
FN:369,_RNvXs_NtNtCs6aoit5jAd69_15nexus_execution12move_adapter8nexus_vmNtB4_11NexusMoveVmNtB6_6MoveVm15publish_modules
FN:284,_RNvXs_NtNtCs6aoit5jAd69_15nexus_execution12move_adapter8nexus_vmNtB4_11NexusMoveVmNtB6_6MoveVm16execute_function
FN:102,_RNCNvMNtNtCs6aoit5jAd69_15nexus_execution12move_adapter8nexus_vmNtB4_11NexusMoveVm14dispatch_entry0B8_
FN:140,_RNCNvMNtNtCs6aoit5jAd69_15nexus_execution12move_adapter8nexus_vmNtB4_11NexusMoveVm14dispatch_entrys0_0B8_
FN:171,_RNCNvMNtNtCs6aoit5jAd69_15nexus_execution12move_adapter8nexus_vmNtB4_11NexusMoveVm14dispatch_entrys1_0B8_
FN:213,_RNCNvMNtNtCs6aoit5jAd69_15nexus_execution12move_adapter8nexus_vmNtB4_11NexusMoveVm14dispatch_entrys2_0B8_
FN:137,_RNCNvMNtNtCs6aoit5jAd69_15nexus_execution12move_adapter8nexus_vmNtB4_11NexusMoveVm14dispatch_entrys_0B8_
FN:229,_RNCNvMNtNtCs6aoit5jAd69_15nexus_execution12move_adapter8nexus_vmNtB4_11NexusMoveVm17read_u64_resource0B8_
FN:232,_RNCNvMNtNtCs6aoit5jAd69_15nexus_execution12move_adapter8nexus_vmNtB4_11NexusMoveVm17read_u64_resources_0B8_
FN:262,_RNCNvMNtNtCs6aoit5jAd69_15nexus_execution12move_adapter8nexus_vmNtB4_11NexusMoveVm18write_resource_raw0B8_
FN:247,_RNCNvMNtNtCs6aoit5jAd69_15nexus_execution12move_adapter8nexus_vmNtB4_11NexusMoveVm18write_u64_resource0B8_
FN:79,_RNCNvMNtNtCs6aoit5jAd69_15nexus_execution12move_adapter8nexus_vmNtB4_11NexusMoveVm20resolve_function_abi0B8_
FN:82,_RNCNvMNtNtCs6aoit5jAd69_15nexus_execution12move_adapter8nexus_vmNtB4_11NexusMoveVm20resolve_function_abis_0B8_
FN:406,_RNCNvXs_NtNtCs6aoit5jAd69_15nexus_execution12move_adapter8nexus_vmNtB6_11NexusMoveVmNtB8_6MoveVm15publish_modules0Ba_
FN:417,_RNCNvXs_NtNtCs6aoit5jAd69_15nexus_execution12move_adapter8nexus_vmNtB6_11NexusMoveVmNtB8_6MoveVm15publish_moduless_0Ba_
FN:515,_RNCNvNtNtNtCs6aoit5jAd69_15nexus_execution12move_adapter8nexus_vm5tests23setup_contract_with_abi0B9_
FN:549,_RNCNvNtNtNtCs6aoit5jAd69_15nexus_execution12move_adapter8nexus_vm5testss_23publish_stores_metadata0B9_
FN:483,_RNvMNtNtNtCs6aoit5jAd69_15nexus_execution12move_adapter8nexus_vm5testsNtB2_8MemState3new
FN:488,_RNvMNtNtNtCs6aoit5jAd69_15nexus_execution12move_adapter8nexus_vm5testsNtB2_8MemState3set
FN:509,_RNvNtNtNtCs6aoit5jAd69_15nexus_execution12move_adapter8nexus_vm5tests23setup_contract_with_abi
FN:499,_RNvNtNtNtCs6aoit5jAd69_15nexus_execution12move_adapter8nexus_vm5tests4addr
FN:503,_RNvNtNtNtCs6aoit5jAd69_15nexus_execution12move_adapter8nexus_vm5tests7make_vm
FN:643,_RNvNtNtNtCs6aoit5jAd69_15nexus_execution12move_adapter8nexus_vm5testss_22execute_transfer_entry
FN:600,_RNvNtNtNtCs6aoit5jAd69_15nexus_execution12move_adapter8nexus_vm5testss_23execute_increment_entry
FN:528,_RNvNtNtNtCs6aoit5jAd69_15nexus_execution12move_adapter8nexus_vm5testss_23publish_stores_metadata
FN:625,_RNvNtNtNtCs6aoit5jAd69_15nexus_execution12move_adapter8nexus_vm5testss_26execute_arg_count_mismatch
FN:570,_RNvNtNtNtCs6aoit5jAd69_15nexus_execution12move_adapter8nexus_vm5testss_26execute_contract_not_found
FN:584,_RNvNtNtNtCs6aoit5jAd69_15nexus_execution12move_adapter8nexus_vm5testss_26execute_function_not_found
FN:742,_RNvNtNtNtCs6aoit5jAd69_15nexus_execution12move_adapter8nexus_vm5testss_31execute_script_is_not_supported
FN:757,_RNvNtNtNtCs6aoit5jAd69_15nexus_execution12move_adapter8nexus_vm5testss_33execute_getter_reads_u64_resource
FN:554,_RNvNtNtNtCs6aoit5jAd69_15nexus_execution12move_adapter8nexus_vm5testss_33publish_invalid_bytecode_rejected
FN:893,_RNvNtNtNtCs6aoit5jAd69_15nexus_execution12move_adapter8nexus_vm5testss_36dispatch_state_read_error_propagates
FN:783,_RNvNtNtNtCs6aoit5jAd69_15nexus_execution12move_adapter8nexus_vm5testss_36execute_generic_entry_stores_payload
FN:678,_RNvNtNtNtCs6aoit5jAd69_15nexus_execution12move_adapter8nexus_vm5testss_37execute_transfer_insufficient_balance
FN:845,_RNvNtNtNtCs6aoit5jAd69_15nexus_execution12move_adapter8nexus_vm5testss_42execute_function_corrupt_abi_returns_error
FN:815,_RNvNtNtNtCs6aoit5jAd69_15nexus_execution12move_adapter8nexus_vm5testss_43execute_generic_read_returns_resource_bytes
FN:729,_RNvNtNtNtCs6aoit5jAd69_15nexus_execution12move_adapter8nexus_vm5testss_48execute_function_gas_below_base_returns_outofgas
FN:881,_RNvNtNtNtCs6aoit5jAd69_15nexus_execution12move_adapter8nexus_vm5testss_49publish_modules_insufficient_gas_returns_outofgas
FN:861,_RNvNtNtNtCs6aoit5jAd69_15nexus_execution12move_adapter8nexus_vm5testss_52execute_corrupt_resource_bytes_returns_type_mismatch
FN:720,_RNvXs0_NtNtNtCs6aoit5jAd69_15nexus_execution12move_adapter8nexus_vm5testsNtB5_17ResourceFailStateNtNtBb_6traits9StateView3get
FN:494,_RNvXs_NtNtNtCs6aoit5jAd69_15nexus_execution12move_adapter8nexus_vm5testsNtB4_8MemStateNtNtBa_6traits9StateView3get
FNDA:0,_RNvMNtNtCsh7qRzkv9eQQ_15nexus_execution12move_adapter8nexus_vmNtB2_11NexusMoveVm14dispatch_entry
FNDA:0,_RNvMNtNtCsh7qRzkv9eQQ_15nexus_execution12move_adapter8nexus_vmNtB2_11NexusMoveVm17read_u64_resource
FNDA:0,_RNvMNtNtCsh7qRzkv9eQQ_15nexus_execution12move_adapter8nexus_vmNtB2_11NexusMoveVm18write_resource_raw
FNDA:0,_RNvMNtNtCsh7qRzkv9eQQ_15nexus_execution12move_adapter8nexus_vmNtB2_11NexusMoveVm18write_u64_resource
FNDA:0,_RNvMNtNtCsh7qRzkv9eQQ_15nexus_execution12move_adapter8nexus_vmNtB2_11NexusMoveVm20resolve_function_abi
FNDA:17,_RNvMNtNtCsh7qRzkv9eQQ_15nexus_execution12move_adapter8nexus_vmNtB2_11NexusMoveVm3new
FNDA:0,_RNvXs_NtNtCsh7qRzkv9eQQ_15nexus_execution12move_adapter8nexus_vmNtB4_11NexusMoveVmNtB6_6MoveVm14execute_script
FNDA:0,_RNvXs_NtNtCsh7qRzkv9eQQ_15nexus_execution12move_adapter8nexus_vmNtB4_11NexusMoveVmNtB6_6MoveVm15publish_modules
FNDA:0,_RNvXs_NtNtCsh7qRzkv9eQQ_15nexus_execution12move_adapter8nexus_vmNtB4_11NexusMoveVmNtB6_6MoveVm16execute_function
FNDA:0,_RNCNvMNtNtCsh7qRzkv9eQQ_15nexus_execution12move_adapter8nexus_vmNtB4_11NexusMoveVm14dispatch_entry0B8_
FNDA:0,_RNCNvMNtNtCsh7qRzkv9eQQ_15nexus_execution12move_adapter8nexus_vmNtB4_11NexusMoveVm14dispatch_entrys0_0B8_
FNDA:0,_RNCNvMNtNtCsh7qRzkv9eQQ_15nexus_execution12move_adapter8nexus_vmNtB4_11NexusMoveVm14dispatch_entrys1_0B8_
FNDA:0,_RNCNvMNtNtCsh7qRzkv9eQQ_15nexus_execution12move_adapter8nexus_vmNtB4_11NexusMoveVm14dispatch_entrys2_0B8_
FNDA:0,_RNCNvMNtNtCsh7qRzkv9eQQ_15nexus_execution12move_adapter8nexus_vmNtB4_11NexusMoveVm14dispatch_entrys_0B8_
FNDA:0,_RNCNvMNtNtCsh7qRzkv9eQQ_15nexus_execution12move_adapter8nexus_vmNtB4_11NexusMoveVm17read_u64_resource0B8_
FNDA:0,_RNCNvMNtNtCsh7qRzkv9eQQ_15nexus_execution12move_adapter8nexus_vmNtB4_11NexusMoveVm17read_u64_resources_0B8_
FNDA:0,_RNCNvMNtNtCsh7qRzkv9eQQ_15nexus_execution12move_adapter8nexus_vmNtB4_11NexusMoveVm18write_resource_raw0B8_
FNDA:0,_RNCNvMNtNtCsh7qRzkv9eQQ_15nexus_execution12move_adapter8nexus_vmNtB4_11NexusMoveVm18write_u64_resource0B8_
FNDA:0,_RNCNvMNtNtCsh7qRzkv9eQQ_15nexus_execution12move_adapter8nexus_vmNtB4_11NexusMoveVm20resolve_function_abi0B8_
FNDA:0,_RNCNvMNtNtCsh7qRzkv9eQQ_15nexus_execution12move_adapter8nexus_vmNtB4_11NexusMoveVm20resolve_function_abis_0B8_
FNDA:0,_RNCNvXs_NtNtCsh7qRzkv9eQQ_15nexus_execution12move_adapter8nexus_vmNtB6_11NexusMoveVmNtB8_6MoveVm15publish_modules0Ba_
FNDA:0,_RNCNvXs_NtNtCsh7qRzkv9eQQ_15nexus_execution12move_adapter8nexus_vmNtB6_11NexusMoveVmNtB8_6MoveVm15publish_moduless_0Ba_
FNDA:77,_RNvMNtNtCs6aoit5jAd69_15nexus_execution12move_adapter8nexus_vmNtB2_11NexusMoveVm14dispatch_entry
FNDA:70,_RNvMNtNtCs6aoit5jAd69_15nexus_execution12move_adapter8nexus_vmNtB2_11NexusMoveVm17read_u64_resource
FNDA:7,_RNvMNtNtCs6aoit5jAd69_15nexus_execution12move_adapter8nexus_vmNtB2_11NexusMoveVm18write_resource_raw
FNDA:42,_RNvMNtNtCs6aoit5jAd69_15nexus_execution12move_adapter8nexus_vmNtB2_11NexusMoveVm18write_u64_resource
FNDA:112,_RNvMNtNtCs6aoit5jAd69_15nexus_execution12move_adapter8nexus_vmNtB2_11NexusMoveVm20resolve_function_abi
FNDA:189,_RNvMNtNtCs6aoit5jAd69_15nexus_execution12move_adapter8nexus_vmNtB2_11NexusMoveVm3new
FNDA:7,_RNvXs_NtNtCs6aoit5jAd69_15nexus_execution12move_adapter8nexus_vmNtB4_11NexusMoveVmNtB6_6MoveVm14execute_script
FNDA:35,_RNvXs_NtNtCs6aoit5jAd69_15nexus_execution12move_adapter8nexus_vmNtB4_11NexusMoveVmNtB6_6MoveVm15publish_modules
FNDA:133,_RNvXs_NtNtCs6aoit5jAd69_15nexus_execution12move_adapter8nexus_vmNtB4_11NexusMoveVmNtB6_6MoveVm16execute_function
FNDA:0,_RNCNvMNtNtCs6aoit5jAd69_15nexus_execution12move_adapter8nexus_vmNtB4_11NexusMoveVm14dispatch_entry0B8_
FNDA:0,_RNCNvMNtNtCs6aoit5jAd69_15nexus_execution12move_adapter8nexus_vmNtB4_11NexusMoveVm14dispatch_entrys0_0B8_
FNDA:0,_RNCNvMNtNtCs6aoit5jAd69_15nexus_execution12move_adapter8nexus_vmNtB4_11NexusMoveVm14dispatch_entrys1_0B8_
FNDA:7,_RNCNvMNtNtCs6aoit5jAd69_15nexus_execution12move_adapter8nexus_vmNtB4_11NexusMoveVm14dispatch_entrys2_0B8_
FNDA:0,_RNCNvMNtNtCs6aoit5jAd69_15nexus_execution12move_adapter8nexus_vmNtB4_11NexusMoveVm14dispatch_entrys_0B8_
FNDA:0,_RNCNvMNtNtCs6aoit5jAd69_15nexus_execution12move_adapter8nexus_vmNtB4_11NexusMoveVm17read_u64_resource0B8_
FNDA:7,_RNCNvMNtNtCs6aoit5jAd69_15nexus_execution12move_adapter8nexus_vmNtB4_11NexusMoveVm17read_u64_resources_0B8_
FNDA:0,_RNCNvMNtNtCs6aoit5jAd69_15nexus_execution12move_adapter8nexus_vmNtB4_11NexusMoveVm18write_resource_raw0B8_
FNDA:0,_RNCNvMNtNtCs6aoit5jAd69_15nexus_execution12move_adapter8nexus_vmNtB4_11NexusMoveVm18write_u64_resource0B8_
FNDA:7,_RNCNvMNtNtCs6aoit5jAd69_15nexus_execution12move_adapter8nexus_vmNtB4_11NexusMoveVm20resolve_function_abi0B8_
FNDA:91,_RNCNvMNtNtCs6aoit5jAd69_15nexus_execution12move_adapter8nexus_vmNtB4_11NexusMoveVm20resolve_function_abis_0B8_
FNDA:14,_RNCNvXs_NtNtCs6aoit5jAd69_15nexus_execution12move_adapter8nexus_vmNtB6_11NexusMoveVmNtB8_6MoveVm15publish_modules0Ba_
FNDA:14,_RNCNvXs_NtNtCs6aoit5jAd69_15nexus_execution12move_adapter8nexus_vmNtB6_11NexusMoveVmNtB8_6MoveVm15publish_moduless_0Ba_
FNDA:91,_RNCNvNtNtNtCs6aoit5jAd69_15nexus_execution12move_adapter8nexus_vm5tests23setup_contract_with_abi0B9_
FNDA:23,_RNCNvNtNtNtCs6aoit5jAd69_15nexus_execution12move_adapter8nexus_vm5testss_23publish_stores_metadata0B9_
FNDA:175,_RNvMNtNtNtCs6aoit5jAd69_15nexus_execution12move_adapter8nexus_vm5testsNtB2_8MemState3new
FNDA:245,_RNvMNtNtNtCs6aoit5jAd69_15nexus_execution12move_adapter8nexus_vm5testsNtB2_8MemState3set
FNDA:91,_RNvNtNtNtCs6aoit5jAd69_15nexus_execution12move_adapter8nexus_vm5tests23setup_contract_with_abi
FNDA:364,_RNvNtNtNtCs6aoit5jAd69_15nexus_execution12move_adapter8nexus_vm5tests4addr
FNDA:175,_RNvNtNtNtCs6aoit5jAd69_15nexus_execution12move_adapter8nexus_vm5tests7make_vm
FNDA:7,_RNvNtNtNtCs6aoit5jAd69_15nexus_execution12move_adapter8nexus_vm5testss_22execute_transfer_entry
FNDA:7,_RNvNtNtNtCs6aoit5jAd69_15nexus_execution12move_adapter8nexus_vm5testss_23execute_increment_entry
FNDA:7,_RNvNtNtNtCs6aoit5jAd69_15nexus_execution12move_adapter8nexus_vm5testss_23publish_stores_metadata
FNDA:7,_RNvNtNtNtCs6aoit5jAd69_15nexus_execution12move_adapter8nexus_vm5testss_26execute_arg_count_mismatch
FNDA:7,_RNvNtNtNtCs6aoit5jAd69_15nexus_execution12move_adapter8nexus_vm5testss_26execute_contract_not_found
FNDA:7,_RNvNtNtNtCs6aoit5jAd69_15nexus_execution12move_adapter8nexus_vm5testss_26execute_function_not_found
FNDA:7,_RNvNtNtNtCs6aoit5jAd69_15nexus_execution12move_adapter8nexus_vm5testss_31execute_script_is_not_supported
FNDA:6,_RNvNtNtNtCs6aoit5jAd69_15nexus_execution12move_adapter8nexus_vm5testss_33execute_getter_reads_u64_resource
FNDA:7,_RNvNtNtNtCs6aoit5jAd69_15nexus_execution12move_adapter8nexus_vm5testss_33publish_invalid_bytecode_rejected
FNDA:6,_RNvNtNtNtCs6aoit5jAd69_15nexus_execution12move_adapter8nexus_vm5testss_36dispatch_state_read_error_propagates
FNDA:6,_RNvNtNtNtCs6aoit5jAd69_15nexus_execution12move_adapter8nexus_vm5testss_36execute_generic_entry_stores_payload
FNDA:7,_RNvNtNtNtCs6aoit5jAd69_15nexus_execution12move_adapter8nexus_vm5testss_37execute_transfer_insufficient_balance
FNDA:6,_RNvNtNtNtCs6aoit5jAd69_15nexus_execution12move_adapter8nexus_vm5testss_42execute_function_corrupt_abi_returns_error
FNDA:6,_RNvNtNtNtCs6aoit5jAd69_15nexus_execution12move_adapter8nexus_vm5testss_43execute_generic_read_returns_resource_bytes
FNDA:7,_RNvNtNtNtCs6aoit5jAd69_15nexus_execution12move_adapter8nexus_vm5testss_48execute_function_gas_below_base_returns_outofgas
FNDA:6,_RNvNtNtNtCs6aoit5jAd69_15nexus_execution12move_adapter8nexus_vm5testss_49publish_modules_insufficient_gas_returns_outofgas
FNDA:6,_RNvNtNtNtCs6aoit5jAd69_15nexus_execution12move_adapter8nexus_vm5testss_52execute_corrupt_resource_bytes_returns_type_mismatch
FNDA:21,_RNvXs0_NtNtNtCs6aoit5jAd69_15nexus_execution12move_adapter8nexus_vm5testsNtB5_17ResourceFailStateNtNtBb_6traits9StateView3get
FNDA:336,_RNvXs_NtNtNtCs6aoit5jAd69_15nexus_execution12move_adapter8nexus_vm5testsNtB4_8MemStateNtNtBa_6traits9StateView3get
FNF:48
FNH:41
DA:60,206
DA:61,206
DA:62,206
DA:63,206
DA:64,206
DA:65,206
DA:66,206
DA:69,112
DA:70,112
DA:71,112
DA:72,112
DA:73,112
DA:74,112
DA:75,112
DA:76,112
DA:77,14
DA:79,98
DA:80,7
DA:81,98
DA:82,91
DA:83,112
DA:91,77
DA:92,77
DA:93,77
DA:94,77
DA:95,77
DA:96,77
DA:97,77
DA:98,77
DA:99,77
DA:100,77
DA:101,77
DA:102,77
DA:105,77
DA:106,77
DA:107,77
DA:108,77
DA:109,77
DA:111,56
DA:112,21
DA:113,14
DA:114,14
DA:117,14
DA:118,14
DA:119,14
DA:120,14
DA:121,14
DA:122,14
DA:126,21
DA:127,7
DA:128,7
DA:132,35
DA:133,28
DA:134,28
DA:135,28
DA:136,28
DA:137,28
DA:139,28
DA:140,28
DA:143,28
DA:146,28
DA:147,28
DA:148,28
DA:149,14
DA:150,14
DA:151,14
DA:152,14
DA:153,14
DA:154,14
DA:155,14
DA:156,14
DA:157,14
DA:158,14
DA:159,14
DA:162,14
DA:163,14
DA:164,14
DA:165,14
DA:166,14
DA:167,14
DA:168,14
DA:170,14
DA:171,14
DA:172,0
DA:173,0
DA:174,14
DA:175,14
DA:176,14
DA:177,14
DA:178,14
DA:182,7
DA:183,7
DA:185,0
DA:186,0
DA:187,0
DA:191,7
DA:192,14
DA:193,7
DA:194,7
DA:195,7
DA:197,7
DA:198,7
DA:199,7
DA:200,7
DA:204,14
DA:205,14
DA:207,0
DA:208,0
DA:209,0
DA:211,14
DA:212,14
DA:213,14
DA:214,7
DA:217,77
DA:221,70
DA:222,70
DA:223,70
DA:224,70
DA:225,70
DA:226,70
DA:227,70
DA:228,70
DA:229,70
DA:230,70
DA:231,28
DA:232,28
DA:234,42
DA:236,70
DA:238,42
DA:239,42
DA:240,42
DA:241,42
DA:242,42
DA:243,42
DA:244,42
DA:245,42
DA:246,42
DA:247,42
DA:248,0
DA:249,0
DA:250,42
DA:251,42
DA:253,7
DA:254,7
DA:255,7
DA:256,7
DA:257,7
DA:258,7
DA:259,7
DA:260,7
DA:261,7
DA:262,7
DA:263,0
DA:264,0
DA:265,7
DA:266,7
DA:284,133
DA:285,133
DA:286,133
DA:287,133
DA:288,133
DA:289,133
DA:290,133
DA:291,133
DA:292,133
DA:293,133
DA:294,133
DA:295,133
DA:296,133
DA:297,7
DA:298,7
DA:299,7
DA:300,7
DA:301,7
DA:302,7
DA:303,126
DA:304,126
DA:305,126
DA:306,126
DA:307,14
DA:308,14
DA:309,14
DA:310,14
DA:311,14
DA:312,14
DA:313,14
DA:314,14
DA:315,14
DA:316,112
DA:319,112
DA:320,105
DA:321,14
DA:322,14
DA:323,14
DA:324,14
DA:325,14
DA:326,14
DA:327,14
DA:328,14
DA:329,14
DA:333,91
DA:334,14
DA:335,14
DA:336,14
DA:337,14
DA:338,77
DA:339,77
DA:340,77
DA:341,77
DA:342,77
DA:343,77
DA:344,77
DA:345,77
DA:346,77
DA:347,77
DA:348,77
DA:349,77
DA:350,77
DA:351,49
DA:352,0
DA:353,0
DA:354,0
DA:355,0
DA:356,14
DA:357,14
DA:359,7
DA:360,7
DA:361,7
DA:362,7
DA:363,7
DA:364,7
DA:365,7
DA:367,133
DA:369,35
DA:370,35
DA:371,35
DA:372,35
DA:373,35
DA:374,35
DA:375,35
DA:377,35
DA:378,14
DA:379,14
DA:380,14
DA:381,14
DA:382,14
DA:383,14
DA:384,14
DA:385,14
DA:386,14
DA:387,21
DA:388,21
DA:389,21
DA:390,21
DA:391,21
DA:394,21
DA:395,7
DA:396,14
DA:397,14
DA:398,14
DA:399,14
DA:400,14
DA:401,14
DA:402,14
DA:403,14
DA:404,14
DA:405,14
DA:406,14
DA:407,14
DA:408,14
DA:409,14
DA:410,14
DA:411,14
DA:412,14
DA:413,14
DA:414,14
DA:415,14
DA:416,14
DA:417,14
DA:418,14
DA:419,14
DA:420,14
DA:421,14
DA:422,14
DA:423,14
DA:424,14
DA:425,14
DA:426,14
DA:427,14
DA:428,14
DA:429,14
DA:431,14
DA:432,14
DA:433,14
DA:434,14
DA:435,14
DA:436,14
DA:437,14
DA:438,14
DA:439,14
DA:440,14
DA:441,14
DA:443,14
DA:444,35
DA:446,7
DA:447,7
DA:448,7
DA:449,7
DA:450,7
DA:451,7
DA:452,7
DA:453,7
DA:454,7
DA:455,7
DA:456,7
DA:457,7
DA:458,7
DA:459,7
DA:460,7
DA:461,7
DA:462,7
DA:463,7
DA:464,7
DA:465,7
DA:483,175
DA:484,175
DA:485,175
DA:486,175
DA:487,175
DA:488,245
DA:489,245
DA:490,245
DA:494,336
DA:495,336
DA:496,336
DA:499,364
DA:500,364
DA:501,364
DA:503,175
DA:504,175
DA:505,175
DA:509,91
DA:510,91
DA:511,91
DA:512,91
DA:513,91
DA:514,91
DA:515,91
DA:516,91
DA:517,91
DA:518,91
DA:519,91
DA:520,91
DA:521,91
DA:522,91
DA:523,91
DA:528,7
DA:529,7
DA:530,7
DA:531,7
DA:532,7
DA:533,7
DA:534,7
DA:535,7
DA:536,7
DA:537,7
DA:539,7
DA:540,7
DA:541,0
DA:542,0
DA:546,7
DA:547,7
DA:548,7
DA:549,23
DA:550,7
DA:551,7
DA:554,7
DA:555,7
DA:556,7
DA:557,7
DA:558,7
DA:559,7
DA:560,7
DA:561,7
DA:562,7
DA:565,7
DA:570,7
DA:571,7
DA:572,7
DA:573,7
DA:574,7
DA:575,7
DA:576,7
DA:577,7
DA:578,7
DA:581,7
DA:584,7
DA:585,7
DA:586,7
DA:587,7
DA:588,7
DA:589,7
DA:590,7
DA:591,7
DA:592,7
DA:593,7
DA:594,7
DA:597,7
DA:600,7
DA:601,7
DA:602,7
DA:603,7
DA:604,7
DA:605,7
DA:606,7
DA:607,7
DA:608,7
DA:609,7
DA:610,7
DA:611,7
DA:612,7
DA:613,7
DA:614,7
DA:615,7
DA:616,7
DA:617,7
DA:618,7
DA:619,0
DA:621,7
DA:622,7
DA:625,7
DA:626,7
DA:627,7
DA:628,7
DA:629,7
DA:630,7
DA:631,7
DA:632,7
DA:633,7
DA:634,7
DA:635,7
DA:636,7
DA:637,7
DA:638,7
DA:639,7
DA:640,7
DA:643,7
DA:644,7
DA:645,7
DA:646,7
DA:647,7
DA:648,7
DA:649,7
DA:650,7
DA:651,7
DA:652,7
DA:653,7
DA:654,7
DA:655,7
DA:656,7
DA:657,7
DA:658,7
DA:659,7
DA:660,7
DA:661,7
DA:662,7
DA:663,7
DA:664,7
DA:665,7
DA:666,7
DA:667,7
DA:668,7
DA:669,7
DA:670,7
DA:671,7
DA:672,7
DA:673,7
DA:674,7
DA:675,7
DA:678,7
DA:679,7
DA:680,7
DA:681,7
DA:682,7
DA:683,7
DA:684,7
DA:685,7
DA:686,7
DA:687,7
DA:688,7
DA:689,7
DA:690,7
DA:691,7
DA:692,7
DA:693,7
DA:694,7
DA:695,7
DA:696,7
DA:697,7
DA:698,7
DA:699,7
DA:700,7
DA:701,7
DA:702,7
DA:703,7
DA:704,7
DA:705,7
DA:706,7
DA:709,7
DA:720,21
DA:721,21
DA:722,7
DA:723,14
DA:724,14
DA:725,21
DA:729,7
DA:730,7
DA:731,7
DA:732,7
DA:733,7
DA:734,7
DA:735,7
DA:736,7
DA:737,7
DA:738,7
DA:739,7
DA:742,7
DA:743,7
DA:744,7
DA:745,7
DA:746,7
DA:747,7
DA:748,7
DA:749,7
DA:750,7
DA:753,7
DA:754,7
DA:757,6
DA:758,6
DA:759,6
DA:760,6
DA:761,6
DA:762,6
DA:763,6
DA:764,6
DA:765,6
DA:766,6
DA:767,6
DA:768,6
DA:769,6
DA:770,6
DA:771,6
DA:772,6
DA:773,6
DA:774,6
DA:775,6
DA:776,6
DA:777,6
DA:778,6
DA:779,6
DA:780,6
DA:783,6
DA:784,6
DA:785,6
DA:786,6
DA:787,6
DA:788,6
DA:789,6
DA:790,6
DA:791,6
DA:792,6
DA:793,6
DA:794,6
DA:795,6
DA:796,6
DA:797,6
DA:798,6
DA:799,6
DA:800,6
DA:801,6
DA:802,6
DA:803,6
DA:804,6
DA:805,6
DA:806,6
DA:807,6
DA:808,6
DA:809,6
DA:810,0
DA:812,6
DA:815,6
DA:816,6
DA:817,6
DA:818,6
DA:819,6
DA:820,6
DA:821,6
DA:822,6
DA:823,6
DA:824,6
DA:825,6
DA:826,6
DA:827,6
DA:828,6
DA:829,6
DA:830,6
DA:831,6
DA:832,6
DA:833,6
DA:834,6
DA:835,6
DA:836,6
DA:837,6
DA:838,6
DA:839,6
DA:840,6
DA:841,6
DA:842,6
DA:845,6
DA:846,6
DA:847,6
DA:848,6
DA:849,6
DA:850,6
DA:851,6
DA:852,6
DA:853,6
DA:854,6
DA:855,6
DA:858,6
DA:861,6
DA:862,6
DA:863,6
DA:864,6
DA:865,6
DA:866,6
DA:867,6
DA:868,6
DA:869,6
DA:870,6
DA:871,6
DA:872,6
DA:873,6
DA:874,6
DA:875,6
DA:876,6
DA:877,6
DA:878,6
DA:881,6
DA:882,6
DA:883,6
DA:884,6
DA:885,6
DA:886,6
DA:887,6
DA:888,6
DA:889,6
DA:890,6
DA:893,6
DA:894,6
DA:895,6
DA:896,6
DA:897,6
DA:898,6
DA:899,6
DA:900,6
DA:901,6
DA:902,6
DA:903,6
DA:904,6
DA:905,6
DA:906,6
DA:907,6
DA:908,6
DA:909,6
DA:910,6
DA:911,6
DA:912,6
DA:913,6
DA:914,6
DA:915,6
DA:916,6
DA:917,6
DA:918,6
BRF:0
BRH:0
LF:704
LH:674
end_of_record
SF:/Users/VD/Vootaa_Projects/vootaa-labs@github/nexus-node/crates/nexus-execution/src/move_adapter/package.rs
FN:78,_RNvNtNtCsh7qRzkv9eQQ_15nexus_execution12move_adapter7package15decode_metadata
FN:72,_RNvNtNtCsh7qRzkv9eQQ_15nexus_execution12move_adapter7package15encode_metadata
FN:40,_RNvXNtNtCsh7qRzkv9eQQ_15nexus_execution12move_adapter7packageNtB2_13UpgradePolicyNtNtCslNfmTnNkGed_4core7default7Default7default
FN:78,_RNvNtNtCs6aoit5jAd69_15nexus_execution12move_adapter7package15decode_metadata
FN:72,_RNvNtNtCs6aoit5jAd69_15nexus_execution12move_adapter7package15encode_metadata
FN:40,_RNvXNtNtCs6aoit5jAd69_15nexus_execution12move_adapter7packageNtB2_13UpgradePolicyNtNtCslNfmTnNkGed_4core7default7Default7default
FN:86,_RNvNtNtNtCs6aoit5jAd69_15nexus_execution12move_adapter7package5tests15sample_metadata
FN:100,_RNvNtNtNtCs6aoit5jAd69_15nexus_execution12move_adapter7package5testss_19metadata_round_trip
FN:108,_RNvNtNtNtCs6aoit5jAd69_15nexus_execution12move_adapter7package5testss_35upgrade_policy_default_is_immutable
FNDA:0,_RNvNtNtCsh7qRzkv9eQQ_15nexus_execution12move_adapter7package15decode_metadata
FNDA:0,_RNvNtNtCsh7qRzkv9eQQ_15nexus_execution12move_adapter7package15encode_metadata
FNDA:0,_RNvXNtNtCsh7qRzkv9eQQ_15nexus_execution12move_adapter7packageNtB2_13UpgradePolicyNtNtCslNfmTnNkGed_4core7default7Default7default
FNDA:14,_RNvNtNtCs6aoit5jAd69_15nexus_execution12move_adapter7package15decode_metadata
FNDA:28,_RNvNtNtCs6aoit5jAd69_15nexus_execution12move_adapter7package15encode_metadata
FNDA:14,_RNvXNtNtCs6aoit5jAd69_15nexus_execution12move_adapter7packageNtB2_13UpgradePolicyNtNtCslNfmTnNkGed_4core7default7Default7default
FNDA:14,_RNvNtNtNtCs6aoit5jAd69_15nexus_execution12move_adapter7package5tests15sample_metadata
FNDA:14,_RNvNtNtNtCs6aoit5jAd69_15nexus_execution12move_adapter7package5testss_19metadata_round_trip
FNDA:14,_RNvNtNtNtCs6aoit5jAd69_15nexus_execution12move_adapter7package5testss_35upgrade_policy_default_is_immutable
FNF:6
FNH:6
DA:40,14
DA:41,14
DA:42,14
DA:72,28
DA:73,28
DA:74,28
DA:78,14
DA:79,14
DA:80,14
DA:86,14
DA:87,14
DA:88,14
DA:89,14
DA:90,14
DA:91,14
DA:92,14
DA:93,14
DA:94,14
DA:95,14
DA:96,14
DA:97,14
DA:100,14
DA:101,14
DA:102,14
DA:103,14
DA:104,14
DA:105,14
DA:108,14
DA:109,14
DA:110,14
BRF:0
BRH:0
LF:30
LH:30
end_of_record
SF:/Users/VD/Vootaa_Projects/vootaa-labs@github/nexus-node/crates/nexus-execution/src/move_adapter/publisher.rs
FN:107,_RNCNvMNtNtCsh7qRzkv9eQQ_15nexus_execution12move_adapter9publisherNtB4_15ModulePublisher7publish0B8_
FN:84,_RNvMNtNtCsh7qRzkv9eQQ_15nexus_execution12move_adapter9publisherNtB2_15ModulePublisher3new
FN:99,_RNvMNtNtCsh7qRzkv9eQQ_15nexus_execution12move_adapter9publisherNtB2_15ModulePublisher7publish
FN:57,_RNvNtNtCsh7qRzkv9eQQ_15nexus_execution12move_adapter9publisher23derive_contract_address
FN:401,_RNCNvNtNtNtCs6aoit5jAd69_15nexus_execution12move_adapter9publisher5testss_28publish_multiple_modules_gas0B9_
FN:363,_RNCNvNtNtNtCs6aoit5jAd69_15nexus_execution12move_adapter9publisher5testss_34publish_duplicate_address_rejected0B9_
FN:84,_RNvMNtNtCs6aoit5jAd69_15nexus_execution12move_adapter9publisherNtB2_15ModulePublisher3new
FN:99,_RNvMNtNtCs6aoit5jAd69_15nexus_execution12move_adapter9publisherNtB2_15ModulePublisher7publish
FN:57,_RNvNtNtCs6aoit5jAd69_15nexus_execution12move_adapter9publisher23derive_contract_address
FN:242,_RNvMNtNtNtCs6aoit5jAd69_15nexus_execution12move_adapter9publisher5testsNtB2_8MemState3new
FN:248,_RNvMNtNtNtCs6aoit5jAd69_15nexus_execution12move_adapter9publisher5testsNtB2_8MemState3set
FN:259,_RNvNtNtNtCs6aoit5jAd69_15nexus_execution12move_adapter9publisher5tests4addr
FN:263,_RNvNtNtNtCs6aoit5jAd69_15nexus_execution12move_adapter9publisher5tests8schedule
FN:382,_RNvNtNtNtCs6aoit5jAd69_15nexus_execution12move_adapter9publisher5testss_18publish_out_of_gas
FN:275,_RNvNtNtNtCs6aoit5jAd69_15nexus_execution12move_adapter9publisher5testss_28derive_address_deterministic
FN:394,_RNvNtNtNtCs6aoit5jAd69_15nexus_execution12move_adapter9publisher5testss_28publish_multiple_modules_gas
FN:302,_RNvNtNtNtCs6aoit5jAd69_15nexus_execution12move_adapter9publisher5testss_31publish_success_stores_all_keys
FN:292,_RNvNtNtNtCs6aoit5jAd69_15nexus_execution12move_adapter9publisher5testss_33derive_address_different_bytecode
FN:284,_RNvNtNtNtCs6aoit5jAd69_15nexus_execution12move_adapter9publisher5testss_34derive_address_different_deployers
FN:357,_RNvNtNtNtCs6aoit5jAd69_15nexus_execution12move_adapter9publisher5testss_34publish_duplicate_address_rejected
FN:336,_RNvNtNtNtCs6aoit5jAd69_15nexus_execution12move_adapter9publisher5testss_47publish_stores_under_derived_address_not_sender
FN:254,_RNvXs_NtNtNtCs6aoit5jAd69_15nexus_execution12move_adapter9publisher5testsNtB4_8MemStateNtNtBa_6traits9StateView3get
FN:107,_RNCNvMNtNtCs6aoit5jAd69_15nexus_execution12move_adapter9publisherNtB4_15ModulePublisher7publish0B8_
FNDA:0,_RNCNvMNtNtCsh7qRzkv9eQQ_15nexus_execution12move_adapter9publisherNtB4_15ModulePublisher7publish0B8_
FNDA:0,_RNvMNtNtCsh7qRzkv9eQQ_15nexus_execution12move_adapter9publisherNtB2_15ModulePublisher3new
FNDA:0,_RNvMNtNtCsh7qRzkv9eQQ_15nexus_execution12move_adapter9publisherNtB2_15ModulePublisher7publish
FNDA:0,_RNvNtNtCsh7qRzkv9eQQ_15nexus_execution12move_adapter9publisher23derive_contract_address
FNDA:28,_RNCNvNtNtNtCs6aoit5jAd69_15nexus_execution12move_adapter9publisher5testss_28publish_multiple_modules_gas0B9_
FNDA:14,_RNCNvNtNtNtCs6aoit5jAd69_15nexus_execution12move_adapter9publisher5testss_34publish_duplicate_address_rejected0B9_
FNDA:133,_RNvMNtNtCs6aoit5jAd69_15nexus_execution12move_adapter9publisherNtB2_15ModulePublisher3new
FNDA:133,_RNvMNtNtCs6aoit5jAd69_15nexus_execution12move_adapter9publisherNtB2_15ModulePublisher7publish
FNDA:336,_RNvNtNtCs6aoit5jAd69_15nexus_execution12move_adapter9publisher23derive_contract_address
FNDA:70,_RNvMNtNtNtCs6aoit5jAd69_15nexus_execution12move_adapter9publisher5testsNtB2_8MemState3new
FNDA:14,_RNvMNtNtNtCs6aoit5jAd69_15nexus_execution12move_adapter9publisher5testsNtB2_8MemState3set
FNDA:168,_RNvNtNtNtCs6aoit5jAd69_15nexus_execution12move_adapter9publisher5tests4addr
FNDA:70,_RNvNtNtNtCs6aoit5jAd69_15nexus_execution12move_adapter9publisher5tests8schedule
FNDA:14,_RNvNtNtNtCs6aoit5jAd69_15nexus_execution12move_adapter9publisher5testss_18publish_out_of_gas
FNDA:14,_RNvNtNtNtCs6aoit5jAd69_15nexus_execution12move_adapter9publisher5testss_28derive_address_deterministic
FNDA:14,_RNvNtNtNtCs6aoit5jAd69_15nexus_execution12move_adapter9publisher5testss_28publish_multiple_modules_gas
FNDA:14,_RNvNtNtNtCs6aoit5jAd69_15nexus_execution12move_adapter9publisher5testss_31publish_success_stores_all_keys
FNDA:14,_RNvNtNtNtCs6aoit5jAd69_15nexus_execution12move_adapter9publisher5testss_33derive_address_different_bytecode
FNDA:14,_RNvNtNtNtCs6aoit5jAd69_15nexus_execution12move_adapter9publisher5testss_34derive_address_different_deployers
FNDA:14,_RNvNtNtNtCs6aoit5jAd69_15nexus_execution12move_adapter9publisher5testss_34publish_duplicate_address_rejected
FNDA:14,_RNvNtNtNtCs6aoit5jAd69_15nexus_execution12move_adapter9publisher5testss_47publish_stores_under_derived_address_not_sender
FNDA:70,_RNvXs_NtNtNtCs6aoit5jAd69_15nexus_execution12move_adapter9publisher5testsNtB4_8MemStateNtNtBa_6traits9StateView3get
FNDA:147,_RNCNvMNtNtCs6aoit5jAd69_15nexus_execution12move_adapter9publisherNtB4_15ModulePublisher7publish0B8_
FNF:19
FNH:19
DA:57,336
DA:58,336
DA:59,336
DA:60,336
DA:61,336
DA:62,336
DA:63,336
DA:64,336
DA:65,336
DA:66,336
DA:67,336
DA:84,133
DA:85,133
DA:86,133
DA:99,133
DA:100,133
DA:101,133
DA:102,133
DA:103,133
DA:104,133
DA:105,133
DA:106,133
DA:107,147
DA:108,133
DA:109,280
DA:110,147
DA:111,147
DA:112,133
DA:113,133
DA:114,133
DA:115,133
DA:118,133
DA:119,133
DA:120,14
DA:121,14
DA:122,14
DA:123,14
DA:124,14
DA:125,14
DA:126,14
DA:127,14
DA:128,14
DA:129,14
DA:130,14
DA:131,14
DA:132,119
DA:133,119
DA:134,119
DA:135,119
DA:136,119
DA:137,119
DA:138,119
DA:139,119
DA:140,119
DA:141,119
DA:142,35
DA:143,35
DA:144,35
DA:145,35
DA:146,35
DA:147,35
DA:148,35
DA:149,35
DA:150,35
DA:151,84
DA:152,84
DA:153,84
DA:154,84
DA:155,84
DA:156,84
DA:157,84
DA:158,84
DA:159,84
DA:160,84
DA:161,84
DA:162,84
DA:163,84
DA:164,84
DA:165,84
DA:166,84
DA:167,84
DA:168,84
DA:169,84
DA:170,84
DA:171,84
DA:172,84
DA:173,84
DA:174,84
DA:175,84
DA:176,84
DA:177,84
DA:178,84
DA:179,84
DA:180,84
DA:181,84
DA:182,84
DA:183,84
DA:184,84
DA:185,84
DA:186,84
DA:187,84
DA:188,84
DA:189,84
DA:190,84
DA:191,84
DA:192,84
DA:193,84
DA:194,84
DA:195,84
DA:196,84
DA:197,84
DA:198,84
DA:199,84
DA:200,84
DA:201,84
DA:202,84
DA:203,84
DA:204,84
DA:205,84
DA:206,84
DA:207,84
DA:208,84
DA:209,84
DA:210,84
DA:211,84
DA:212,84
DA:213,133
DA:242,70
DA:243,70
DA:244,70
DA:245,70
DA:246,70
DA:248,14
DA:249,14
DA:250,14
DA:254,70
DA:255,70
DA:256,70
DA:259,168
DA:260,168
DA:261,168
DA:263,70
DA:264,70
DA:265,70
DA:266,70
DA:267,70
DA:268,70
DA:269,70
DA:270,70
DA:271,70
DA:272,70
DA:275,14
DA:276,14
DA:277,14
DA:278,14
DA:279,14
DA:280,14
DA:281,14
DA:284,14
DA:285,14
DA:286,14
DA:287,14
DA:288,14
DA:289,14
DA:292,14
DA:293,14
DA:294,14
DA:295,14
DA:296,14
DA:297,14
DA:298,14
DA:299,14
DA:302,14
DA:303,14
DA:304,14
DA:305,14
DA:306,14
DA:307,14
DA:308,14
DA:309,14
DA:310,14
DA:311,14
DA:312,14
DA:315,14
DA:318,14
DA:319,14
DA:320,14
DA:321,14
DA:322,14
DA:323,14
DA:326,14
DA:327,14
DA:330,14
DA:331,14
DA:332,14
DA:333,14
DA:336,14
DA:337,14
DA:338,14
DA:339,14
DA:340,14
DA:341,14
DA:342,14
DA:343,14
DA:344,14
DA:345,14
DA:346,14
DA:347,14
DA:348,14
DA:351,56
DA:352,56
DA:354,14
DA:357,14
DA:358,14
DA:359,14
DA:360,14
DA:361,14
DA:362,14
DA:363,14
DA:364,14
DA:365,14
DA:366,14
DA:367,14
DA:368,14
DA:369,14
DA:370,14
DA:371,14
DA:372,14
DA:373,14
DA:374,14
DA:375,14
DA:376,14
DA:379,14
DA:382,14
DA:383,14
DA:384,14
DA:385,14
DA:386,14
DA:387,14
DA:388,14
DA:389,14
DA:390,14
DA:391,14
DA:394,14
DA:395,14
DA:396,14
DA:397,14
DA:398,14
DA:399,14
DA:400,14
DA:401,28
DA:402,14
DA:403,14
DA:404,14
DA:405,14
DA:406,14
DA:407,14
DA:408,14
DA:409,14
BRF:0
BRH:0
LF:262
LH:262
end_of_record
SF:/Users/VD/Vootaa_Projects/vootaa-labs@github/nexus-node/crates/nexus-execution/src/move_adapter/query.rs
FN:68,_RNCNvNtNtCsh7qRzkv9eQQ_15nexus_execution12move_adapter5query19query_view_function0B7_
FN:82,_RNCNvNtNtCsh7qRzkv9eQQ_15nexus_execution12move_adapter5query19query_view_functions0_0B7_
FN:88,_RNCNvNtNtCsh7qRzkv9eQQ_15nexus_execution12move_adapter5query19query_view_functions1_0B7_
FN:81,_RNCNvNtNtCsh7qRzkv9eQQ_15nexus_execution12move_adapter5query19query_view_functions_0B7_
FN:49,_RNvNtNtCsh7qRzkv9eQQ_15nexus_execution12move_adapter5query19query_view_function
FN:68,_RNCNvNtNtCs6aoit5jAd69_15nexus_execution12move_adapter5query19query_view_function0B7_
FN:82,_RNCNvNtNtCs6aoit5jAd69_15nexus_execution12move_adapter5query19query_view_functions0_0B7_
FN:88,_RNCNvNtNtCs6aoit5jAd69_15nexus_execution12move_adapter5query19query_view_functions1_0B7_
FN:81,_RNCNvNtNtCs6aoit5jAd69_15nexus_execution12move_adapter5query19query_view_functions_0B7_
FN:135,_RNvMNtNtNtCs6aoit5jAd69_15nexus_execution12move_adapter5query5testsNtB2_8MemState3new
FN:140,_RNvMNtNtNtCs6aoit5jAd69_15nexus_execution12move_adapter5query5testsNtB2_8MemState3set
FN:150,_RNvNtNtNtCs6aoit5jAd69_15nexus_execution12move_adapter5query5tests4addr
FN:155,_RNvNtNtNtCs6aoit5jAd69_15nexus_execution12move_adapter5query5testss_24query_contract_not_found
FN:162,_RNvNtNtNtCs6aoit5jAd69_15nexus_execution12move_adapter5query5testss_24query_function_not_found
FN:183,_RNvNtNtNtCs6aoit5jAd69_15nexus_execution12move_adapter5query5testss_28query_read_existing_resource
FN:145,_RNvXs_NtNtNtCs6aoit5jAd69_15nexus_execution12move_adapter5query5testsNtB4_8MemStateNtNtBa_6traits9StateView3get
FN:49,_RNvNtNtCs6aoit5jAd69_15nexus_execution12move_adapter5query19query_view_function
FNDA:0,_RNCNvNtNtCsh7qRzkv9eQQ_15nexus_execution12move_adapter5query19query_view_function0B7_
FNDA:0,_RNCNvNtNtCsh7qRzkv9eQQ_15nexus_execution12move_adapter5query19query_view_functions0_0B7_
FNDA:0,_RNCNvNtNtCsh7qRzkv9eQQ_15nexus_execution12move_adapter5query19query_view_functions1_0B7_
FNDA:17,_RNCNvNtNtCsh7qRzkv9eQQ_15nexus_execution12move_adapter5query19query_view_functions_0B7_
FNDA:17,_RNvNtNtCsh7qRzkv9eQQ_15nexus_execution12move_adapter5query19query_view_function
FNDA:0,_RNCNvNtNtCs6aoit5jAd69_15nexus_execution12move_adapter5query19query_view_function0B7_
FNDA:14,_RNCNvNtNtCs6aoit5jAd69_15nexus_execution12move_adapter5query19query_view_functions0_0B7_
FNDA:0,_RNCNvNtNtCs6aoit5jAd69_15nexus_execution12move_adapter5query19query_view_functions1_0B7_
FNDA:28,_RNCNvNtNtCs6aoit5jAd69_15nexus_execution12move_adapter5query19query_view_functions_0B7_
FNDA:42,_RNvMNtNtNtCs6aoit5jAd69_15nexus_execution12move_adapter5query5testsNtB2_8MemState3new
FNDA:70,_RNvMNtNtNtCs6aoit5jAd69_15nexus_execution12move_adapter5query5testsNtB2_8MemState3set
FNDA:42,_RNvNtNtNtCs6aoit5jAd69_15nexus_execution12move_adapter5query5tests4addr
FNDA:14,_RNvNtNtNtCs6aoit5jAd69_15nexus_execution12move_adapter5query5testss_24query_contract_not_found
FNDA:14,_RNvNtNtNtCs6aoit5jAd69_15nexus_execution12move_adapter5query5testss_24query_function_not_found
FNDA:14,_RNvNtNtNtCs6aoit5jAd69_15nexus_execution12move_adapter5query5testss_28query_read_existing_resource
FNDA:84,_RNvXs_NtNtNtCs6aoit5jAd69_15nexus_execution12move_adapter5query5testsNtB4_8MemStateNtNtBa_6traits9StateView3get
FNDA:42,_RNvNtNtCs6aoit5jAd69_15nexus_execution12move_adapter5query19query_view_function
FNF:12
FNH:10
DA:49,59
DA:50,59
DA:51,59
DA:52,59
DA:53,59
DA:54,59
DA:55,59
DA:56,59
DA:57,59
DA:58,59
DA:59,59
DA:60,14
DA:61,14
DA:62,14
DA:63,45
DA:66,45
DA:67,45
DA:68,45
DA:69,0
DA:70,45
DA:72,0
DA:73,0
DA:74,0
DA:75,0
DA:79,45
DA:80,45
DA:81,45
DA:82,45
DA:83,14
DA:84,14
DA:85,45
DA:88,31
DA:89,0
DA:90,0
DA:91,31
DA:94,31
DA:95,31
DA:96,31
DA:97,31
DA:98,31
DA:99,31
DA:100,31
DA:101,31
DA:102,31
DA:103,31
DA:104,31
DA:105,31
DA:106,31
DA:107,31
DA:108,31
DA:109,31
DA:110,31
DA:111,31
DA:113,31
DA:114,31
DA:115,31
DA:116,31
DA:117,31
DA:118,59
DA:135,42
DA:136,42
DA:137,42
DA:138,42
DA:139,42
DA:140,70
DA:141,70
DA:142,70
DA:145,84
DA:146,84
DA:147,84
DA:150,42
DA:151,42
DA:152,42
DA:155,14
DA:156,14
DA:157,14
DA:158,14
DA:159,14
DA:162,14
DA:163,14
DA:164,14
DA:165,14
DA:166,14
DA:167,14
DA:168,14
DA:169,14
DA:170,14
DA:171,14
DA:172,14
DA:173,14
DA:174,14
DA:175,14
DA:176,14
DA:177,14
DA:178,14
DA:179,14
DA:180,14
DA:183,14
DA:184,14
DA:185,14
DA:186,14
DA:187,14
DA:188,14
DA:189,14
DA:190,14
DA:191,14
DA:192,14
DA:193,14
DA:194,14
DA:195,14
DA:196,14
DA:197,14
DA:198,14
DA:199,14
DA:200,14
DA:201,14
DA:202,14
BRF:0
BRH:0
LF:124
LH:113
end_of_record
SF:/Users/VD/Vootaa_Projects/vootaa-labs@github/nexus-node/crates/nexus-execution/src/move_adapter/resources.rs
FN:79,_RNvMNtNtCsh7qRzkv9eQQ_15nexus_execution12move_adapter9resourcesNtB2_13ResourceStore6remove
FN:85,_RNvMNtNtCsh7qRzkv9eQQ_15nexus_execution12move_adapter9resourcesNtB2_13ResourceStore12into_changes
FN:59,_RNvMNtNtCsh7qRzkv9eQQ_15nexus_execution12move_adapter9resourcesNtB2_13ResourceStore3get
FN:51,_RNvMNtNtCsh7qRzkv9eQQ_15nexus_execution12move_adapter9resourcesNtB2_13ResourceStore3new
FN:72,_RNvMNtNtCsh7qRzkv9eQQ_15nexus_execution12move_adapter9resourcesNtB2_13ResourceStore3set
FN:28,_RNvNtNtCsh7qRzkv9eQQ_15nexus_execution12move_adapter9resources12resource_key
FN:85,_RNvMNtNtCs6aoit5jAd69_15nexus_execution12move_adapter9resourcesNtB2_13ResourceStore12into_changes
FN:59,_RNvMNtNtCs6aoit5jAd69_15nexus_execution12move_adapter9resourcesNtB2_13ResourceStore3get
FN:51,_RNvMNtNtCs6aoit5jAd69_15nexus_execution12move_adapter9resourcesNtB2_13ResourceStore3new
FN:72,_RNvMNtNtCs6aoit5jAd69_15nexus_execution12move_adapter9resourcesNtB2_13ResourceStore3set
FN:79,_RNvMNtNtCs6aoit5jAd69_15nexus_execution12move_adapter9resourcesNtB2_13ResourceStore6remove
FN:28,_RNvNtNtCs6aoit5jAd69_15nexus_execution12move_adapter9resources12resource_key
FN:108,_RNvMNtNtNtCs6aoit5jAd69_15nexus_execution12move_adapter9resources5testsNtB2_8MemState3new
FN:113,_RNvMNtNtNtCs6aoit5jAd69_15nexus_execution12move_adapter9resources5testsNtB2_8MemState3set
FN:123,_RNvNtNtNtCs6aoit5jAd69_15nexus_execution12move_adapter9resources5tests4addr
FN:128,_RNvNtNtNtCs6aoit5jAd69_15nexus_execution12move_adapter9resources5testss_26overlay_shadows_underlying
FN:147,_RNvNtNtNtCs6aoit5jAd69_15nexus_execution12move_adapter9resources5testss_29remove_resource_produces_none
FN:160,_RNvNtNtNtCs6aoit5jAd69_15nexus_execution12move_adapter9resources5testss_31into_changes_produces_write_set
FN:118,_RNvXs_NtNtNtCs6aoit5jAd69_15nexus_execution12move_adapter9resources5testsNtB4_8MemStateNtNtBa_6traits9StateView3get
FNDA:0,_RNvMNtNtCsh7qRzkv9eQQ_15nexus_execution12move_adapter9resourcesNtB2_13ResourceStore6remove
FNDA:0,_RNvMNtNtCsh7qRzkv9eQQ_15nexus_execution12move_adapter9resourcesNtB2_13ResourceStore12into_changes
FNDA:17,_RNvMNtNtCsh7qRzkv9eQQ_15nexus_execution12move_adapter9resourcesNtB2_13ResourceStore3get
FNDA:17,_RNvMNtNtCsh7qRzkv9eQQ_15nexus_execution12move_adapter9resourcesNtB2_13ResourceStore3new
FNDA:0,_RNvMNtNtCsh7qRzkv9eQQ_15nexus_execution12move_adapter9resourcesNtB2_13ResourceStore3set
FNDA:17,_RNvNtNtCsh7qRzkv9eQQ_15nexus_execution12move_adapter9resources12resource_key
FNDA:77,_RNvMNtNtCs6aoit5jAd69_15nexus_execution12move_adapter9resourcesNtB2_13ResourceStore12into_changes
FNDA:140,_RNvMNtNtCs6aoit5jAd69_15nexus_execution12move_adapter9resourcesNtB2_13ResourceStore3get
FNDA:175,_RNvMNtNtCs6aoit5jAd69_15nexus_execution12move_adapter9resourcesNtB2_13ResourceStore3new
FNDA:119,_RNvMNtNtCs6aoit5jAd69_15nexus_execution12move_adapter9resourcesNtB2_13ResourceStore3set
FNDA:14,_RNvMNtNtCs6aoit5jAd69_15nexus_execution12move_adapter9resourcesNtB2_13ResourceStore6remove
FNDA:336,_RNvNtNtCs6aoit5jAd69_15nexus_execution12move_adapter9resources12resource_key
FNDA:42,_RNvMNtNtNtCs6aoit5jAd69_15nexus_execution12move_adapter9resources5testsNtB2_8MemState3new
FNDA:14,_RNvMNtNtNtCs6aoit5jAd69_15nexus_execution12move_adapter9resources5testsNtB2_8MemState3set
FNDA:126,_RNvNtNtNtCs6aoit5jAd69_15nexus_execution12move_adapter9resources5tests4addr
FNDA:14,_RNvNtNtNtCs6aoit5jAd69_15nexus_execution12move_adapter9resources5testss_26overlay_shadows_underlying
FNDA:14,_RNvNtNtNtCs6aoit5jAd69_15nexus_execution12move_adapter9resources5testss_29remove_resource_produces_none
FNDA:14,_RNvNtNtNtCs6aoit5jAd69_15nexus_execution12move_adapter9resources5testss_31into_changes_produces_write_set
FNDA:14,_RNvXs_NtNtNtCs6aoit5jAd69_15nexus_execution12move_adapter9resources5testsNtB4_8MemStateNtNtBa_6traits9StateView3get
FNF:13
FNH:13
DA:28,353
DA:29,353
DA:30,353
DA:31,353
DA:32,353
DA:51,192
DA:52,192
DA:53,192
DA:54,192
DA:55,192
DA:56,192
DA:59,157
DA:60,157
DA:61,157
DA:62,157
DA:63,157
DA:64,157
DA:65,157
DA:66,28
DA:67,129
DA:68,129
DA:69,157
DA:72,119
DA:73,119
DA:74,119
DA:75,119
DA:79,14
DA:80,14
DA:81,14
DA:82,14
DA:85,77
DA:86,77
DA:87,168
DA:88,91
DA:89,91
DA:90,91
DA:91,91
DA:92,91
DA:93,91
DA:94,77
DA:95,77
DA:108,42
DA:109,42
DA:110,42
DA:111,42
DA:112,42
DA:113,14
DA:114,14
DA:115,14
DA:118,14
DA:119,14
DA:120,14
DA:123,126
DA:124,126
DA:125,126
DA:128,14
DA:129,14
DA:130,14
DA:131,14
DA:132,14
DA:133,14
DA:134,14
DA:135,14
DA:136,14
DA:137,14
DA:138,14
DA:141,14
DA:142,14
DA:143,14
DA:144,14
DA:147,14
DA:148,14
DA:149,14
DA:150,14
DA:151,14
DA:152,14
DA:153,14
DA:154,14
DA:155,14
DA:156,14
DA:157,14
DA:160,14
DA:161,14
DA:162,14
DA:163,14
DA:164,14
DA:165,14
DA:166,14
DA:167,14
DA:168,14
DA:169,14
DA:170,14
DA:171,14
BRF:0
BRH:0
LF:93
LH:93
end_of_record
SF:/Users/VD/Vootaa_Projects/vootaa-labs@github/nexus-node/crates/nexus-execution/src/move_adapter/session.rs
FN:133,_RNCNvMs_NtNtCsh7qRzkv9eQQ_15nexus_execution12move_adapter7sessionNtB6_14ExecuteSession13read_resource0Ba_
FN:121,_RNCNvMs_NtNtCsh7qRzkv9eQQ_15nexus_execution12move_adapter7sessionNtB6_14ExecuteSession14charge_storage0Ba_
FN:155,_RNCNvMs_NtNtCsh7qRzkv9eQQ_15nexus_execution12move_adapter7sessionNtB6_14ExecuteSession14write_resource0Ba_
FN:109,_RNCNvMs_NtNtCsh7qRzkv9eQQ_15nexus_execution12move_adapter7sessionNtB6_14ExecuteSession16charge_execution0Ba_
FN:115,_RNCNvMs_NtNtCsh7qRzkv9eQQ_15nexus_execution12move_adapter7sessionNtB6_14ExecuteSession9charge_io0Ba_
FN:42,_RNvMNtNtCsh7qRzkv9eQQ_15nexus_execution12move_adapter7sessionNtB2_14MoveGasSummary5total
FN:125,_RNvMs_NtNtCsh7qRzkv9eQQ_15nexus_execution12move_adapter7sessionNtB4_14ExecuteSession13read_resource
FN:119,_RNvMs_NtNtCsh7qRzkv9eQQ_15nexus_execution12move_adapter7sessionNtB4_14ExecuteSession14charge_storage
FN:144,_RNvMs_NtNtCsh7qRzkv9eQQ_15nexus_execution12move_adapter7sessionNtB4_14ExecuteSession14write_resource
FN:107,_RNvMs_NtNtCsh7qRzkv9eQQ_15nexus_execution12move_adapter7sessionNtB4_14ExecuteSession16charge_execution
FN:88,_RNvMs_NtNtCsh7qRzkv9eQQ_15nexus_execution12move_adapter7sessionNtB4_14ExecuteSession3new
FN:173,_RNvMs_NtNtCsh7qRzkv9eQQ_15nexus_execution12move_adapter7sessionNtB4_14ExecuteSession5abort
FN:161,_RNvMs_NtNtCsh7qRzkv9eQQ_15nexus_execution12move_adapter7sessionNtB4_14ExecuteSession6commit
FN:113,_RNvMs_NtNtCsh7qRzkv9eQQ_15nexus_execution12move_adapter7sessionNtB4_14ExecuteSession9charge_io
FN:42,_RNvMNtNtCs6aoit5jAd69_15nexus_execution12move_adapter7sessionNtB2_14MoveGasSummary5total
FN:125,_RNvMs_NtNtCs6aoit5jAd69_15nexus_execution12move_adapter7sessionNtB4_14ExecuteSession13read_resource
FN:119,_RNvMs_NtNtCs6aoit5jAd69_15nexus_execution12move_adapter7sessionNtB4_14ExecuteSession14charge_storage
FN:144,_RNvMs_NtNtCs6aoit5jAd69_15nexus_execution12move_adapter7sessionNtB4_14ExecuteSession14write_resource
FN:107,_RNvMs_NtNtCs6aoit5jAd69_15nexus_execution12move_adapter7sessionNtB4_14ExecuteSession16charge_execution
FN:88,_RNvMs_NtNtCs6aoit5jAd69_15nexus_execution12move_adapter7sessionNtB4_14ExecuteSession3new
FN:173,_RNvMs_NtNtCs6aoit5jAd69_15nexus_execution12move_adapter7sessionNtB4_14ExecuteSession5abort
FN:161,_RNvMs_NtNtCs6aoit5jAd69_15nexus_execution12move_adapter7sessionNtB4_14ExecuteSession6commit
FN:113,_RNvMs_NtNtCs6aoit5jAd69_15nexus_execution12move_adapter7sessionNtB4_14ExecuteSession9charge_io
FN:133,_RNCNvMs_NtNtCs6aoit5jAd69_15nexus_execution12move_adapter7sessionNtB6_14ExecuteSession13read_resource0Ba_
FN:121,_RNCNvMs_NtNtCs6aoit5jAd69_15nexus_execution12move_adapter7sessionNtB6_14ExecuteSession14charge_storage0Ba_
FN:155,_RNCNvMs_NtNtCs6aoit5jAd69_15nexus_execution12move_adapter7sessionNtB6_14ExecuteSession14write_resource0Ba_
FN:109,_RNCNvMs_NtNtCs6aoit5jAd69_15nexus_execution12move_adapter7sessionNtB6_14ExecuteSession16charge_execution0Ba_
FN:115,_RNCNvMs_NtNtCs6aoit5jAd69_15nexus_execution12move_adapter7sessionNtB6_14ExecuteSession9charge_io0Ba_
FN:204,_RNvNtNtNtCs6aoit5jAd69_15nexus_execution12move_adapter7session5tests4addr
FN:257,_RNvNtNtNtCs6aoit5jAd69_15nexus_execution12move_adapter7session5testss_17gas_summary_total
FN:239,_RNvNtNtNtCs6aoit5jAd69_15nexus_execution12move_adapter7session5testss_25commit_produces_write_set
FN:209,_RNvNtNtNtCs6aoit5jAd69_15nexus_execution12move_adapter7session5testss_29session_charges_gas_correctly
FN:227,_RNvNtNtNtCs6aoit5jAd69_15nexus_execution12move_adapter7session5testss_31readonly_session_rejects_writes
FN:199,_RNvXNtNtNtCs6aoit5jAd69_15nexus_execution12move_adapter7session5testsNtB2_10EmptyStateNtNtB8_6traits9StateView3get
FNDA:17,_RNCNvMs_NtNtCsh7qRzkv9eQQ_15nexus_execution12move_adapter7sessionNtB6_14ExecuteSession13read_resource0Ba_
FNDA:0,_RNCNvMs_NtNtCsh7qRzkv9eQQ_15nexus_execution12move_adapter7sessionNtB6_14ExecuteSession14charge_storage0Ba_
FNDA:0,_RNCNvMs_NtNtCsh7qRzkv9eQQ_15nexus_execution12move_adapter7sessionNtB6_14ExecuteSession14write_resource0Ba_
FNDA:0,_RNCNvMs_NtNtCsh7qRzkv9eQQ_15nexus_execution12move_adapter7sessionNtB6_14ExecuteSession16charge_execution0Ba_
FNDA:0,_RNCNvMs_NtNtCsh7qRzkv9eQQ_15nexus_execution12move_adapter7sessionNtB6_14ExecuteSession9charge_io0Ba_
FNDA:0,_RNvMNtNtCsh7qRzkv9eQQ_15nexus_execution12move_adapter7sessionNtB2_14MoveGasSummary5total
FNDA:17,_RNvMs_NtNtCsh7qRzkv9eQQ_15nexus_execution12move_adapter7sessionNtB4_14ExecuteSession13read_resource
FNDA:0,_RNvMs_NtNtCsh7qRzkv9eQQ_15nexus_execution12move_adapter7sessionNtB4_14ExecuteSession14charge_storage
FNDA:0,_RNvMs_NtNtCsh7qRzkv9eQQ_15nexus_execution12move_adapter7sessionNtB4_14ExecuteSession14write_resource
FNDA:0,_RNvMs_NtNtCsh7qRzkv9eQQ_15nexus_execution12move_adapter7sessionNtB4_14ExecuteSession16charge_execution
FNDA:17,_RNvMs_NtNtCsh7qRzkv9eQQ_15nexus_execution12move_adapter7sessionNtB4_14ExecuteSession3new
FNDA:0,_RNvMs_NtNtCsh7qRzkv9eQQ_15nexus_execution12move_adapter7sessionNtB4_14ExecuteSession5abort
FNDA:0,_RNvMs_NtNtCsh7qRzkv9eQQ_15nexus_execution12move_adapter7sessionNtB4_14ExecuteSession6commit
FNDA:17,_RNvMs_NtNtCsh7qRzkv9eQQ_15nexus_execution12move_adapter7sessionNtB4_14ExecuteSession9charge_io
FNDA:14,_RNvMNtNtCs6aoit5jAd69_15nexus_execution12move_adapter7sessionNtB2_14MoveGasSummary5total
FNDA:98,_RNvMs_NtNtCs6aoit5jAd69_15nexus_execution12move_adapter7sessionNtB4_14ExecuteSession13read_resource
FNDA:77,_RNvMs_NtNtCs6aoit5jAd69_15nexus_execution12move_adapter7sessionNtB4_14ExecuteSession14charge_storage
FNDA:77,_RNvMs_NtNtCs6aoit5jAd69_15nexus_execution12move_adapter7sessionNtB4_14ExecuteSession14write_resource
FNDA:91,_RNvMs_NtNtCs6aoit5jAd69_15nexus_execution12move_adapter7sessionNtB4_14ExecuteSession16charge_execution
FNDA:133,_RNvMs_NtNtCs6aoit5jAd69_15nexus_execution12move_adapter7sessionNtB4_14ExecuteSession3new
FNDA:14,_RNvMs_NtNtCs6aoit5jAd69_15nexus_execution12move_adapter7sessionNtB4_14ExecuteSession5abort
FNDA:63,_RNvMs_NtNtCs6aoit5jAd69_15nexus_execution12move_adapter7sessionNtB4_14ExecuteSession6commit
FNDA:105,_RNvMs_NtNtCs6aoit5jAd69_15nexus_execution12move_adapter7sessionNtB4_14ExecuteSession9charge_io
FNDA:49,_RNCNvMs_NtNtCs6aoit5jAd69_15nexus_execution12move_adapter7sessionNtB6_14ExecuteSession13read_resource0Ba_
FNDA:0,_RNCNvMs_NtNtCs6aoit5jAd69_15nexus_execution12move_adapter7sessionNtB6_14ExecuteSession14charge_storage0Ba_
FNDA:0,_RNCNvMs_NtNtCs6aoit5jAd69_15nexus_execution12move_adapter7sessionNtB6_14ExecuteSession14write_resource0Ba_
FNDA:0,_RNCNvMs_NtNtCs6aoit5jAd69_15nexus_execution12move_adapter7sessionNtB6_14ExecuteSession16charge_execution0Ba_
FNDA:0,_RNCNvMs_NtNtCs6aoit5jAd69_15nexus_execution12move_adapter7sessionNtB6_14ExecuteSession9charge_io0Ba_
FNDA:70,_RNvNtNtNtCs6aoit5jAd69_15nexus_execution12move_adapter7session5tests4addr
FNDA:14,_RNvNtNtNtCs6aoit5jAd69_15nexus_execution12move_adapter7session5testss_17gas_summary_total
FNDA:14,_RNvNtNtNtCs6aoit5jAd69_15nexus_execution12move_adapter7session5testss_25commit_produces_write_set
FNDA:14,_RNvNtNtNtCs6aoit5jAd69_15nexus_execution12move_adapter7session5testss_29session_charges_gas_correctly
FNDA:14,_RNvNtNtNtCs6aoit5jAd69_15nexus_execution12move_adapter7session5testss_31readonly_session_rejects_writes
FNDA:0,_RNvXNtNtNtCs6aoit5jAd69_15nexus_execution12move_adapter7session5testsNtB2_10EmptyStateNtNtB8_6traits9StateView3get
FNF:20
FNH:15
DA:42,14
DA:43,14
DA:44,14
DA:45,14
DA:46,14
DA:88,150
DA:89,150
DA:90,150
DA:91,150
DA:92,150
DA:93,150
DA:94,150
DA:95,150
DA:96,150
DA:97,150
DA:98,150
DA:99,150
DA:100,150
DA:101,150
DA:102,150
DA:103,150
DA:104,150
DA:107,91
DA:108,91
DA:109,91
DA:110,91
DA:113,122
DA:114,122
DA:115,122
DA:116,122
DA:119,77
DA:120,77
DA:121,77
DA:122,77
DA:125,115
DA:126,115
DA:127,115
DA:128,115
DA:129,115
DA:130,115
DA:131,108
DA:132,108
DA:133,108
DA:134,108
DA:135,108
DA:136,108
DA:137,108
DA:138,115
DA:144,77
DA:145,77
DA:146,77
DA:147,77
DA:148,77
DA:149,77
DA:150,77
DA:151,14
DA:152,63
DA:153,63
DA:154,63
DA:155,63
DA:156,63
DA:157,63
DA:158,77
DA:161,63
DA:162,63
DA:163,63
DA:164,63
DA:165,63
DA:166,63
DA:167,63
DA:168,63
DA:169,63
DA:173,14
DA:174,14
DA:175,14
DA:176,14
DA:177,14
DA:178,14
DA:179,14
DA:180,14
DA:199,0
DA:200,0
DA:201,0
DA:204,70
DA:205,70
DA:206,70
DA:209,14
DA:210,14
DA:211,14
DA:212,14
DA:213,14
DA:214,14
DA:215,14
DA:216,14
DA:217,14
DA:218,14
DA:220,14
DA:221,14
DA:222,14
DA:223,14
DA:224,14
DA:227,14
DA:228,14
DA:229,14
DA:230,14
DA:231,14
DA:232,14
DA:233,14
DA:234,14
DA:235,14
DA:236,14
DA:239,14
DA:240,14
DA:241,14
DA:242,14
DA:243,14
DA:244,14
DA:245,14
DA:246,14
DA:247,14
DA:248,14
DA:249,14
DA:250,14
DA:251,14
DA:252,14
DA:253,14
DA:254,14
DA:257,14
DA:258,14
DA:259,14
DA:260,14
DA:261,14
DA:262,14
DA:263,14
DA:264,14
BRF:0
BRH:0
LF:140
LH:133
end_of_record
SF:/Users/VD/Vootaa_Projects/vootaa-labs@github/nexus-node/crates/nexus-execution/src/move_adapter/state_view.rs
FN:102,_RNCNvNtNtCsh7qRzkv9eQQ_15nexus_execution12move_adapter10state_view19parse_balance_bytes0B7_
FN:83,_RNvMs_NtNtCsh7qRzkv9eQQ_15nexus_execution12move_adapter10state_viewNtB4_14NexusStateView11get_balance
FN:100,_RNvNtNtCsh7qRzkv9eQQ_15nexus_execution12move_adapter10state_view19parse_balance_bytes
FN:73,_RNvMs_NtNtCsh7qRzkv9eQQ_15nexus_execution12move_adapter10state_viewNtB4_14NexusStateView10get_module
FN:78,_RNvMs_NtNtCsh7qRzkv9eQQ_15nexus_execution12move_adapter10state_viewNtB4_14NexusStateView10has_module
FN:89,_RNvMs_NtNtCsh7qRzkv9eQQ_15nexus_execution12move_adapter10state_viewNtB4_14NexusStateView12get_resource
FN:59,_RNvMs_NtNtCsh7qRzkv9eQQ_15nexus_execution12move_adapter10state_viewNtB4_14NexusStateView3new
FN:64,_RNvMs_NtNtCsh7qRzkv9eQQ_15nexus_execution12move_adapter10state_viewNtB4_14NexusStateView7get_raw
FN:51,_RNvXNtNtCsh7qRzkv9eQQ_15nexus_execution12move_adapter10state_viewNtB2_14NexusStateViewNtNtCslNfmTnNkGed_4core3fmt5Debug3fmt
FN:51,_RNvXNtNtCs6aoit5jAd69_15nexus_execution12move_adapter10state_viewNtB2_14NexusStateViewNtNtCslNfmTnNkGed_4core3fmt5Debug3fmt
FN:102,_RNCNvNtNtCs6aoit5jAd69_15nexus_execution12move_adapter10state_view19parse_balance_bytes0B7_
FN:73,_RNvMs_NtNtCs6aoit5jAd69_15nexus_execution12move_adapter10state_viewNtB4_14NexusStateView10get_module
FN:78,_RNvMs_NtNtCs6aoit5jAd69_15nexus_execution12move_adapter10state_viewNtB4_14NexusStateView10has_module
FN:83,_RNvMs_NtNtCs6aoit5jAd69_15nexus_execution12move_adapter10state_viewNtB4_14NexusStateView11get_balance
FN:89,_RNvMs_NtNtCs6aoit5jAd69_15nexus_execution12move_adapter10state_viewNtB4_14NexusStateView12get_resource
FN:59,_RNvMs_NtNtCs6aoit5jAd69_15nexus_execution12move_adapter10state_viewNtB4_14NexusStateView3new
FN:64,_RNvMs_NtNtCs6aoit5jAd69_15nexus_execution12move_adapter10state_viewNtB4_14NexusStateView7get_raw
FN:100,_RNvNtNtCs6aoit5jAd69_15nexus_execution12move_adapter10state_view19parse_balance_bytes
FN:118,_RNvMNtNtNtCs6aoit5jAd69_15nexus_execution12move_adapter10state_view5testsNtB2_8MemState3new
FN:124,_RNvMNtNtNtCs6aoit5jAd69_15nexus_execution12move_adapter10state_view5testsNtB2_8MemState3set
FN:135,_RNvNtNtNtCs6aoit5jAd69_15nexus_execution12move_adapter10state_view5tests4addr
FN:181,_RNvNtNtNtCs6aoit5jAd69_15nexus_execution12move_adapter10state_view5testss_19get_raw_passthrough
FN:140,_RNvNtNtNtCs6aoit5jAd69_15nexus_execution12move_adapter10state_view5testss_24get_balance_default_zero
FN:147,_RNvNtNtNtCs6aoit5jAd69_15nexus_execution12move_adapter10state_view5testss_24get_balance_reads_le_u64
FN:192,_RNvNtNtNtCs6aoit5jAd69_15nexus_execution12move_adapter10state_view5testss_25get_resource_returns_none
FN:155,_RNvNtNtNtCs6aoit5jAd69_15nexus_execution12move_adapter10state_view5testss_27get_module_returns_bytecode
FN:166,_RNvNtNtNtCs6aoit5jAd69_15nexus_execution12move_adapter10state_view5testss_28has_module_false_when_absent
FN:173,_RNvNtNtNtCs6aoit5jAd69_15nexus_execution12move_adapter10state_view5testss_28has_module_true_when_present
FN:202,_RNvNtNtNtCs6aoit5jAd69_15nexus_execution12move_adapter10state_view5testss_29parse_balance_bytes_malformed
FN:130,_RNvXs_NtNtNtCs6aoit5jAd69_15nexus_execution12move_adapter10state_view5testsNtB4_8MemStateNtNtBa_6traits9StateView3get
FNDA:0,_RNCNvNtNtCsh7qRzkv9eQQ_15nexus_execution12move_adapter10state_view19parse_balance_bytes0B7_
FNDA:0,_RNvMs_NtNtCsh7qRzkv9eQQ_15nexus_execution12move_adapter10state_viewNtB4_14NexusStateView11get_balance
FNDA:0,_RNvNtNtCsh7qRzkv9eQQ_15nexus_execution12move_adapter10state_view19parse_balance_bytes
FNDA:0,_RNvMs_NtNtCsh7qRzkv9eQQ_15nexus_execution12move_adapter10state_viewNtB4_14NexusStateView10get_module
FNDA:17,_RNvMs_NtNtCsh7qRzkv9eQQ_15nexus_execution12move_adapter10state_viewNtB4_14NexusStateView10has_module
FNDA:17,_RNvMs_NtNtCsh7qRzkv9eQQ_15nexus_execution12move_adapter10state_viewNtB4_14NexusStateView12get_resource
FNDA:51,_RNvMs_NtNtCsh7qRzkv9eQQ_15nexus_execution12move_adapter10state_viewNtB4_14NexusStateView3new
FNDA:17,_RNvMs_NtNtCsh7qRzkv9eQQ_15nexus_execution12move_adapter10state_viewNtB4_14NexusStateView7get_raw
FNDA:0,_RNvXNtNtCsh7qRzkv9eQQ_15nexus_execution12move_adapter10state_viewNtB2_14NexusStateViewNtNtCslNfmTnNkGed_4core3fmt5Debug3fmt
FNDA:0,_RNvXNtNtCs6aoit5jAd69_15nexus_execution12move_adapter10state_viewNtB2_14NexusStateViewNtNtCslNfmTnNkGed_4core3fmt5Debug3fmt
FNDA:42,_RNCNvNtNtCs6aoit5jAd69_15nexus_execution12move_adapter10state_view19parse_balance_bytes0B7_
FNDA:120,_RNvMs_NtNtCs6aoit5jAd69_15nexus_execution12move_adapter10state_viewNtB4_14NexusStateView10get_module
FNDA:357,_RNvMs_NtNtCs6aoit5jAd69_15nexus_execution12move_adapter10state_viewNtB4_14NexusStateView10has_module
FNDA:28,_RNvMs_NtNtCs6aoit5jAd69_15nexus_execution12move_adapter10state_viewNtB4_14NexusStateView11get_balance
FNDA:212,_RNvMs_NtNtCs6aoit5jAd69_15nexus_execution12move_adapter10state_viewNtB4_14NexusStateView12get_resource
FNDA:822,_RNvMs_NtNtCs6aoit5jAd69_15nexus_execution12move_adapter10state_viewNtB4_14NexusStateView3new
FNDA:154,_RNvMs_NtNtCs6aoit5jAd69_15nexus_execution12move_adapter10state_viewNtB4_14NexusStateView7get_raw
FNDA:70,_RNvNtNtCs6aoit5jAd69_15nexus_execution12move_adapter10state_view19parse_balance_bytes
FNDA:98,_RNvMNtNtNtCs6aoit5jAd69_15nexus_execution12move_adapter10state_view5testsNtB2_8MemState3new
FNDA:56,_RNvMNtNtNtCs6aoit5jAd69_15nexus_execution12move_adapter10state_view5testsNtB2_8MemState3set
FNDA:154,_RNvNtNtNtCs6aoit5jAd69_15nexus_execution12move_adapter10state_view5tests4addr
FNDA:14,_RNvNtNtNtCs6aoit5jAd69_15nexus_execution12move_adapter10state_view5testss_19get_raw_passthrough
FNDA:14,_RNvNtNtNtCs6aoit5jAd69_15nexus_execution12move_adapter10state_view5testss_24get_balance_default_zero
FNDA:14,_RNvNtNtNtCs6aoit5jAd69_15nexus_execution12move_adapter10state_view5testss_24get_balance_reads_le_u64
FNDA:14,_RNvNtNtNtCs6aoit5jAd69_15nexus_execution12move_adapter10state_view5testss_25get_resource_returns_none
FNDA:14,_RNvNtNtNtCs6aoit5jAd69_15nexus_execution12move_adapter10state_view5testss_27get_module_returns_bytecode
FNDA:14,_RNvNtNtNtCs6aoit5jAd69_15nexus_execution12move_adapter10state_view5testss_28has_module_false_when_absent
FNDA:14,_RNvNtNtNtCs6aoit5jAd69_15nexus_execution12move_adapter10state_view5testss_28has_module_true_when_present
FNDA:14,_RNvNtNtNtCs6aoit5jAd69_15nexus_execution12move_adapter10state_view5testss_29parse_balance_bytes_malformed
FNDA:98,_RNvXs_NtNtNtCs6aoit5jAd69_15nexus_execution12move_adapter10state_view5testsNtB4_8MemStateNtNtBa_6traits9StateView3get
FNF:21
FNH:20
DA:51,0
DA:52,0
DA:53,0
DA:59,873
DA:60,873
DA:61,873
DA:64,171
DA:65,171
DA:66,171
DA:67,171
DA:68,171
DA:69,171
DA:70,171
DA:73,120
DA:74,120
DA:75,120
DA:78,374
DA:79,374
DA:80,374
DA:83,28
DA:84,28
DA:85,28
DA:86,28
DA:89,229
DA:90,229
DA:91,229
DA:92,229
DA:93,229
DA:94,229
DA:95,229
DA:100,70
DA:101,70
DA:102,70
DA:103,70
DA:104,70
DA:105,70
DA:118,98
DA:119,98
DA:120,98
DA:121,98
DA:122,98
DA:124,56
DA:125,56
DA:126,56
DA:130,98
DA:131,98
DA:132,98
DA:135,154
DA:136,154
DA:137,154
DA:140,14
DA:141,14
DA:142,14
DA:143,14
DA:144,14
DA:147,14
DA:148,14
DA:149,14
DA:150,14
DA:151,14
DA:152,14
DA:155,14
DA:156,14
DA:157,14
DA:158,14
DA:159,14
DA:160,14
DA:161,14
DA:162,14
DA:163,14
DA:166,14
DA:167,14
DA:168,14
DA:169,14
DA:170,14
DA:173,14
DA:174,14
DA:175,14
DA:176,14
DA:177,14
DA:178,14
DA:181,14
DA:182,14
DA:183,14
DA:184,14
DA:185,14
DA:186,14
DA:187,14
DA:188,14
DA:189,14
DA:192,14
DA:193,14
DA:194,14
DA:195,14
DA:196,14
DA:197,14
DA:198,14
DA:199,14
DA:202,14
DA:203,14
DA:204,14
DA:206,14
DA:208,14
DA:209,14
BRF:0
BRH:0
LF:105
LH:102
end_of_record
SF:/Users/VD/Vootaa_Projects/vootaa-labs@github/nexus-node/crates/nexus-execution/src/move_adapter/stdlib.rs
FN:52,_RNvNtNtCsh7qRzkv9eQQ_15nexus_execution12move_adapter6stdlib16native_functions
FN:29,_RNvNtNtCsh7qRzkv9eQQ_15nexus_execution12move_adapter6stdlib17framework_address
FN:39,_RNvNtNtCsh7qRzkv9eQQ_15nexus_execution12move_adapter6stdlib20get_framework_module
FN:65,_RNvNtNtCsh7qRzkv9eQQ_15nexus_execution12move_adapter6stdlib26make_native_borrow_address
FN:71,_RNCNvNtNtCsh7qRzkv9eQQ_15nexus_execution12move_adapter6stdlib26make_native_borrow_address0B7_
FN:86,_RNvNtNtNtCs6aoit5jAd69_15nexus_execution12move_adapter6stdlib5testss_24framework_address_is_0x1
FN:94,_RNvNtNtNtCs6aoit5jAd69_15nexus_execution12move_adapter6stdlib5testss_26signer_module_is_available
FN:100,_RNvNtNtNtCs6aoit5jAd69_15nexus_execution12move_adapter6stdlib5testss_33native_functions_table_has_signer
FN:71,_RNCNvNtNtCs6aoit5jAd69_15nexus_execution12move_adapter6stdlib26make_native_borrow_address0B7_
FN:52,_RNvNtNtCs6aoit5jAd69_15nexus_execution12move_adapter6stdlib16native_functions
FN:29,_RNvNtNtCs6aoit5jAd69_15nexus_execution12move_adapter6stdlib17framework_address
FN:39,_RNvNtNtCs6aoit5jAd69_15nexus_execution12move_adapter6stdlib20get_framework_module
FN:65,_RNvNtNtCs6aoit5jAd69_15nexus_execution12move_adapter6stdlib26make_native_borrow_address
FNDA:6153,_RNvNtNtCsh7qRzkv9eQQ_15nexus_execution12move_adapter6stdlib16native_functions
FNDA:6153,_RNvNtNtCsh7qRzkv9eQQ_15nexus_execution12move_adapter6stdlib17framework_address
FNDA:0,_RNvNtNtCsh7qRzkv9eQQ_15nexus_execution12move_adapter6stdlib20get_framework_module
FNDA:6153,_RNvNtNtCsh7qRzkv9eQQ_15nexus_execution12move_adapter6stdlib26make_native_borrow_address
FNDA:0,_RNCNvNtNtCsh7qRzkv9eQQ_15nexus_execution12move_adapter6stdlib26make_native_borrow_address0B7_
FNDA:14,_RNvNtNtNtCs6aoit5jAd69_15nexus_execution12move_adapter6stdlib5testss_24framework_address_is_0x1
FNDA:14,_RNvNtNtNtCs6aoit5jAd69_15nexus_execution12move_adapter6stdlib5testss_26signer_module_is_available
FNDA:14,_RNvNtNtNtCs6aoit5jAd69_15nexus_execution12move_adapter6stdlib5testss_33native_functions_table_has_signer
FNDA:34,_RNCNvNtNtCs6aoit5jAd69_15nexus_execution12move_adapter6stdlib26make_native_borrow_address0B7_
FNDA:1753,_RNvNtNtCs6aoit5jAd69_15nexus_execution12move_adapter6stdlib16native_functions
FNDA:2009,_RNvNtNtCs6aoit5jAd69_15nexus_execution12move_adapter6stdlib17framework_address
FNDA:148,_RNvNtNtCs6aoit5jAd69_15nexus_execution12move_adapter6stdlib20get_framework_module
FNDA:1753,_RNvNtNtCs6aoit5jAd69_15nexus_execution12move_adapter6stdlib26make_native_borrow_address
FNF:8
FNH:8
DA:29,8162
DA:30,8162
DA:31,8162
DA:32,8162
DA:33,8162
DA:39,148
DA:40,148
DA:41,148
DA:42,14
DA:44,148
DA:52,7906
DA:53,7906
DA:54,7906
DA:55,7906
DA:56,7906
DA:57,7906
DA:58,7906
DA:59,7906
DA:60,7906
DA:65,7906
DA:66,7906
DA:67,7906
DA:71,34
DA:75,34
DA:76,34
DA:77,7906
DA:78,7906
DA:79,7906
DA:86,14
DA:87,14
DA:88,14
DA:89,14
DA:90,14
DA:91,14
DA:94,14
DA:95,14
DA:96,14
DA:97,14
DA:100,14
DA:101,14
DA:102,14
DA:103,14
DA:104,14
DA:105,14
BRF:0
BRH:0
LF:45
LH:45
end_of_record
SF:/Users/VD/Vootaa_Projects/vootaa-labs@github/nexus-node/crates/nexus-execution/src/move_adapter/type_bridge.rs
FN:80,_RNvNtNtCsh7qRzkv9eQQ_15nexus_execution12move_adapter11type_bridge19contract_to_accountB5_
FN:38,_RNvXNtNtCsh7qRzkv9eQQ_15nexus_execution12move_adapter11type_bridgeNtB2_15TypeBridgeErrorNtNtCslNfmTnNkGed_4core3fmt7Display3fmt
FN:120,_RNCNvNtNtCsh7qRzkv9eQQ_15nexus_execution12move_adapter11type_bridge10decode_u640B7_
FN:140,_RNCNvNtNtCsh7qRzkv9eQQ_15nexus_execution12move_adapter11type_bridge11decode_u1280B7_
FN:98,_RNCNvNtNtCsh7qRzkv9eQQ_15nexus_execution12move_adapter11type_bridge18address_from_bytes0B7_
FN:117,_RNvNtNtCsh7qRzkv9eQQ_15nexus_execution12move_adapter11type_bridge10decode_u64
FN:108,_RNvNtNtCsh7qRzkv9eQQ_15nexus_execution12move_adapter11type_bridge10encode_u64B5_
FN:158,_RNvNtNtCsh7qRzkv9eQQ_15nexus_execution12move_adapter11type_bridge11decode_bool
FN:137,_RNvNtNtCsh7qRzkv9eQQ_15nexus_execution12move_adapter11type_bridge11decode_u128
FN:148,_RNvNtNtCsh7qRzkv9eQQ_15nexus_execution12move_adapter11type_bridge11encode_boolB5_
FN:128,_RNvNtNtCsh7qRzkv9eQQ_15nexus_execution12move_adapter11type_bridge11encode_u128B5_
FN:95,_RNvNtNtCsh7qRzkv9eQQ_15nexus_execution12move_adapter11type_bridge18address_from_bytes
FN:86,_RNvNtNtCsh7qRzkv9eQQ_15nexus_execution12move_adapter11type_bridge19account_to_contractB5_
FN:70,_RNvNtNtCsh7qRzkv9eQQ_15nexus_execution12move_adapter11type_bridge21move_to_nexus_addressB5_
FN:64,_RNvNtNtCsh7qRzkv9eQQ_15nexus_execution12move_adapter11type_bridge21nexus_to_move_addressB5_
FN:38,_RNvXNtNtCs6aoit5jAd69_15nexus_execution12move_adapter11type_bridgeNtB2_15TypeBridgeErrorNtNtCslNfmTnNkGed_4core3fmt7Display3fmt
FN:117,_RNvNtNtCs6aoit5jAd69_15nexus_execution12move_adapter11type_bridge10decode_u64
FN:108,_RNvNtNtCs6aoit5jAd69_15nexus_execution12move_adapter11type_bridge10encode_u64B5_
FN:158,_RNvNtNtCs6aoit5jAd69_15nexus_execution12move_adapter11type_bridge11decode_bool
FN:137,_RNvNtNtCs6aoit5jAd69_15nexus_execution12move_adapter11type_bridge11decode_u128
FN:148,_RNvNtNtCs6aoit5jAd69_15nexus_execution12move_adapter11type_bridge11encode_boolB5_
FN:128,_RNvNtNtCs6aoit5jAd69_15nexus_execution12move_adapter11type_bridge11encode_u128B5_
FN:95,_RNvNtNtCs6aoit5jAd69_15nexus_execution12move_adapter11type_bridge18address_from_bytes
FN:86,_RNvNtNtCs6aoit5jAd69_15nexus_execution12move_adapter11type_bridge19account_to_contractB5_
FN:80,_RNvNtNtCs6aoit5jAd69_15nexus_execution12move_adapter11type_bridge19contract_to_accountB5_
FN:70,_RNvNtNtCs6aoit5jAd69_15nexus_execution12move_adapter11type_bridge21move_to_nexus_addressB5_
FN:64,_RNvNtNtCs6aoit5jAd69_15nexus_execution12move_adapter11type_bridge21nexus_to_move_addressB5_
FN:179,_RNvNtNtNtCs6aoit5jAd69_15nexus_execution12move_adapter11type_bridge5tests4addr
FN:183,_RNvNtNtNtCs6aoit5jAd69_15nexus_execution12move_adapter11type_bridge5tests8contract
FN:229,_RNvNtNtNtCs6aoit5jAd69_15nexus_execution12move_adapter11type_bridge5testss_13u64_roundtrip
FN:259,_RNvNtNtNtCs6aoit5jAd69_15nexus_execution12move_adapter11type_bridge5testss_14bool_roundtrip
FN:244,_RNvNtNtNtCs6aoit5jAd69_15nexus_execution12move_adapter11type_bridge5testss_14u128_roundtrip
FN:275,_RNvNtNtNtCs6aoit5jAd69_15nexus_execution12move_adapter11type_bridge5testss_17bool_decode_empty
FN:269,_RNvNtNtNtCs6aoit5jAd69_15nexus_execution12move_adapter11type_bridge5testss_19bool_decode_invalid
FN:219,_RNvNtNtNtCs6aoit5jAd69_15nexus_execution12move_adapter11type_bridge5testss_22zero_address_roundtrip
FN:238,_RNvNtNtNtCs6aoit5jAd69_15nexus_execution12move_adapter11type_bridge5testss_23u64_decode_wrong_length
FN:253,_RNvNtNtNtCs6aoit5jAd69_15nexus_execution12move_adapter11type_bridge5testss_24u128_decode_wrong_length
FN:206,_RNvNtNtNtCs6aoit5jAd69_15nexus_execution12move_adapter11type_bridge5testss_26address_from_bytes_success
FN:198,_RNvNtNtNtCs6aoit5jAd69_15nexus_execution12move_adapter11type_bridge5testss_26contract_account_roundtrip
FN:190,_RNvNtNtNtCs6aoit5jAd69_15nexus_execution12move_adapter11type_bridge5testss_28nexus_move_address_roundtrip
FN:213,_RNvNtNtNtCs6aoit5jAd69_15nexus_execution12move_adapter11type_bridge5testss_31address_from_bytes_wrong_length
FN:283,_RNvNtNtNtCs6aoit5jAd69_15nexus_execution12move_adapter11type_bridge5testss_35address_conversion_is_deterministic
FN:290,_RNvNtNtNtCs6aoit5jAd69_15nexus_execution12move_adapter11type_bridge5testss_50distinct_addresses_produce_distinct_move_addresses
FN:120,_RNCNvNtNtCs6aoit5jAd69_15nexus_execution12move_adapter11type_bridge10decode_u640B7_
FN:140,_RNCNvNtNtCs6aoit5jAd69_15nexus_execution12move_adapter11type_bridge11decode_u1280B7_
FN:98,_RNCNvNtNtCs6aoit5jAd69_15nexus_execution12move_adapter11type_bridge18address_from_bytes0B7_
FNDA:17,_RNvNtNtCsh7qRzkv9eQQ_15nexus_execution12move_adapter11type_bridge19contract_to_accountB5_
FNDA:0,_RNvXNtNtCsh7qRzkv9eQQ_15nexus_execution12move_adapter11type_bridgeNtB2_15TypeBridgeErrorNtNtCslNfmTnNkGed_4core3fmt7Display3fmt
FNDA:0,_RNCNvNtNtCsh7qRzkv9eQQ_15nexus_execution12move_adapter11type_bridge10decode_u640B7_
FNDA:0,_RNCNvNtNtCsh7qRzkv9eQQ_15nexus_execution12move_adapter11type_bridge11decode_u1280B7_
FNDA:0,_RNCNvNtNtCsh7qRzkv9eQQ_15nexus_execution12move_adapter11type_bridge18address_from_bytes0B7_
FNDA:0,_RNvNtNtCsh7qRzkv9eQQ_15nexus_execution12move_adapter11type_bridge10decode_u64
FNDA:0,_RNvNtNtCsh7qRzkv9eQQ_15nexus_execution12move_adapter11type_bridge10encode_u64B5_
FNDA:0,_RNvNtNtCsh7qRzkv9eQQ_15nexus_execution12move_adapter11type_bridge11decode_bool
FNDA:0,_RNvNtNtCsh7qRzkv9eQQ_15nexus_execution12move_adapter11type_bridge11decode_u128
FNDA:0,_RNvNtNtCsh7qRzkv9eQQ_15nexus_execution12move_adapter11type_bridge11encode_boolB5_
FNDA:0,_RNvNtNtCsh7qRzkv9eQQ_15nexus_execution12move_adapter11type_bridge11encode_u128B5_
FNDA:0,_RNvNtNtCsh7qRzkv9eQQ_15nexus_execution12move_adapter11type_bridge18address_from_bytes
FNDA:0,_RNvNtNtCsh7qRzkv9eQQ_15nexus_execution12move_adapter11type_bridge19account_to_contractB5_
FNDA:0,_RNvNtNtCsh7qRzkv9eQQ_15nexus_execution12move_adapter11type_bridge21move_to_nexus_addressB5_
FNDA:0,_RNvNtNtCsh7qRzkv9eQQ_15nexus_execution12move_adapter11type_bridge21nexus_to_move_addressB5_
FNDA:0,_RNvXNtNtCs6aoit5jAd69_15nexus_execution12move_adapter11type_bridgeNtB2_15TypeBridgeErrorNtNtCslNfmTnNkGed_4core3fmt7Display3fmt
FNDA:84,_RNvNtNtCs6aoit5jAd69_15nexus_execution12move_adapter11type_bridge10decode_u64
FNDA:70,_RNvNtNtCs6aoit5jAd69_15nexus_execution12move_adapter11type_bridge10encode_u64B5_
FNDA:56,_RNvNtNtCs6aoit5jAd69_15nexus_execution12move_adapter11type_bridge11decode_bool
FNDA:70,_RNvNtNtCs6aoit5jAd69_15nexus_execution12move_adapter11type_bridge11decode_u128
FNDA:28,_RNvNtNtCs6aoit5jAd69_15nexus_execution12move_adapter11type_bridge11encode_boolB5_
FNDA:56,_RNvNtNtCs6aoit5jAd69_15nexus_execution12move_adapter11type_bridge11encode_u128B5_
FNDA:28,_RNvNtNtCs6aoit5jAd69_15nexus_execution12move_adapter11type_bridge18address_from_bytes
FNDA:14,_RNvNtNtCs6aoit5jAd69_15nexus_execution12move_adapter11type_bridge19account_to_contractB5_
FNDA:26,_RNvNtNtCs6aoit5jAd69_15nexus_execution12move_adapter11type_bridge19contract_to_accountB5_
FNDA:28,_RNvNtNtCs6aoit5jAd69_15nexus_execution12move_adapter11type_bridge21move_to_nexus_addressB5_
FNDA:104,_RNvNtNtCs6aoit5jAd69_15nexus_execution12move_adapter11type_bridge21nexus_to_move_addressB5_
FNDA:70,_RNvNtNtNtCs6aoit5jAd69_15nexus_execution12move_adapter11type_bridge5tests4addr
FNDA:14,_RNvNtNtNtCs6aoit5jAd69_15nexus_execution12move_adapter11type_bridge5tests8contract
FNDA:14,_RNvNtNtNtCs6aoit5jAd69_15nexus_execution12move_adapter11type_bridge5testss_13u64_roundtrip
FNDA:14,_RNvNtNtNtCs6aoit5jAd69_15nexus_execution12move_adapter11type_bridge5testss_14bool_roundtrip
FNDA:14,_RNvNtNtNtCs6aoit5jAd69_15nexus_execution12move_adapter11type_bridge5testss_14u128_roundtrip
FNDA:14,_RNvNtNtNtCs6aoit5jAd69_15nexus_execution12move_adapter11type_bridge5testss_17bool_decode_empty
FNDA:14,_RNvNtNtNtCs6aoit5jAd69_15nexus_execution12move_adapter11type_bridge5testss_19bool_decode_invalid
FNDA:14,_RNvNtNtNtCs6aoit5jAd69_15nexus_execution12move_adapter11type_bridge5testss_22zero_address_roundtrip
FNDA:14,_RNvNtNtNtCs6aoit5jAd69_15nexus_execution12move_adapter11type_bridge5testss_23u64_decode_wrong_length
FNDA:14,_RNvNtNtNtCs6aoit5jAd69_15nexus_execution12move_adapter11type_bridge5testss_24u128_decode_wrong_length
FNDA:14,_RNvNtNtNtCs6aoit5jAd69_15nexus_execution12move_adapter11type_bridge5testss_26address_from_bytes_success
FNDA:14,_RNvNtNtNtCs6aoit5jAd69_15nexus_execution12move_adapter11type_bridge5testss_26contract_account_roundtrip
FNDA:14,_RNvNtNtNtCs6aoit5jAd69_15nexus_execution12move_adapter11type_bridge5testss_28nexus_move_address_roundtrip
FNDA:14,_RNvNtNtNtCs6aoit5jAd69_15nexus_execution12move_adapter11type_bridge5testss_31address_from_bytes_wrong_length
FNDA:14,_RNvNtNtNtCs6aoit5jAd69_15nexus_execution12move_adapter11type_bridge5testss_35address_conversion_is_deterministic
FNDA:14,_RNvNtNtNtCs6aoit5jAd69_15nexus_execution12move_adapter11type_bridge5testss_50distinct_addresses_produce_distinct_move_addresses
FNDA:14,_RNCNvNtNtCs6aoit5jAd69_15nexus_execution12move_adapter11type_bridge10decode_u640B7_
FNDA:14,_RNCNvNtNtCs6aoit5jAd69_15nexus_execution12move_adapter11type_bridge11decode_u1280B7_
FNDA:14,_RNCNvNtNtCs6aoit5jAd69_15nexus_execution12move_adapter11type_bridge18address_from_bytes0B7_
FNF:31
FNH:30
DA:38,0
DA:39,0
DA:40,0
DA:41,0
DA:43,0
DA:64,104
DA:65,104
DA:66,104
DA:70,28
DA:71,28
DA:72,28
DA:80,43
DA:81,43
DA:82,43
DA:86,14
DA:87,14
DA:88,14
DA:95,28
DA:96,28
DA:97,28
DA:98,28
DA:99,14
DA:100,28
DA:101,14
DA:102,28
DA:108,70
DA:109,70
DA:110,70
DA:117,84
DA:118,84
DA:119,84
DA:120,84
DA:121,14
DA:122,84
DA:123,70
DA:124,84
DA:128,56
DA:129,56
DA:130,56
DA:137,70
DA:138,70
DA:139,70
DA:140,70
DA:141,14
DA:142,70
DA:143,56
DA:144,70
DA:148,28
DA:149,28
DA:150,28
DA:158,56
DA:159,56
DA:160,14
DA:161,14
DA:162,14
DA:163,42
DA:164,42
DA:165,14
DA:166,14
DA:167,14
DA:168,14
DA:169,14
DA:171,56
DA:179,70
DA:180,70
DA:181,70
DA:183,14
DA:184,14
DA:185,14
DA:190,14
DA:191,14
DA:192,14
DA:193,14
DA:194,14
DA:195,14
DA:198,14
DA:199,14
DA:200,14
DA:201,14
DA:202,14
DA:203,14
DA:206,14
DA:207,14
DA:208,14
DA:209,14
DA:210,14
DA:213,14
DA:214,14
DA:215,14
DA:216,14
DA:219,14
DA:220,14
DA:221,14
DA:222,14
DA:223,14
DA:224,14
DA:229,14
DA:230,70
DA:231,70
DA:232,70
DA:233,70
DA:235,14
DA:238,14
DA:239,14
DA:240,14
DA:241,14
DA:244,14
DA:245,56
DA:246,56
DA:247,56
DA:248,56
DA:250,14
DA:253,14
DA:254,14
DA:255,14
DA:256,14
DA:259,14
DA:260,14
DA:261,14
DA:262,14
DA:263,14
DA:264,14
DA:265,14
DA:266,14
DA:269,14
DA:270,14
DA:271,14
DA:272,14
DA:275,14
DA:276,14
DA:277,14
DA:278,14
DA:283,14
DA:284,14
DA:285,14
DA:286,14
DA:287,14
DA:290,14
DA:291,14
DA:292,14
DA:293,14
DA:294,14
BRF:0
BRH:0
LF:148
LH:143
end_of_record
SF:/Users/VD/Vootaa_Projects/vootaa-labs@github/nexus-node/crates/nexus-execution/src/move_adapter/verifier.rs
FN:80,_RNvMs0_NtNtCsh7qRzkv9eQQ_15nexus_execution12move_adapter8verifierNtB5_14VerifierConfig14from_vm_config
FN:113,_RNvMs2_NtNtCsh7qRzkv9eQQ_15nexus_execution12move_adapter8verifierNtB5_16BytecodeVerifier14from_vm_config
FN:108,_RNvMs2_NtNtCsh7qRzkv9eQQ_15nexus_execution12move_adapter8verifierNtB5_16BytecodeVerifier3new
FN:121,_RNvMs2_NtNtCsh7qRzkv9eQQ_15nexus_execution12move_adapter8verifierNtB5_16BytecodeVerifier6verify
FN:54,_RNvXNtNtCsh7qRzkv9eQQ_15nexus_execution12move_adapter8verifierNtB2_17VerificationErrorNtNtCslNfmTnNkGed_4core3fmt7Display3fmt
FN:91,_RNvXs1_NtNtCsh7qRzkv9eQQ_15nexus_execution12move_adapter8verifierNtB5_14VerifierConfigNtNtCslNfmTnNkGed_4core7default7Default7default
FN:91,_RNvXs1_NtNtCs6aoit5jAd69_15nexus_execution12move_adapter8verifierNtB5_14VerifierConfigNtNtCslNfmTnNkGed_4core7default7Default7default
FN:80,_RNvMs0_NtNtCs6aoit5jAd69_15nexus_execution12move_adapter8verifierNtB5_14VerifierConfig14from_vm_config
FN:113,_RNvMs2_NtNtCs6aoit5jAd69_15nexus_execution12move_adapter8verifierNtB5_16BytecodeVerifier14from_vm_config
FN:108,_RNvMs2_NtNtCs6aoit5jAd69_15nexus_execution12move_adapter8verifierNtB5_16BytecodeVerifier3new
FN:121,_RNvMs2_NtNtCs6aoit5jAd69_15nexus_execution12move_adapter8verifierNtB5_16BytecodeVerifier6verify
FN:216,_RNvNtNtCs6aoit5jAd69_15nexus_execution12move_adapter8verifier16make_test_module
FN:54,_RNvXNtNtCs6aoit5jAd69_15nexus_execution12move_adapter8verifierNtB2_17VerificationErrorNtNtCslNfmTnNkGed_4core3fmt7Display3fmt
FN:282,_RNCNvNtNtNtCs6aoit5jAd69_15nexus_execution12move_adapter8verifier5testss_19v4_too_many_modules0B9_
FN:230,_RNvNtNtNtCs6aoit5jAd69_15nexus_execution12move_adapter8verifier5tests8verifier
FN:262,_RNvNtNtNtCs6aoit5jAd69_15nexus_execution12move_adapter8verifier5testss_12v2_too_small
FN:270,_RNvNtNtNtCs6aoit5jAd69_15nexus_execution12move_adapter8verifier5testss_12v3_bad_magic
FN:280,_RNvNtNtNtCs6aoit5jAd69_15nexus_execution12move_adapter8verifier5testss_19v4_too_many_modules
FN:312,_RNvNtNtNtCs6aoit5jAd69_15nexus_execution12move_adapter8verifier5testss_19v7_duplicate_module
FN:239,_RNvNtNtNtCs6aoit5jAd69_15nexus_execution12move_adapter8verifier5testss_19valid_single_module
FN:298,_RNvNtNtNtCs6aoit5jAd69_15nexus_execution12move_adapter8verifier5testss_22v6_total_size_exceeded
FN:246,_RNvNtNtNtCs6aoit5jAd69_15nexus_execution12move_adapter8verifier5testss_22valid_multiple_modules
FN:321,_RNvNtNtNtCs6aoit5jAd69_15nexus_execution12move_adapter8verifier5testss_23exactly_min_size_passes
FN:254,_RNvNtNtNtCs6aoit5jAd69_15nexus_execution12move_adapter8verifier5testss_25v1_empty_modules_rejected
FN:328,_RNvNtNtNtCs6aoit5jAd69_15nexus_execution12move_adapter8verifier5testss_26exactly_at_max_size_passes
FN:289,_RNvNtNtNtCs6aoit5jAd69_15nexus_execution12move_adapter8verifier5testss_26v5_single_module_too_large
FN:346,_RNvNtNtNtCs6aoit5jAd69_15nexus_execution12move_adapter8verifier5testss_26verification_error_display
FN:339,_RNvNtNtNtCs6aoit5jAd69_15nexus_execution12move_adapter8verifier5testss_29default_config_from_vm_config
FNDA:17,_RNvMs0_NtNtCsh7qRzkv9eQQ_15nexus_execution12move_adapter8verifierNtB5_14VerifierConfig14from_vm_config
FNDA:17,_RNvMs2_NtNtCsh7qRzkv9eQQ_15nexus_execution12move_adapter8verifierNtB5_16BytecodeVerifier14from_vm_config
FNDA:17,_RNvMs2_NtNtCsh7qRzkv9eQQ_15nexus_execution12move_adapter8verifierNtB5_16BytecodeVerifier3new
FNDA:0,_RNvMs2_NtNtCsh7qRzkv9eQQ_15nexus_execution12move_adapter8verifierNtB5_16BytecodeVerifier6verify
FNDA:0,_RNvXNtNtCsh7qRzkv9eQQ_15nexus_execution12move_adapter8verifierNtB2_17VerificationErrorNtNtCslNfmTnNkGed_4core3fmt7Display3fmt
FNDA:0,_RNvXs1_NtNtCsh7qRzkv9eQQ_15nexus_execution12move_adapter8verifierNtB5_14VerifierConfigNtNtCslNfmTnNkGed_4core7default7Default7default
FNDA:0,_RNvXs1_NtNtCs6aoit5jAd69_15nexus_execution12move_adapter8verifierNtB5_14VerifierConfigNtNtCslNfmTnNkGed_4core7default7Default7default
FNDA:374,_RNvMs0_NtNtCs6aoit5jAd69_15nexus_execution12move_adapter8verifierNtB5_14VerifierConfig14from_vm_config
FNDA:360,_RNvMs2_NtNtCs6aoit5jAd69_15nexus_execution12move_adapter8verifierNtB5_16BytecodeVerifier14from_vm_config
FNDA:514,_RNvMs2_NtNtCs6aoit5jAd69_15nexus_execution12move_adapter8verifierNtB5_16BytecodeVerifier3new
FNDA:287,_RNvMs2_NtNtCs6aoit5jAd69_15nexus_execution12move_adapter8verifierNtB5_16BytecodeVerifier6verify
FNDA:476,_RNvNtNtCs6aoit5jAd69_15nexus_execution12move_adapter8verifier16make_test_module
FNDA:14,_RNvXNtNtCs6aoit5jAd69_15nexus_execution12move_adapter8verifierNtB2_17VerificationErrorNtNtCslNfmTnNkGed_4core3fmt7Display3fmt
FNDA:70,_RNCNvNtNtNtCs6aoit5jAd69_15nexus_execution12move_adapter8verifier5testss_19v4_too_many_modules0B9_
FNDA:126,_RNvNtNtNtCs6aoit5jAd69_15nexus_execution12move_adapter8verifier5tests8verifier
FNDA:14,_RNvNtNtNtCs6aoit5jAd69_15nexus_execution12move_adapter8verifier5testss_12v2_too_small
FNDA:14,_RNvNtNtNtCs6aoit5jAd69_15nexus_execution12move_adapter8verifier5testss_12v3_bad_magic
FNDA:14,_RNvNtNtNtCs6aoit5jAd69_15nexus_execution12move_adapter8verifier5testss_19v4_too_many_modules
FNDA:14,_RNvNtNtNtCs6aoit5jAd69_15nexus_execution12move_adapter8verifier5testss_19v7_duplicate_module
FNDA:14,_RNvNtNtNtCs6aoit5jAd69_15nexus_execution12move_adapter8verifier5testss_19valid_single_module
FNDA:14,_RNvNtNtNtCs6aoit5jAd69_15nexus_execution12move_adapter8verifier5testss_22v6_total_size_exceeded
FNDA:14,_RNvNtNtNtCs6aoit5jAd69_15nexus_execution12move_adapter8verifier5testss_22valid_multiple_modules
FNDA:14,_RNvNtNtNtCs6aoit5jAd69_15nexus_execution12move_adapter8verifier5testss_23exactly_min_size_passes
FNDA:14,_RNvNtNtNtCs6aoit5jAd69_15nexus_execution12move_adapter8verifier5testss_25v1_empty_modules_rejected
FNDA:14,_RNvNtNtNtCs6aoit5jAd69_15nexus_execution12move_adapter8verifier5testss_26exactly_at_max_size_passes
FNDA:14,_RNvNtNtNtCs6aoit5jAd69_15nexus_execution12move_adapter8verifier5testss_26v5_single_module_too_large
FNDA:14,_RNvNtNtNtCs6aoit5jAd69_15nexus_execution12move_adapter8verifier5testss_26verification_error_display
FNDA:14,_RNvNtNtNtCs6aoit5jAd69_15nexus_execution12move_adapter8verifier5testss_29default_config_from_vm_config
FNF:22
FNH:21
DA:54,14
DA:55,14
DA:56,14
DA:57,14
DA:58,14
DA:59,14
DA:60,14
DA:80,391
DA:81,391
DA:82,391
DA:83,391
DA:84,391
DA:85,391
DA:86,391
DA:87,391
DA:91,0
DA:92,0
DA:93,0
DA:108,531
DA:109,531
DA:110,531
DA:113,377
DA:114,377
DA:115,377
DA:121,287
DA:122,287
DA:123,287
DA:124,28
DA:125,28
DA:126,28
DA:127,28
DA:128,259
DA:129,259
DA:130,259
DA:131,259
DA:132,14
DA:133,14
DA:134,14
DA:135,14
DA:136,14
DA:137,14
DA:138,14
DA:139,14
DA:140,245
DA:141,245
DA:142,245
DA:143,245
DA:145,301
DA:147,301
DA:148,14
DA:149,14
DA:150,14
DA:151,14
DA:152,14
DA:153,14
DA:154,14
DA:155,287
DA:156,287
DA:157,287
DA:158,287
DA:159,42
DA:160,42
DA:161,42
DA:162,42
DA:163,42
DA:164,42
DA:165,42
DA:166,245
DA:167,245
DA:168,245
DA:169,245
DA:170,28
DA:171,28
DA:172,28
DA:173,28
DA:174,28
DA:175,28
DA:176,28
DA:177,28
DA:178,217
DA:179,217
DA:180,217
DA:181,217
DA:182,217
DA:183,217
DA:184,217
DA:185,217
DA:186,28
DA:187,28
DA:188,28
DA:189,28
DA:190,28
DA:191,28
DA:192,189
DA:196,133
DA:197,14
DA:198,14
DA:199,14
DA:200,14
DA:201,14
DA:202,14
DA:203,14
DA:204,119
DA:205,119
DA:206,119
DA:207,287
DA:216,476
DA:217,476
DA:218,476
DA:219,476
DA:220,476
DA:221,476
DA:222,476
DA:230,126
DA:231,126
DA:232,126
DA:233,126
DA:234,126
DA:235,126
DA:236,126
DA:239,14
DA:240,14
DA:241,14
DA:242,14
DA:243,14
DA:246,14
DA:247,14
DA:248,14
DA:249,14
DA:250,14
DA:251,14
DA:254,14
DA:255,14
DA:256,14
DA:257,14
DA:258,14
DA:259,14
DA:262,14
DA:263,14
DA:264,14
DA:265,14
DA:266,14
DA:267,14
DA:270,14
DA:271,14
DA:272,14
DA:273,14
DA:274,14
DA:275,14
DA:276,14
DA:277,14
DA:280,14
DA:281,14
DA:282,70
DA:283,14
DA:284,14
DA:285,14
DA:286,14
DA:289,14
DA:290,14
DA:291,14
DA:292,14
DA:293,14
DA:294,14
DA:295,14
DA:298,14
DA:299,14
DA:300,14
DA:301,14
DA:302,14
DA:303,14
DA:304,14
DA:305,14
DA:306,14
DA:307,14
DA:308,14
DA:309,14
DA:312,14
DA:313,14
DA:314,14
DA:315,14
DA:316,14
DA:317,14
DA:318,14
DA:321,14
DA:322,14
DA:323,14
DA:324,14
DA:325,14
DA:328,14
DA:329,14
DA:330,14
DA:331,14
DA:332,14
DA:333,14
DA:334,14
DA:335,14
DA:336,14
DA:339,14
DA:340,14
DA:341,14
DA:342,14
DA:343,14
DA:346,14
DA:347,14
DA:348,14
DA:349,14
DA:350,14
DA:351,14
DA:352,14
DA:353,14
DA:354,14
BRF:0
BRH:0
LF:213
LH:210
end_of_record
SF:/Users/VD/Vootaa_Projects/vootaa-labs@github/nexus-node/crates/nexus-execution/src/move_adapter/vm_config.rs
FN:29,_RNvXNtNtCsh7qRzkv9eQQ_15nexus_execution12move_adapter9vm_configNtB2_8VmConfigNtNtCslNfmTnNkGed_4core7default7Default7default
FN:53,_RNvMs_NtNtCsh7qRzkv9eQQ_15nexus_execution12move_adapter9vm_configNtB4_8VmConfig11for_testing
FN:44,_RNvMs_NtNtCsh7qRzkv9eQQ_15nexus_execution12move_adapter9vm_configNtB4_8VmConfig21from_execution_config
FN:70,_RNvNtNtNtCs6aoit5jAd69_15nexus_execution12move_adapter9vm_config5testss_14default_values
FN:90,_RNvNtNtNtCs6aoit5jAd69_15nexus_execution12move_adapter9vm_config5testss_18for_testing_values
FN:78,_RNvNtNtNtCs6aoit5jAd69_15nexus_execution12move_adapter9vm_config5testss_21from_execution_config
FN:53,_RNvMs_NtNtCs6aoit5jAd69_15nexus_execution12move_adapter9vm_configNtB4_8VmConfig11for_testing
FN:44,_RNvMs_NtNtCs6aoit5jAd69_15nexus_execution12move_adapter9vm_configNtB4_8VmConfig21from_execution_config
FN:29,_RNvXNtNtCs6aoit5jAd69_15nexus_execution12move_adapter9vm_configNtB2_8VmConfigNtNtCslNfmTnNkGed_4core7default7Default7default
FNDA:6170,_RNvXNtNtCsh7qRzkv9eQQ_15nexus_execution12move_adapter9vm_configNtB2_8VmConfigNtNtCslNfmTnNkGed_4core7default7Default7default
FNDA:0,_RNvMs_NtNtCsh7qRzkv9eQQ_15nexus_execution12move_adapter9vm_configNtB4_8VmConfig11for_testing
FNDA:0,_RNvMs_NtNtCsh7qRzkv9eQQ_15nexus_execution12move_adapter9vm_configNtB4_8VmConfig21from_execution_config
FNDA:14,_RNvNtNtNtCs6aoit5jAd69_15nexus_execution12move_adapter9vm_config5testss_14default_values
FNDA:14,_RNvNtNtNtCs6aoit5jAd69_15nexus_execution12move_adapter9vm_config5testss_18for_testing_values
FNDA:14,_RNvNtNtNtCs6aoit5jAd69_15nexus_execution12move_adapter9vm_config5testss_21from_execution_config
FNDA:343,_RNvMs_NtNtCs6aoit5jAd69_15nexus_execution12move_adapter9vm_configNtB4_8VmConfig11for_testing
FNDA:14,_RNvMs_NtNtCs6aoit5jAd69_15nexus_execution12move_adapter9vm_configNtB4_8VmConfig21from_execution_config
FNDA:2281,_RNvXNtNtCs6aoit5jAd69_15nexus_execution12move_adapter9vm_configNtB2_8VmConfigNtNtCslNfmTnNkGed_4core7default7Default7default
FNF:6
FNH:6
DA:29,8451
DA:30,8451
DA:31,8451
DA:32,8451
DA:33,8451
DA:34,8451
DA:35,8451
DA:36,8451
DA:37,8451
DA:38,8451
DA:44,14
DA:45,14
DA:46,14
DA:47,14
DA:48,14
DA:49,14
DA:53,343
DA:54,343
DA:55,343
DA:56,343
DA:57,343
DA:58,343
DA:59,343
DA:60,343
DA:61,343
DA:62,343
DA:70,14
DA:71,14
DA:72,14
DA:73,14
DA:74,14
DA:75,14
DA:78,14
DA:79,14
DA:80,14
DA:81,14
DA:82,14
DA:83,14
DA:84,14
DA:86,14
DA:87,14
DA:90,14
DA:91,14
DA:92,14
DA:93,14
DA:94,14
BRF:0
BRH:0
LF:46
LH:46
end_of_record
SF:/Users/VD/Vootaa_Projects/vootaa-labs@github/nexus-node/crates/nexus-execution/src/service.rs
FN:89,_RNvMNtCsh7qRzkv9eQQ_15nexus_execution7serviceNtB2_22ExecutionServiceHandle12submit_batch
FN:109,_RNvMNtCsh7qRzkv9eQQ_15nexus_execution7serviceNtB2_22ExecutionServiceHandle21query_latest_sequence
FN:123,_RNvMNtCsh7qRzkv9eQQ_15nexus_execution7serviceNtB2_22ExecutionServiceHandle8shutdown
FN:197,_RNvMs_NtCsh7qRzkv9eQQ_15nexus_execution7serviceNtB4_14ExecutionActor13execute_batch
FN:153,_RNvMs_NtCsh7qRzkv9eQQ_15nexus_execution7serviceNtB4_14ExecutionActor3run
FN:284,_RNvNtCsh7qRzkv9eQQ_15nexus_execution7service23spawn_execution_service
FN:296,_RNvNtCsh7qRzkv9eQQ_15nexus_execution7service37spawn_execution_service_with_capacity
FN:217,_RNCNCNCNvMs_NtCsh7qRzkv9eQQ_15nexus_execution7serviceNtBa_14ExecutionActor13execute_batch000Bc_
FN:228,_RNCNCNCNvMs_NtCsh7qRzkv9eQQ_15nexus_execution7serviceNtBa_14ExecutionActor13execute_batch00s_0Bc_
FN:201,_RNCNvMs_NtCsh7qRzkv9eQQ_15nexus_execution7serviceNtB6_14ExecutionActor13execute_batch0B8_
FN:153,_RNCNvMs_NtCsh7qRzkv9eQQ_15nexus_execution7serviceNtB6_14ExecutionActor3run0B8_
FN:102,_RNCNCNvMNtCsh7qRzkv9eQQ_15nexus_execution7serviceNtB6_22ExecutionServiceHandle12submit_batch00B8_
FN:105,_RNCNCNvMNtCsh7qRzkv9eQQ_15nexus_execution7serviceNtB6_22ExecutionServiceHandle12submit_batch0s_0B8_
FN:114,_RNCNCNvMNtCsh7qRzkv9eQQ_15nexus_execution7serviceNtB6_22ExecutionServiceHandle21query_latest_sequence00B8_
FN:117,_RNCNCNvMNtCsh7qRzkv9eQQ_15nexus_execution7serviceNtB6_22ExecutionServiceHandle21query_latest_sequence0s_0B8_
FN:127,_RNCNCNvMNtCsh7qRzkv9eQQ_15nexus_execution7serviceNtB6_22ExecutionServiceHandle8shutdown00B8_
FN:93,_RNCNvMNtCsh7qRzkv9eQQ_15nexus_execution7serviceNtB4_22ExecutionServiceHandle12submit_batch0B6_
FN:109,_RNCNvMNtCsh7qRzkv9eQQ_15nexus_execution7serviceNtB4_22ExecutionServiceHandle21query_latest_sequence0B6_
FN:123,_RNCNvMNtCsh7qRzkv9eQQ_15nexus_execution7serviceNtB4_22ExecutionServiceHandle8shutdown0B6_
FN:89,_RNvMNtCs6aoit5jAd69_15nexus_execution7serviceNtB2_22ExecutionServiceHandle12submit_batch
FN:109,_RNvMNtCs6aoit5jAd69_15nexus_execution7serviceNtB2_22ExecutionServiceHandle21query_latest_sequence
FN:123,_RNvMNtCs6aoit5jAd69_15nexus_execution7serviceNtB2_22ExecutionServiceHandle8shutdown
FN:197,_RNvMs_NtCs6aoit5jAd69_15nexus_execution7serviceNtB4_14ExecutionActor13execute_batch
FN:153,_RNvMs_NtCs6aoit5jAd69_15nexus_execution7serviceNtB4_14ExecutionActor3run
FN:284,_RNvNtCs6aoit5jAd69_15nexus_execution7service23spawn_execution_service
FN:296,_RNvNtCs6aoit5jAd69_15nexus_execution7service37spawn_execution_service_with_capacity
FN:342,_RNvMNtNtCs6aoit5jAd69_15nexus_execution7service5testsNtB2_8MemState11set_balance
FN:336,_RNvMNtNtCs6aoit5jAd69_15nexus_execution7service5testsNtB2_8MemState3new
FN:365,_RNvMs0_NtNtCs6aoit5jAd69_15nexus_execution7service5testsNtB5_11TestAccount6random
FN:402,_RNvNtNtCs6aoit5jAd69_15nexus_execution7service5tests10make_batch
FN:372,_RNvNtNtCs6aoit5jAd69_15nexus_execution7service5tests13make_transfer
FN:509,_RNvNtNtCs6aoit5jAd69_15nexus_execution7service5testss_15handle_is_clone
FN:412,_RNvNtNtCs6aoit5jAd69_15nexus_execution7service5testss_18submit_empty_batch
FN:470,_RNvNtNtCs6aoit5jAd69_15nexus_execution7service5testss_22shutdown_is_idempotent
FN:425,_RNvNtNtCs6aoit5jAd69_15nexus_execution7service5testss_22submit_single_transfer
FN:526,_RNvNtNtCs6aoit5jAd69_15nexus_execution7service5testss_26dropped_handle_stops_actor
FN:484,_RNvNtNtCs6aoit5jAd69_15nexus_execution7service5testss_27multiple_transfers_in_batch
FN:446,_RNvNtNtCs6aoit5jAd69_15nexus_execution7service5testss_34sequential_batches_update_sequence
FN:349,_RNvXs_NtNtCs6aoit5jAd69_15nexus_execution7service5testsNtB4_8MemStateNtNtB8_6traits9StateView3get
FN:217,_RNCNCNCNvMs_NtCs6aoit5jAd69_15nexus_execution7serviceNtBa_14ExecutionActor13execute_batch000Bc_
FN:228,_RNCNCNCNvMs_NtCs6aoit5jAd69_15nexus_execution7serviceNtBa_14ExecutionActor13execute_batch00s_0Bc_
FN:102,_RNCNCNvMNtCs6aoit5jAd69_15nexus_execution7serviceNtB6_22ExecutionServiceHandle12submit_batch00B8_
FN:105,_RNCNCNvMNtCs6aoit5jAd69_15nexus_execution7serviceNtB6_22ExecutionServiceHandle12submit_batch0s_0B8_
FN:114,_RNCNCNvMNtCs6aoit5jAd69_15nexus_execution7serviceNtB6_22ExecutionServiceHandle21query_latest_sequence00B8_
FN:117,_RNCNCNvMNtCs6aoit5jAd69_15nexus_execution7serviceNtB6_22ExecutionServiceHandle21query_latest_sequence0s_0B8_
FN:127,_RNCNCNvMNtCs6aoit5jAd69_15nexus_execution7serviceNtB6_22ExecutionServiceHandle8shutdown00B8_
FN:93,_RNCNvMNtCs6aoit5jAd69_15nexus_execution7serviceNtB4_22ExecutionServiceHandle12submit_batch0B6_
FN:109,_RNCNvMNtCs6aoit5jAd69_15nexus_execution7serviceNtB4_22ExecutionServiceHandle21query_latest_sequence0B6_
FN:123,_RNCNvMNtCs6aoit5jAd69_15nexus_execution7serviceNtB4_22ExecutionServiceHandle8shutdown0B6_
FN:201,_RNCNvMs_NtCs6aoit5jAd69_15nexus_execution7serviceNtB6_14ExecutionActor13execute_batch0B8_
FN:153,_RNCNvMs_NtCs6aoit5jAd69_15nexus_execution7serviceNtB6_14ExecutionActor3run0B8_
FN:509,_RNCNvNtNtCs6aoit5jAd69_15nexus_execution7service5testss_15handle_is_clone0B7_
FN:412,_RNCNvNtNtCs6aoit5jAd69_15nexus_execution7service5testss_18submit_empty_batch0B7_
FN:470,_RNCNvNtNtCs6aoit5jAd69_15nexus_execution7service5testss_22shutdown_is_idempotent0B7_
FN:425,_RNCNvNtNtCs6aoit5jAd69_15nexus_execution7service5testss_22submit_single_transfer0B7_
FN:526,_RNCNvNtNtCs6aoit5jAd69_15nexus_execution7service5testss_26dropped_handle_stops_actor0B7_
FN:484,_RNCNvNtNtCs6aoit5jAd69_15nexus_execution7service5testss_27multiple_transfers_in_batch0B7_
FN:446,_RNCNvNtNtCs6aoit5jAd69_15nexus_execution7service5testss_34sequential_batches_update_sequence0B7_
FN:102,_RNCNCNvMNtCsh7qRzkv9eQQ_15nexus_execution7serviceNtB6_22ExecutionServiceHandle12submit_batch00Cs2jSKwtTFQO2_16nexus_test_utils
FN:105,_RNCNCNvMNtCsh7qRzkv9eQQ_15nexus_execution7serviceNtB6_22ExecutionServiceHandle12submit_batch0s_0Cs2jSKwtTFQO2_16nexus_test_utils
FN:114,_RNCNCNvMNtCsh7qRzkv9eQQ_15nexus_execution7serviceNtB6_22ExecutionServiceHandle21query_latest_sequence00Cs2jSKwtTFQO2_16nexus_test_utils
FN:117,_RNCNCNvMNtCsh7qRzkv9eQQ_15nexus_execution7serviceNtB6_22ExecutionServiceHandle21query_latest_sequence0s_0Cs2jSKwtTFQO2_16nexus_test_utils
FN:127,_RNCNCNvMNtCsh7qRzkv9eQQ_15nexus_execution7serviceNtB6_22ExecutionServiceHandle8shutdown00Cs2jSKwtTFQO2_16nexus_test_utils
FN:93,_RNCNvMNtCsh7qRzkv9eQQ_15nexus_execution7serviceNtB4_22ExecutionServiceHandle12submit_batch0Cs2jSKwtTFQO2_16nexus_test_utils
FN:109,_RNCNvMNtCsh7qRzkv9eQQ_15nexus_execution7serviceNtB4_22ExecutionServiceHandle21query_latest_sequence0Cs2jSKwtTFQO2_16nexus_test_utils
FN:123,_RNCNvMNtCsh7qRzkv9eQQ_15nexus_execution7serviceNtB4_22ExecutionServiceHandle8shutdown0Cs2jSKwtTFQO2_16nexus_test_utils
FNDA:292,_RNvMNtCsh7qRzkv9eQQ_15nexus_execution7serviceNtB2_22ExecutionServiceHandle12submit_batch
FNDA:28,_RNvMNtCsh7qRzkv9eQQ_15nexus_execution7serviceNtB2_22ExecutionServiceHandle21query_latest_sequence
FNDA:209,_RNvMNtCsh7qRzkv9eQQ_15nexus_execution7serviceNtB2_22ExecutionServiceHandle8shutdown
FNDA:292,_RNvMs_NtCsh7qRzkv9eQQ_15nexus_execution7serviceNtB4_14ExecutionActor13execute_batch
FNDA:280,_RNvMs_NtCsh7qRzkv9eQQ_15nexus_execution7serviceNtB4_14ExecutionActor3run
FNDA:280,_RNvNtCsh7qRzkv9eQQ_15nexus_execution7service23spawn_execution_service
FNDA:280,_RNvNtCsh7qRzkv9eQQ_15nexus_execution7service37spawn_execution_service_with_capacity
FNDA:292,_RNCNCNCNvMs_NtCsh7qRzkv9eQQ_15nexus_execution7serviceNtBa_14ExecutionActor13execute_batch000Bc_
FNDA:0,_RNCNCNCNvMs_NtCsh7qRzkv9eQQ_15nexus_execution7serviceNtBa_14ExecutionActor13execute_batch00s_0Bc_
FNDA:292,_RNCNvMs_NtCsh7qRzkv9eQQ_15nexus_execution7serviceNtB6_14ExecutionActor13execute_batch0B8_
FNDA:238,_RNCNvMs_NtCsh7qRzkv9eQQ_15nexus_execution7serviceNtB6_14ExecutionActor3run0B8_
FNDA:0,_RNCNCNvMNtCsh7qRzkv9eQQ_15nexus_execution7serviceNtB6_22ExecutionServiceHandle12submit_batch00B8_
FNDA:0,_RNCNCNvMNtCsh7qRzkv9eQQ_15nexus_execution7serviceNtB6_22ExecutionServiceHandle12submit_batch0s_0B8_
FNDA:0,_RNCNCNvMNtCsh7qRzkv9eQQ_15nexus_execution7serviceNtB6_22ExecutionServiceHandle21query_latest_sequence00B8_
FNDA:0,_RNCNCNvMNtCsh7qRzkv9eQQ_15nexus_execution7serviceNtB6_22ExecutionServiceHandle21query_latest_sequence0s_0B8_
FNDA:0,_RNCNCNvMNtCsh7qRzkv9eQQ_15nexus_execution7serviceNtB6_22ExecutionServiceHandle8shutdown00B8_
FNDA:0,_RNCNvMNtCsh7qRzkv9eQQ_15nexus_execution7serviceNtB4_22ExecutionServiceHandle12submit_batch0B6_
FNDA:0,_RNCNvMNtCsh7qRzkv9eQQ_15nexus_execution7serviceNtB4_22ExecutionServiceHandle21query_latest_sequence0B6_
FNDA:0,_RNCNvMNtCsh7qRzkv9eQQ_15nexus_execution7serviceNtB4_22ExecutionServiceHandle8shutdown0B6_
FNDA:98,_RNvMNtCs6aoit5jAd69_15nexus_execution7serviceNtB2_22ExecutionServiceHandle12submit_batch
FNDA:42,_RNvMNtCs6aoit5jAd69_15nexus_execution7serviceNtB2_22ExecutionServiceHandle21query_latest_sequence
FNDA:98,_RNvMNtCs6aoit5jAd69_15nexus_execution7serviceNtB2_22ExecutionServiceHandle8shutdown
FNDA:98,_RNvMs_NtCs6aoit5jAd69_15nexus_execution7serviceNtB4_14ExecutionActor13execute_batch
FNDA:98,_RNvMs_NtCs6aoit5jAd69_15nexus_execution7serviceNtB4_14ExecutionActor3run
FNDA:98,_RNvNtCs6aoit5jAd69_15nexus_execution7service23spawn_execution_service
FNDA:98,_RNvNtCs6aoit5jAd69_15nexus_execution7service37spawn_execution_service_with_capacity
FNDA:42,_RNvMNtNtCs6aoit5jAd69_15nexus_execution7service5testsNtB2_8MemState11set_balance
FNDA:98,_RNvMNtNtCs6aoit5jAd69_15nexus_execution7service5testsNtB2_8MemState3new
FNDA:42,_RNvMs0_NtNtCs6aoit5jAd69_15nexus_execution7service5testsNtB5_11TestAccount6random
FNDA:98,_RNvNtNtCs6aoit5jAd69_15nexus_execution7service5tests10make_batch
FNDA:42,_RNvNtNtCs6aoit5jAd69_15nexus_execution7service5tests13make_transfer
FNDA:14,_RNvNtNtCs6aoit5jAd69_15nexus_execution7service5testss_15handle_is_clone
FNDA:14,_RNvNtNtCs6aoit5jAd69_15nexus_execution7service5testss_18submit_empty_batch
FNDA:14,_RNvNtNtCs6aoit5jAd69_15nexus_execution7service5testss_22shutdown_is_idempotent
FNDA:14,_RNvNtNtCs6aoit5jAd69_15nexus_execution7service5testss_22submit_single_transfer
FNDA:14,_RNvNtNtCs6aoit5jAd69_15nexus_execution7service5testss_26dropped_handle_stops_actor
FNDA:14,_RNvNtNtCs6aoit5jAd69_15nexus_execution7service5testss_27multiple_transfers_in_batch
FNDA:14,_RNvNtNtCs6aoit5jAd69_15nexus_execution7service5testss_34sequential_batches_update_sequence
FNDA:257,_RNvXs_NtNtCs6aoit5jAd69_15nexus_execution7service5testsNtB4_8MemStateNtNtB8_6traits9StateView3get
FNDA:98,_RNCNCNCNvMs_NtCs6aoit5jAd69_15nexus_execution7serviceNtBa_14ExecutionActor13execute_batch000Bc_
FNDA:0,_RNCNCNCNvMs_NtCs6aoit5jAd69_15nexus_execution7serviceNtBa_14ExecutionActor13execute_batch00s_0Bc_
FNDA:0,_RNCNCNvMNtCs6aoit5jAd69_15nexus_execution7serviceNtB6_22ExecutionServiceHandle12submit_batch00B8_
FNDA:0,_RNCNCNvMNtCs6aoit5jAd69_15nexus_execution7serviceNtB6_22ExecutionServiceHandle12submit_batch0s_0B8_
FNDA:0,_RNCNCNvMNtCs6aoit5jAd69_15nexus_execution7serviceNtB6_22ExecutionServiceHandle21query_latest_sequence00B8_
FNDA:0,_RNCNCNvMNtCs6aoit5jAd69_15nexus_execution7serviceNtB6_22ExecutionServiceHandle21query_latest_sequence0s_0B8_
FNDA:14,_RNCNCNvMNtCs6aoit5jAd69_15nexus_execution7serviceNtB6_22ExecutionServiceHandle8shutdown00B8_
FNDA:98,_RNCNvMNtCs6aoit5jAd69_15nexus_execution7serviceNtB4_22ExecutionServiceHandle12submit_batch0B6_
FNDA:42,_RNCNvMNtCs6aoit5jAd69_15nexus_execution7serviceNtB4_22ExecutionServiceHandle21query_latest_sequence0B6_
FNDA:98,_RNCNvMNtCs6aoit5jAd69_15nexus_execution7serviceNtB4_22ExecutionServiceHandle8shutdown0B6_
FNDA:98,_RNCNvMs_NtCs6aoit5jAd69_15nexus_execution7serviceNtB6_14ExecutionActor13execute_batch0B8_
FNDA:98,_RNCNvMs_NtCs6aoit5jAd69_15nexus_execution7serviceNtB6_14ExecutionActor3run0B8_
FNDA:14,_RNCNvNtNtCs6aoit5jAd69_15nexus_execution7service5testss_15handle_is_clone0B7_
FNDA:14,_RNCNvNtNtCs6aoit5jAd69_15nexus_execution7service5testss_18submit_empty_batch0B7_
FNDA:14,_RNCNvNtNtCs6aoit5jAd69_15nexus_execution7service5testss_22shutdown_is_idempotent0B7_
FNDA:14,_RNCNvNtNtCs6aoit5jAd69_15nexus_execution7service5testss_22submit_single_transfer0B7_
FNDA:14,_RNCNvNtNtCs6aoit5jAd69_15nexus_execution7service5testss_26dropped_handle_stops_actor0B7_
FNDA:14,_RNCNvNtNtCs6aoit5jAd69_15nexus_execution7service5testss_27multiple_transfers_in_batch0B7_
FNDA:14,_RNCNvNtNtCs6aoit5jAd69_15nexus_execution7service5testss_34sequential_batches_update_sequence0B7_
FNDA:0,_RNCNCNvMNtCsh7qRzkv9eQQ_15nexus_execution7serviceNtB6_22ExecutionServiceHandle12submit_batch00Cs2jSKwtTFQO2_16nexus_test_utils
FNDA:0,_RNCNCNvMNtCsh7qRzkv9eQQ_15nexus_execution7serviceNtB6_22ExecutionServiceHandle12submit_batch0s_0Cs2jSKwtTFQO2_16nexus_test_utils
FNDA:0,_RNCNCNvMNtCsh7qRzkv9eQQ_15nexus_execution7serviceNtB6_22ExecutionServiceHandle21query_latest_sequence00Cs2jSKwtTFQO2_16nexus_test_utils
FNDA:0,_RNCNCNvMNtCsh7qRzkv9eQQ_15nexus_execution7serviceNtB6_22ExecutionServiceHandle21query_latest_sequence0s_0Cs2jSKwtTFQO2_16nexus_test_utils
FNDA:0,_RNCNCNvMNtCsh7qRzkv9eQQ_15nexus_execution7serviceNtB6_22ExecutionServiceHandle8shutdown00Cs2jSKwtTFQO2_16nexus_test_utils
FNDA:292,_RNCNvMNtCsh7qRzkv9eQQ_15nexus_execution7serviceNtB4_22ExecutionServiceHandle12submit_batch0Cs2jSKwtTFQO2_16nexus_test_utils
FNDA:28,_RNCNvMNtCsh7qRzkv9eQQ_15nexus_execution7serviceNtB4_22ExecutionServiceHandle21query_latest_sequence0Cs2jSKwtTFQO2_16nexus_test_utils
FNDA:209,_RNCNvMNtCsh7qRzkv9eQQ_15nexus_execution7serviceNtB4_22ExecutionServiceHandle8shutdown0Cs2jSKwtTFQO2_16nexus_test_utils
FNF:39
FNH:34
DA:89,390
DA:90,390
DA:91,390
DA:92,390
DA:93,390
DA:94,390
DA:95,390
DA:96,390
DA:97,390
DA:98,390
DA:99,390
DA:100,390
DA:101,390
DA:102,390
DA:103,390
DA:104,390
DA:105,389
DA:106,389
DA:109,70
DA:110,70
DA:111,70
DA:112,70
DA:113,70
DA:114,70
DA:115,70
DA:116,70
DA:117,70
DA:118,70
DA:123,307
DA:124,307
DA:125,307
DA:126,307
DA:127,307
DA:128,307
DA:153,378
DA:154,336
DA:156,795
DA:157,552
DA:159,390
DA:160,390
DA:161,390
DA:162,390
DA:163,390
DA:164,390
DA:165,389
DA:166,389
DA:167,0
DA:168,389
DA:170,389
DA:172,70
DA:173,70
DA:174,70
DA:176,92
DA:177,92
DA:182,106
DA:183,106
DA:197,390
DA:198,390
DA:199,390
DA:200,390
DA:201,390
DA:202,390
DA:203,390
DA:204,390
DA:205,390
DA:206,390
DA:217,390
DA:218,390
DA:219,390
DA:220,390
DA:221,390
DA:222,390
DA:223,390
DA:224,390
DA:225,390
DA:226,390
DA:228,0
DA:253,389
DA:284,378
DA:285,378
DA:286,378
DA:287,378
DA:288,378
DA:289,378
DA:290,378
DA:296,378
DA:297,378
DA:298,378
DA:299,378
DA:300,378
DA:301,378
DA:302,378
DA:303,378
DA:304,378
DA:305,378
DA:306,378
DA:307,378
DA:308,378
DA:309,378
DA:310,378
DA:311,378
DA:312,378
DA:313,378
DA:314,378
DA:315,378
DA:316,378
DA:336,98
DA:337,98
DA:338,98
DA:339,98
DA:340,98
DA:342,42
DA:343,42
DA:344,42
DA:345,42
DA:349,257
DA:350,257
DA:351,257
DA:352,257
DA:353,257
DA:354,257
DA:355,257
DA:365,42
DA:366,42
DA:367,42
DA:368,42
DA:369,42
DA:372,42
DA:373,42
DA:374,42
DA:375,42
DA:376,42
DA:377,42
DA:378,42
DA:379,42
DA:380,42
DA:381,42
DA:382,42
DA:383,42
DA:384,42
DA:385,42
DA:386,42
DA:387,42
DA:388,42
DA:389,42
DA:390,42
DA:391,42
DA:392,42
DA:393,42
DA:394,42
DA:395,42
DA:396,42
DA:397,42
DA:398,42
DA:399,42
DA:400,42
DA:402,98
DA:403,98
DA:404,98
DA:405,98
DA:406,98
DA:407,98
DA:408,98
DA:409,98
DA:412,14
DA:413,14
DA:414,14
DA:415,14
DA:416,14
DA:417,14
DA:418,14
DA:419,14
DA:420,14
DA:421,14
DA:422,14
DA:425,14
DA:426,14
DA:427,14
DA:428,14
DA:429,14
DA:430,14
DA:431,14
DA:432,14
DA:433,14
DA:434,14
DA:435,14
DA:436,14
DA:437,14
DA:438,14
DA:439,14
DA:440,14
DA:441,14
DA:442,14
DA:443,14
DA:446,14
DA:447,14
DA:448,14
DA:449,14
DA:450,14
DA:451,14
DA:452,14
DA:453,14
DA:454,14
DA:455,14
DA:456,14
DA:457,14
DA:458,14
DA:459,14
DA:460,14
DA:461,14
DA:462,14
DA:463,14
DA:464,14
DA:465,14
DA:466,14
DA:467,14
DA:470,14
DA:471,14
DA:472,14
DA:473,14
DA:474,14
DA:475,14
DA:476,14
DA:477,14
DA:478,14
DA:479,14
DA:480,14
DA:481,14
DA:484,14
DA:485,14
DA:486,14
DA:487,14
DA:488,14
DA:489,14
DA:490,14
DA:491,14
DA:492,14
DA:493,14
DA:494,14
DA:495,14
DA:496,14
DA:497,14
DA:498,14
DA:499,14
DA:500,14
DA:501,14
DA:502,14
DA:503,14
DA:504,14
DA:505,14
DA:506,14
DA:509,14
DA:510,14
DA:511,14
DA:512,14
DA:513,14
DA:514,14
DA:515,14
DA:516,14
DA:517,14
DA:518,14
DA:519,14
DA:520,14
DA:521,14
DA:522,14
DA:523,14
DA:526,14
DA:527,14
DA:528,14
DA:529,14
DA:530,14
DA:531,14
DA:532,14
DA:533,14
DA:534,14
BRF:0
BRH:0
LF:378
LH:372
end_of_record
SF:/Users/VD/Vootaa_Projects/vootaa-labs@github/nexus-node/crates/nexus-execution/src/traits.rs
FN:74,_RNvYNtNtNtCsh7qRzkv9eQQ_15nexus_execution9block_stm8executor16OverlayStateViewNtNtB8_6traits9StateView8containsB8_
FN:75,_RNCNvYNtNtNtCsh7qRzkv9eQQ_15nexus_execution9block_stm8executor16OverlayStateViewNtNtBa_6traits9StateView8contains0Ba_
FN:75,_RNCNvYNtNtNtCsczoQVObes9Y_16nexus_test_utils8fixtures9execution12MemStateViewNtNtCsh7qRzkv9eQQ_15nexus_execution6traits9StateView8contains0Cs6tvkYeGigTK_11fv_proptest
FN:74,_RNvYNtNtNtCsczoQVObes9Y_16nexus_test_utils8fixtures9execution12MemStateViewNtNtCsh7qRzkv9eQQ_15nexus_execution6traits9StateView8containsCs6tvkYeGigTK_11fv_proptest
FN:75,_RNCNvYNtNtNtCsczoQVObes9Y_16nexus_test_utils8fixtures9execution12MemStateViewNtNtCsh7qRzkv9eQQ_15nexus_execution6traits9StateView8contains0CsbDoWjIDejJh_12gas_baseline
FN:74,_RNvYNtNtNtCsczoQVObes9Y_16nexus_test_utils8fixtures9execution12MemStateViewNtNtCsh7qRzkv9eQQ_15nexus_execution6traits9StateView8containsCsbDoWjIDejJh_12gas_baseline
FN:74,_RNvYNtNtNtNtCs6aoit5jAd69_15nexus_execution12move_adapter10state_view5tests8MemStateNtNtBa_6traits9StateView8containsBa_
FN:88,_RNvNvNtNtCs6aoit5jAd69_15nexus_execution6traits5testss_23executor_is_object_safe12__accepts_dyn
FN:94,_RNvNvNtNtCs6aoit5jAd69_15nexus_execution6traits5testss_25state_view_is_object_safe12__accepts_dyn
FN:100,_RINvNvNtNtCs6aoit5jAd69_15nexus_execution6traits5testss_20traits_are_send_sync16assert_send_syncDNtB6_19TransactionExecutorEL_EB8_
FN:100,_RINvNvNtNtCs6aoit5jAd69_15nexus_execution6traits5testss_20traits_are_send_sync16assert_send_syncDNtB6_9StateViewEL_EB8_
FN:74,_RNvYNtNvNtNtCs6aoit5jAd69_15nexus_execution6traits5testss_33default_contains_delegates_to_get7MapViewNtB8_9StateView8containsBa_
FN:74,_RNvYNtNtNtCs6aoit5jAd69_15nexus_execution9block_stm14property_tests12MemStateViewNtNtB8_6traits9StateView8containsB8_
FN:74,_RNvYNtNtNtNtCs6aoit5jAd69_15nexus_execution12move_adapter9publisher5tests8MemStateNtNtBa_6traits9StateView8containsBa_
FN:74,_RNvYNtNtNtCs6aoit5jAd69_15nexus_execution12move_adapter5tests10EmptyStateNtNtB8_6traits9StateView8containsB8_
FN:74,_RNvYNtNtNtNtCs6aoit5jAd69_15nexus_execution12move_adapter8nexus_vm5tests17ResourceFailStateNtNtBa_6traits9StateView8containsBa_
FN:74,_RNvYNtNtNtNtCs6aoit5jAd69_15nexus_execution12move_adapter8nexus_vm5tests8MemStateNtNtBa_6traits9StateView8containsBa_
FN:74,_RNvYNtNtNtNtCs6aoit5jAd69_15nexus_execution12move_adapter9resources5tests8MemStateNtNtBa_6traits9StateView8containsBa_
FN:74,_RNvYNtNtNtNtCs6aoit5jAd69_15nexus_execution9block_stm9mvhashmap5tests8MemStateNtNtBa_6traits9StateView8containsBa_
FN:99,_RNvNtNtCs6aoit5jAd69_15nexus_execution6traits5testss_20traits_are_send_sync
FN:87,_RNvNtNtCs6aoit5jAd69_15nexus_execution6traits5testss_23executor_is_object_safe
FN:93,_RNvNtNtCs6aoit5jAd69_15nexus_execution6traits5testss_25state_view_is_object_safe
FN:107,_RNvNtNtCs6aoit5jAd69_15nexus_execution6traits5testss_33default_contains_delegates_to_get
FN:114,_RNvXNvNtNtCs6aoit5jAd69_15nexus_execution6traits5testss_33default_contains_delegates_to_getNtB2_7MapViewNtB6_9StateView3get
FN:74,_RNvYNtNtNtCs6aoit5jAd69_15nexus_execution7service5tests8MemStateNtNtB8_6traits9StateView8containsB8_
FN:74,_RNvYNtNtNtNtCs6aoit5jAd69_15nexus_execution12move_adapter7session5tests10EmptyStateNtNtBa_6traits9StateView8containsBa_
